(dp0
I11269
VSPRY1
p1
sI6150
VITGAV
p2
sI9644
VPTPN11
p3
sI10252
VROCK2
p4
sI10840
VSHC1
p5
sI11283
VSRC
p6
sI3609
VFCER1A
p7
sI3611
VFCER1G
p8
sI1541
VCBL
p9
sI1057
VBLK
p10
sI3618
VFCGR2B
p11
sI11270
VSPRY2
p12
sI10417
VRPS27A
p13
sI12841
VYES1
p14
sI2090
VCLTA
p15
sI13867
VSH3KBP1
p16
sI6156
VITGB3
p17
sI11357
VSTAM
p18
sI561
VAP2A1
p19
sI562
VAP2A2
p20
sI563
VAP2B1
p21
sI564
VAP2M1
p22
sI5173
VHRAS
p23
sI24634
VEPS15L1
p24
sI3679
VFGF22
p25
sI3680
VFGF23
p26
sI3681
VFGF3
p27
sI16457
VMAP3K7CL
p28
sI9802
VRAC2
p29
sI16971
VFRS2
p30
sI6856
VMAP3K4
p31
sI6735
VLYN
p32
sI3665
VFGF1
p33
sI3666
VFGF10
p34
sI3672
VFGF16
p35
sI21604
VEPN1
p36
sI3674
VFGF18
p37
sI3675
VFGF19
p38
sI3676
VFGF2
p39
sI3165
VS1PR1
p40
sI11358
VSTAM2
p41
sI8799
VPDGFA
p42
sI8800
VPDGFB
p43
sI1633
VCD19
p44
sI8803
VPDGFRA
p45
sI8804
VPDGFRB
p46
sI9829
VRAF1
p47
sI3686
VFGF8
p48
sI3687
VFGF9
p49
sI3688
VFGFR1
p50
sI9404
VPRKCI
p51
sI3690
VFGFR3
p52
sI3691
VFGFR4
p53
sI1133
VBTK
p54
sI9839
VRALA
p55
sI8816
VPDPK1
p56
sI12401
VTTK
p57
sI16500
VDAPP1
p58
sI10430
VRPS6KA1
p59
sI3689
VFGFR2
p60
sI4897
VHGS
p61
sI9855
VRAP1A
p62
sI7808
VNGF
p63
sI9857
VRAP1B
p64
sI5253
VHSP90AA1
p65
sI646
VARAF
p66
sI9871
VRASA1
p67
sI9875
VRASGRF1
p68
sI7316
VMS4A2
p69
sI9878
VRASGRP1
p70
sI10436
VRPS6KB1
p71
sI3226
VEFNB1
p72
sI667
VRHOA
p73
sI3229
VEGF
p74
sI6307
VKDR
p75
sI3236
VEGFR
p76
sI6342
VKIT
p77
sI3697
VFGR
p78
sI1705
VCD86
p79
sI12458
VUBA52
p80
sI6343
VKITLG
p81
sI12463
VUBB
p82
sI9393
VPRKCA
p83
sI9395
VPRKCB
p84
sI12468
VUBC
p85
sI9399
VPRKCD
p86
sI6840
VMAP2K1
p87
sI9401
VPRKCE
p88
sI6842
VMAP2K2
p89
sI6843
VMAP2K3
p90
sI6844
VMAP2K4
p91
sI6846
VMAP2K6
p92
sI9407
VPRKD1
p93
sI6848
VMAP3K1
p94
sI9410
VPRKCQ
p95
sI9412
VPRKCZ
p96
sI5318
VTNC
p97
sI4385
VGNAI2
p98
sI1736
VCDC42
p99
sI6860
VMAP3K8
p100
sI10447
VRRAS
p101
sI6871
VMAPK1
p102
sI6877
VMAPK3
p103
sI6881
VMAPK8
p104
sI11491
VSYK
p105
sI4840
VHCK
p106
sI15607
VARHGEF7
p107
sI1785
VCDKN1B
p108
sI6906
VMATK
p109
sI3685
VFGF7
p110
sI6407
VKRAS
p111
sI8975
VPIK3CA
p112
sI8976
VPIK3CB
p113
sI8977
VPIK3CD
p114
sI8979
VPIK3R1
p115
sI8980
VPIK3R2
p116
sI8981
VPIK3R3
p117
sI8986
VPIM1
p118
sI4893
VHGF
p119
sI4384
VGNAI1
p120
sI10017
VRIT2
p121
sI4387
VGNAI3
p122
sI10023
VRIT1
p123
sI391
VAKT1
p124
sI4396
VGNB1
p125
sI4404
VGNG2
p126
sI7989
VNRAS
p127
sI7997
VNRG1
p128
sI7998
VNRG2
p129
sI565
VAP2S1
p130
sI3392
VEPHB1
p131
sI3393
VEPHB2
p132
sI15842
VERBB2IP
p133
sI3419
VEPS15
p134
sI9052
VPLAU
p135
sI9053
VPLAUR
p136
sI8031
VNTRK1
p137
sI4449
VGPC1
p138
sI3430
VERBB2
p139
sI3431
VERBB3
p140
sI3432
VERBB4
p141
sI9065
VPLCG1
p142
sI19310
VPIM3
p143
sI12657
VVAV1
p144
sI3443
VEREG
p145
sI7029
VMET
p146
sI6524
VLCK
p147
sI10902
VSLA
p148
sI6465
VKSR1
p149
sI12680
VVEGFA
p150
sI393
VAKT3
p151
sI9611
VPTK2
p152
sI9612
VPTK2B
p153
sI8590
VPAK1
p154
sI8591
VPAK2
p155
sI936
VBAD
p156
sI9642
VPTPN1
p157
sI12716
VTRPV1
p158
sI2990
VDOK1
p159
sI11187
VSOS1
p160
sI12724
VVTN
p161
sI11701
VTDGF1
p162
sI1097
VBRAF
p163
sI29112
VIQSEC1
p164
sI6079
VINPP5D
p165
sI4037
VFYN
p166
sI9801
VRAC1
p167
sI1735
VCDC37
p168
sI9673
VPTPRJ
p169
sI10432
VRPS6KA3
p170
sI4566
VGRB2
p171
sI1700
VCD80
p172
sI10831
VSH3GL2
p173
sI6110
VIQGAP1
p174
sI4066
VGAB1
p175
sI11240
VSPHK1
p176
sI30698
VTRAT1
p177
sI6125
VIRS1
p178
sI6126
VIRS2
p179
sI1653
VCD28
p180
sI3059
VHBEGF
p181
s.