(dp0
I6150
VITGAV
p1
sI10252
VROCK2
p2
sI3393
VEPHB2
p3
sI11283
VSRC
p4
sI3609
VFCER1A
p5
sI3611
VFCER1G
p6
sI1057
VBLK
p7
sI3618
VFCGR2B
p8
sI12841
VYES1
p9
sI6156
VITGB3
p10
sI5173
VHRAS
p11
sI16457
VMAP3K7CL
p12
sI9802
VRAC2
p13
sI6735
VLYN
p14
sI3165
VS1PR1
p15
sI1736
VCDC42
p16
sI8799
VPDGFA
p17
sI8800
VPDGFB
p18
sI8803
VPDGFRA
p19
sI8804
VPDGFRB
p20
sI9829
VRAF1
p21
sI6844
VMAP2K4
p22
sI1133
VBTK
p23
sI9839
VRALA
p24
sI8816
VPDPK1
p25
sI3697
VFGR
p26
sI16500
VDAPP1
p27
sI6846
VMAP2K6
p28
sI9855
VRAP1A
p29
sI7808
VNGF
p30
sI9857
VRAP1B
p31
sI646
VARAF
p32
sI9871
VRASA1
p33
sI9875
VRASGRF1
p34
sI7316
VMS4A2
p35
sI9878
VRASGRP1
p36
sI9412
VPRKCZ
p37
sI3226
VEFNB1
p38
sI667
VRHOA
p39
sI3229
VEGF
p40
sI6307
VKDR
p41
sI3236
VEGFR
p42
sI12401
VTTK
p43
sI9393
VPRKCA
p44
sI9395
VPRKCB
p45
sI9399
VPRKCD
p46
sI6840
VMAP2K1
p47
sI9401
VPRKCE
p48
sI6842
VMAP2K2
p49
sI6843
VMAP2K3
p50
sI9404
VPRKCI
p51
sI10430
VRPS6KA1
p52
sI9407
VPRKD1
p53
sI10432
VRPS6KA3
p54
sI9410
VPRKCQ
p55
sI10436
VRPS6KB1
p56
sI5318
VTNC
p57
sI4385
VGNAI2
p58
sI6856
VMAP3K4
p59
sI6860
VMAP3K8
p60
sI10447
VRRAS
p61
sI6871
VMAPK1
p62
sI6877
VMAPK3
p63
sI6881
VMAPK8
p64
sI11491
VSYK
p65
sI4840
VHCK
p66
sI1785
VCDKN1B
p67
sI6407
VKRAS
p68
sI8975
VPIK3CA
p69
sI8979
VPIK3R1
p70
sI8986
VPIM1
p71
sI4893
VHGF
p72
sI10017
VRIT2
p73
sI10023
VRIT1
p74
sI4396
VGNB1
p75
sI4404
VGNG2
p76
sI7989
VNRAS
p77
sI3392
VEPHB1
p78
sI6465
VKSR1
p79
sI6848
VMAP3K1
p80
sI9053
VPLAUR
p81
sI8031
VNTRK1
p82
sI4449
VGPC1
p83
sI19310
VPIM3
p84
sI12657
VVAV1
p85
sI7029
VMET
p86
sI6524
VLCK
p87
sI10902
VSLA
p88
sI391
VAKT1
p89
sI12680
VVEGFA
p90
sI393
VAKT3
p91
sI9611
VPTK2
p92
sI9612
VPTK2B
p93
sI8590
VPAK1
p94
sI8591
VPAK2
p95
sI9052
VPLAU
p96
sI936
VBAD
p97
sI9642
VPTPN1
p98
sI12716
VTRPV1
p99
sI2990
VDOK1
p100
sI12724
VVTN
p101
sI11701
VTDGF1
p102
sI1097
VBRAF
p103
sI6079
VINPP5D
p104
sI4037
VFYN
p105
sI9801
VRAC1
p106
sI9673
VPTPRJ
p107
sI6110
VIQGAP1
p108
sI11240
VSPHK1
p109
s.