ccopy_reg
_reconstructor
p0
(cbelpy.trips.processor
TripsProcessor
p1
c__builtin__
object
p2
Ntp3
Rp4
(dp5
S'hgnc_cache'
p6
(dp7
S'5173'
p8
VHRAS
p9
sS'1097'
p10
VBRAF
p11
sS'3229'
p12
VEGF
p13
sS'6871'
p14
VMAPK1
p15
ssS'tree'
p16
g0
(cxml.etree.ElementTree
Element
p17
g2
Ntp18
Rp19
(dp20
S'attrib'
p21
(dp22
sS'tag'
p23
S'extractions'
p24
sS'_children'
p25
(lp26
g0
(g17
g2
Ntp27
Rp28
(dp29
g21
(dp30
S'start'
p31
S'0'
p32
sS'paragraph'
p33
S'paragraph152'
p34
sS'end'
p35
S'68'
p36
sS'lisp'
p37
S'(EVENT ONT::V387779 ONT::BIND :AGENT ONT::V387775 :AFFECTED ONT::V387855 :DRUM - :TENSE ONT::PRES)'
p38
sS'uttnum'
p39
S'336'
p40
sS'id'
p41
S'V387779'
p42
sS'rule'
p43
S'-BIND1'
p44
ssg23
S'EVENT'
p45
sg25
(lp46
g0
(g17
g2
Ntp47
Rp48
(dp49
S'text'
p50
S'ONT::BIND'
p51
sg21
(dp52
sg23
S'type'
p53
sg25
(lp54
sbag0
(g17
g2
Ntp55
Rp56
(dp57
g21
(dp58
g31
S'0'
p59
sg35
S'68'
p60
sg41
S'V387779'
p61
ssg23
S'predicate'
p62
sg25
(lp63
g0
(g17
g2
Ntp64
Rp65
(dp66
g50
S'ONT::ATTACH'
p67
sg21
(dp68
sg23
g53
sg25
(lp69
sbag0
(g17
g2
Ntp70
Rp71
(dp72
g50
S'The receptor tyrosine kinase EGFR binds the growth factor ligand EGF'
p73
sg21
(dp74
S'normalization'
p75
S'BIND'
p76
ssg23
S'text'
p77
sg25
(lp78
sbasbag0
(g17
g2
Ntp79
Rp80
(dp81
g21
(dp82
S'dbid'
p83
S'XFAM:PF07714|GO:0005006|UP:P04412|XFAM:PF01030|UP:P0CY46|XFAM:PF00757'
p84
sg35
S'34'
p85
sS'role'
p86
S':AGENT'
p87
sg41
S'V387775'
p88
sg31
S'0'
p89
ssg23
S'arg1'
p90
sg25
(lp91
g0
(g17
g2
Ntp92
Rp93
(dp94
g50
S'ONT::PROTEIN'
p95
sg21
(dp96
sg23
g53
sg25
(lp97
sbag0
(g17
g2
Ntp98
Rp99
(dp100
g50
S'The receptor tyrosine kinase EGFR'
p101
sg21
(dp102
g75
S'EGFR'
p103
ssg23
g77
sg25
(lp104
sbasbag0
(g17
g2
Ntp105
Rp106
(dp107
g21
(dp108
g83
S'XFAM:PF07645|XFAM:PF00058|UP:P01133|UP:P01132|HGNC:3229|XFAM:PF00008'
p109
sg35
S'68'
p110
sg86
S':AFFECTED'
p111
sg41
S'V387855'
p112
sg31
S'40'
p113
ssg23
S'arg2'
p114
sg25
(lp115
g0
(g17
g2
Ntp116
Rp117
(dp118
g50
S'ONT::PROTEIN'
p119
sg21
(dp120
sg23
g53
sg25
(lp121
sbag0
(g17
g2
Ntp122
Rp123
(dp124
g50
S'the growth factor ligand EGF'
p125
sg21
(dp126
g75
S'EGF'
p127
ssg23
g77
sg25
(lp128
sbasbag0
(g17
g2
Ntp129
Rp130
(dp131
g50
S'The receptor tyrosine kinase EGFR binds the growth factor ligand EGF'
p132
sg21
(dp133
sg23
g77
sg25
(lp134
sbasbag0
(g17
g2
Ntp135
Rp136
(dp137
g21
(dp138
g35
S'58'
p139
sg37
S'(TERM ONT::V387806 ONT::PROTEIN :NAME W::GROWTH-FACTOR :DRUM ((:DRUM (TERM :ID GO::|0008083| :NAME "growth factor activity" :MATCHED-VARIANTS ("growth factor")) (TERM :ID UP::Q8V307 :NAME "Growth factor" :MATCHED-VARIANTS ("growth factor")) (TERM :ID UP::Q776B5 :NAME "Growth factor" :MATCHED-VARIANTS ("growth factor")) (TERM :ID UP::P08072 :NAME "Growth factor" :MATCHED-VARIANTS ("growth factor") :DBXREFS (XFAM::PF00008)) (TERM :ID UP::Q6RZT5 :NAME "Growth factor" :MATCHED-VARIANTS ("growth factor")) (TERM :ID UP::P08441 :NAME "Growth factor" :MATCHED-VARIANTS ("growth factor")))))'
p140
sg83
S'UP:Q776B5|UP:Q6RZT5|UP:P08072|UP:P08441|UP:Q8V307|GO:0008083|XFAM:PF00008'
p141
sg43
S'-SIMPLE-REF'
p142
sg31
S'40'
p143
sg33
S'paragraph152'
p144
sg39
S'336'
p145
sg41
S'V387806'
p146
ssg23
S'TERM'
p147
sg25
(lp148
g0
(g17
g2
Ntp149
Rp150
(dp151
g50
S'ONT::PROTEIN'
p152
sg21
(dp153
sg23
g53
sg25
(lp154
sbag0
(g17
g2
Ntp155
Rp156
(dp157
g50
S'GROWTH-FACTOR'
p158
sg21
(dp159
sg23
S'name'
p160
sg25
(lp161
sbag0
(g17
g2
Ntp162
Rp163
(dp164
g50
S'the growth factor'
p165
sg21
(dp166
sg23
g77
sg25
(lp167
sbasbag0
(g17
g2
Ntp168
Rp169
(dp170
g21
(dp171
g35
S'68'
p172
sg37
S'(TERM ONT::V387843 ONT::EVENT-OF-CHANGE :NAME W::LIGAND :DRUM ((:DRUM (TERM :ID GO::|0005488| :NAME "binding" :MATCHED-VARIANTS ("ligand") :MAPPINGS ((MAP :THROUGH (CONCEPT GO::|0003674| (SENSE (MORPH (POS N) (WORD MOLECULAR_FUNCTION)))) :TO ONT::EVENT-OF-CHANGE))) (SPECIALIST :EUI E0037512 :CITATION-FORM "ligand"))))'
p173
sg83
S'GO:0005488'
p174
sg43
S'-SIMPLE-REF'
p175
sg31
S'40'
p176
sg33
S'paragraph152'
p177
sg39
S'336'
p178
sg41
S'V387843'
p179
ssg23
g147
sg25
(lp180
g0
(g17
g2
Ntp181
Rp182
(dp183
g50
S'ONT::EVENT-OF-CHANGE'
p184
sg21
(dp185
sg23
g53
sg25
(lp186
sbag0
(g17
g2
Ntp187
Rp188
(dp189
g50
S'LIGAND'
p190
sg21
(dp191
sg23
g160
sg25
(lp192
sbag0
(g17
g2
Ntp193
Rp194
(dp195
g50
S'the growth factor ligand EGF'
p196
sg21
(dp197
sg23
g77
sg25
(lp198
sbasbag0
(g17
g2
Ntp199
Rp200
(dp201
g21
(dp202
g35
S'34'
p203
sg37
S'(TERM ONT::V387753 ONT::PROTEIN :NAME W::RECEPTOR :DRUM ((:DRUM (TERM :ID GO::|0004872| :NAME "receptor activity" :MATCHED-VARIANTS ("receptor")) (SPECIALIST :EUI E0052187 :CITATION-FORM "receptor"))))'
p204
sg83
S'GO:0004872'
p205
sg43
S'-SIMPLE-REF'
p206
sg31
S'0'
p207
sg33
S'paragraph152'
p208
sg39
S'336'
p209
sg41
S'V387753'
p210
ssg23
g147
sg25
(lp211
g0
(g17
g2
Ntp212
Rp213
(dp214
g50
S'ONT::PROTEIN'
p215
sg21
(dp216
sg23
g53
sg25
(lp217
sbag0
(g17
g2
Ntp218
Rp219
(dp220
g50
S'RECEPTOR'
p221
sg21
(dp222
sg23
g160
sg25
(lp223
sbag0
(g17
g2
Ntp224
Rp225
(dp226
g50
S'The receptor tyrosine kinase EGFR'
p227
sg21
(dp228
sg23
g77
sg25
(lp229
sbasbag0
(g17
g2
Ntp230
Rp231
(dp232
g21
(dp233
g35
S'34'
p234
sg37
S'(TERM ONT::V387765 ONT::PROTEIN-FAMILY :NAME W::TYROSINE-KINASE :DRUM ((:DRUM (TERM :ID XFAM::PF07714.12 :NAME "pkinase Tyr" :MATCHED-VARIANTS ("tyrosine kinase")))))'
p235
sg83
S'XFAM:PF07714.12'
p236
sg43
S'-SIMPLE-REF'
p237
sg31
S'0'
p238
sg33
S'paragraph152'
p239
sg39
S'336'
p240
sg41
S'V387765'
p241
ssg23
g147
sg25
(lp242
g0
(g17
g2
Ntp243
Rp244
(dp245
g50
S'ONT::PROTEIN-FAMILY'
p246
sg21
(dp247
sg23
g53
sg25
(lp248
sbag0
(g17
g2
Ntp249
Rp250
(dp251
g50
S'TYROSINE-KINASE'
p252
sg21
(dp253
sg23
g160
sg25
(lp254
sbag0
(g17
g2
Ntp255
Rp256
(dp257
g50
S'The receptor tyrosine kinase EGFR'
p258
sg21
(dp259
sg23
g77
sg25
(lp260
sbasbag0
(g17
g2
Ntp261
Rp262
(dp263
g21
(dp264
g35
S'68'
p265
sg37
S'(TERM ONT::V387855 ONT::PROTEIN :NAME W::EGF :DRUM ((:DRUM (TERM :ID UP::P01133 :NAME "Pro-epidermal growth factor" :MATCHED-VARIANTS ("EGF") :SPECIES "Homo sapiens (Human)" :DBXREFS (HGNC::|3229| XFAM::PF00008 XFAM::PF07645 XFAM::PF00058)) (TERM :ID UP::P01132 :NAME "Pro-epidermal growth factor" :MATCHED-VARIANTS ("EGF") :SPECIES "Mus musculus (Mouse)" :DBXREFS (XFAM::PF00008 XFAM::PF07645 XFAM::PF00058)))))'
p266
sg83
S'XFAM:PF07645|XFAM:PF00058|UP:P01133|UP:P01132|HGNC:3229|XFAM:PF00008'
p267
sg43
S'-SIMPLE-REF'
p268
sg31
S'40'
p269
sg33
S'paragraph152'
p270
sg39
S'336'
p271
sg41
S'V387855'
p272
ssg23
g147
sg25
(lp273
g0
(g17
g2
Ntp274
Rp275
(dp276
g50
S'ONT::PROTEIN'
p277
sg21
(dp278
sg23
g53
sg25
(lp279
sbag0
(g17
g2
Ntp280
Rp281
(dp282
g50
S'EGF'
p283
sg21
(dp284
sg23
g160
sg25
(lp285
sbag0
(g17
g2
Ntp286
Rp287
(dp288
g50
S'the growth factor ligand EGF'
p289
sg21
(dp290
sg23
g77
sg25
(lp291
sbasbag0
(g17
g2
Ntp292
Rp293
(dp294
g21
(dp295
g35
S'34'
p296
sg37
S'(TERM ONT::V387775 ONT::PROTEIN :NAME W::EGFR :DRUM ((:DRUM (TERM :ID GO::|0005006| :NAME "epidermal growth factor-activated receptor activity" :MATCHED-VARIANTS ("EGFR")) (TERM :ID UP::P0CY46 :NAME "Epidermal growth factor receptor" :MATCHED-VARIANTS ("egfr") :DBXREFS (XFAM::PF00757 XFAM::PF07714 XFAM::PF01030)) (TERM :ID UP::P04412 :NAME "Epidermal growth factor receptor" :MATCHED-VARIANTS ("egfr") :DBXREFS (XFAM::PF00757 XFAM::PF07714 XFAM::PF01030)))))'
p297
sg83
S'XFAM:PF07714|GO:0005006|UP:P04412|XFAM:PF01030|UP:P0CY46|XFAM:PF00757'
p298
sg43
S'-SIMPLE-REF'
p299
sg31
S'0'
p300
sg33
S'paragraph152'
p301
sg39
S'336'
p302
sg41
S'V387775'
p303
ssg23
g147
sg25
(lp304
g0
(g17
g2
Ntp305
Rp306
(dp307
g50
S'ONT::PROTEIN'
p308
sg21
(dp309
sg23
g53
sg25
(lp310
sbag0
(g17
g2
Ntp311
Rp312
(dp313
g50
S'EGFR'
p314
sg21
(dp315
sg23
g160
sg25
(lp316
sbag0
(g17
g2
Ntp317
Rp318
(dp319
g50
S'The receptor tyrosine kinase EGFR'
p320
sg21
(dp321
sg23
g77
sg25
(lp322
sbasbag0
(g17
g2
Ntp323
Rp324
(dp325
g21
(dp326
g31
S'70'
p327
sg33
S'paragraph152'
p328
sg35
S'121'
p329
sg37
S'(EVENT ONT::V389152 ONT::BIND :AGENT ONT::V389143 :AFFECTED ONT::V389192 :DRUM - :TENSE ONT::PRES)'
p330
sg39
S'337'
p331
sg41
S'V389152'
p332
sg43
S'-BIND1'
p333
ssg23
g45
sg25
(lp334
g0
(g17
g2
Ntp335
Rp336
(dp337
g50
S'ONT::BIND'
p338
sg21
(dp339
sg23
g53
sg25
(lp340
sbag0
(g17
g2
Ntp341
Rp342
(dp343
g21
(dp344
g31
S'70'
p345
sg35
S'121'
p346
sg41
S'V389152'
p347
ssg23
g62
sg25
(lp348
g0
(g17
g2
Ntp349
Rp350
(dp351
g50
S'ONT::ATTACH'
p352
sg21
(dp353
sg23
g53
sg25
(lp354
sbag0
(g17
g2
Ntp355
Rp356
(dp357
g50
S'The EGFR-EGF complex binds another EGFR-EGF complex'
p358
sg21
(dp359
g75
S'BIND'
p360
ssg23
g77
sg25
(lp361
sbasbag0
(g17
g2
Ntp362
Rp363
(dp364
g21
(dp365
g35
S'91'
p366
sg86
S':AGENT'
p367
sg41
S'V389143'
p368
sg31
S'70'
p369
ssg23
g90
sg25
(lp370
g0
(g17
g2
Ntp371
Rp372
(dp373
g50
S'ONT::MACROMOLECULAR-COMPLEX'
p374
sg21
(dp375
sg23
g53
sg25
(lp376
sbag0
(g17
g2
Ntp377
Rp378
(dp379
g50
S'The EGFR-EGF complex'
p380
sg21
(dp381
g75
S'COMPLEX'
p382
ssg23
g77
sg25
(lp383
sbasbag0
(g17
g2
Ntp384
Rp385
(dp386
g21
(dp387
g35
S'121'
p388
sg86
S':AFFECTED'
p389
sg41
S'V389192'
p390
sg31
S'97'
p391
ssg23
g114
sg25
(lp392
g0
(g17
g2
Ntp393
Rp394
(dp395
g50
S'ONT::MACROMOLECULAR-COMPLEX'
p396
sg21
(dp397
sg23
g53
sg25
(lp398
sbag0
(g17
g2
Ntp399
Rp400
(dp401
g50
S'another EGFR-EGF complex'
p402
sg21
(dp403
g75
S'COMPLEX'
p404
ssg23
g77
sg25
(lp405
sbasbag0
(g17
g2
Ntp406
Rp407
(dp408
g50
S'The EGFR-EGF complex binds another EGFR-EGF complex'
p409
sg21
(dp410
sg23
g77
sg25
(lp411
sbasbag0
(g17
g2
Ntp412
Rp413
(dp414
g21
(dp415
g31
S'97'
p416
sg33
S'paragraph152'
p417
sg35
S'121'
p418
sg39
S'337'
p419
sg41
S'V389192'
p420
sg43
S'-EXPLICIT-REF-SEQ0A'
p421
ssg23
g147
sg25
(lp422
g0
(g17
g2
Ntp423
Rp424
(dp425
g50
S'ONT::MACROMOLECULAR-COMPLEX'
p426
sg21
(dp427
sg23
g53
sg25
(lp428
sbag0
(g17
g2
Ntp429
Rp430
(dp431
g21
(dp432
sg23
S'components'
p433
sg25
(lp434
g0
(g17
g2
Ntp435
Rp436
(dp437
g50
S'V389166'
p438
sg21
(dp439
sg23
S'termID'
p440
sg25
(lp441
sbag0
(g17
g2
Ntp442
Rp443
(dp444
g50
S'V389174'
p445
sg21
(dp446
sg23
g440
sg25
(lp447
sbasbag0
(g17
g2
Ntp448
Rp449
(dp450
g50
S'another EGFR-EGF complex'
p451
sg21
(dp452
g75
S''
p453
ssg23
g77
sg25
(lp454
sbasbag0
(g17
g2
Ntp455
Rp456
(dp457
g21
(dp458
g31
S'70'
p459
sg33
S'paragraph152'
p460
sg35
S'91'
p461
sg39
S'337'
p462
sg41
S'V389143'
p463
sg43
S'-EXPLICIT-REF-SEQ0A'
p464
ssg23
g147
sg25
(lp465
g0
(g17
g2
Ntp466
Rp467
(dp468
g50
S'ONT::MACROMOLECULAR-COMPLEX'
p469
sg21
(dp470
sg23
g53
sg25
(lp471
sbag0
(g17
g2
Ntp472
Rp473
(dp474
g21
(dp475
sg23
g433
sg25
(lp476
g0
(g17
g2
Ntp477
Rp478
(dp479
g50
S'V389117'
p480
sg21
(dp481
sg23
g440
sg25
(lp482
sbag0
(g17
g2
Ntp483
Rp484
(dp485
g50
S'V389125'
p486
sg21
(dp487
sg23
g440
sg25
(lp488
sbasbag0
(g17
g2
Ntp489
Rp490
(dp491
g50
S'The EGFR-EGF complex'
p492
sg21
(dp493
g75
g453
ssg23
g77
sg25
(lp494
sbasbag0
(g17
g2
Ntp495
Rp496
(dp497
g21
(dp498
g35
S'114'
p499
sg37
S'(TERM ONT::V389174 ONT::PROTEIN :NAME W::EGF :DRUM ((:DRUM (TERM :ID UP::P01133 :NAME "Pro-epidermal growth factor" :MATCHED-VARIANTS ("EGF") :SPECIES "Homo sapiens (Human)" :DBXREFS (HGNC::|3229| XFAM::PF00008 XFAM::PF07645 XFAM::PF00058)) (TERM :ID UP::P01132 :NAME "Pro-epidermal growth factor" :MATCHED-VARIANTS ("EGF") :SPECIES "Mus musculus (Mouse)" :DBXREFS (XFAM::PF00008 XFAM::PF07645 XFAM::PF00058)))))'
p500
sg83
S'XFAM:PF07645|XFAM:PF00058|UP:P01133|UP:P01132|HGNC:3229|XFAM:PF00008'
p501
sg43
S'-SIMPLE-REF'
p502
sg31
S'110'
p503
sg33
S'paragraph152'
p504
sg39
S'337'
p505
sg41
S'V389174'
p506
ssg23
g147
sg25
(lp507
g0
(g17
g2
Ntp508
Rp509
(dp510
g50
S'ONT::PROTEIN'
p511
sg21
(dp512
sg23
g53
sg25
(lp513
sbag0
(g17
g2
Ntp514
Rp515
(dp516
g50
S'EGF'
p517
sg21
(dp518
sg23
g160
sg25
(lp519
sbag0
(g17
g2
Ntp520
Rp521
(dp522
g50
S'EGF'
p523
sg21
(dp524
sg23
g77
sg25
(lp525
sbasbag0
(g17
g2
Ntp526
Rp527
(dp528
g21
(dp529
g35
S'109'
p530
sg37
S'(TERM ONT::V389166 ONT::PROTEIN :NAME W::EGFR :DRUM ((:DRUM (TERM :ID GO::|0005006| :NAME "epidermal growth factor-activated receptor activity" :MATCHED-VARIANTS ("EGFR")) (TERM :ID UP::P0CY46 :NAME "Epidermal growth factor receptor" :MATCHED-VARIANTS ("egfr") :DBXREFS (XFAM::PF00757 XFAM::PF07714 XFAM::PF01030)) (TERM :ID UP::P04412 :NAME "Epidermal growth factor receptor" :MATCHED-VARIANTS ("egfr") :DBXREFS (XFAM::PF00757 XFAM::PF07714 XFAM::PF01030)))))'
p531
sg83
S'XFAM:PF07714|GO:0005006|UP:P04412|XFAM:PF01030|UP:P0CY46|XFAM:PF00757'
p532
sg43
S'-SIMPLE-REF'
p533
sg31
S'105'
p534
sg33
S'paragraph152'
p535
sg39
S'337'
p536
sg41
S'V389166'
p537
ssg23
g147
sg25
(lp538
g0
(g17
g2
Ntp539
Rp540
(dp541
g50
S'ONT::PROTEIN'
p542
sg21
(dp543
sg23
g53
sg25
(lp544
sbag0
(g17
g2
Ntp545
Rp546
(dp547
g50
S'EGFR'
p548
sg21
(dp549
sg23
g160
sg25
(lp550
sbag0
(g17
g2
Ntp551
Rp552
(dp553
g50
S'EGFR'
p554
sg21
(dp555
sg23
g77
sg25
(lp556
sbasbag0
(g17
g2
Ntp557
Rp558
(dp559
g21
(dp560
g35
S'83'
p561
sg37
S'(TERM ONT::V389125 ONT::PROTEIN :NAME W::EGF :DRUM ((:DRUM (TERM :ID UP::P01133 :NAME "Pro-epidermal growth factor" :MATCHED-VARIANTS ("EGF") :SPECIES "Homo sapiens (Human)" :DBXREFS (HGNC::|3229| XFAM::PF00008 XFAM::PF07645 XFAM::PF00058)) (TERM :ID UP::P01132 :NAME "Pro-epidermal growth factor" :MATCHED-VARIANTS ("EGF") :SPECIES "Mus musculus (Mouse)" :DBXREFS (XFAM::PF00008 XFAM::PF07645 XFAM::PF00058)))))'
p562
sg83
S'XFAM:PF07645|XFAM:PF00058|UP:P01133|UP:P01132|HGNC:3229|XFAM:PF00008'
p563
sg43
S'-SIMPLE-REF'
p564
sg31
S'79'
p565
sg33
S'paragraph152'
p566
sg39
S'337'
p567
sg41
S'V389125'
p568
ssg23
g147
sg25
(lp569
g0
(g17
g2
Ntp570
Rp571
(dp572
g50
S'ONT::PROTEIN'
p573
sg21
(dp574
sg23
g53
sg25
(lp575
sbag0
(g17
g2
Ntp576
Rp577
(dp578
g50
S'EGF'
p579
sg21
(dp580
sg23
g160
sg25
(lp581
sbag0
(g17
g2
Ntp582
Rp583
(dp584
g50
S'EGF'
p585
sg21
(dp586
sg23
g77
sg25
(lp587
sbasbag0
(g17
g2
Ntp588
Rp589
(dp590
g21
(dp591
g35
S'78'
p592
sg37
S'(TERM ONT::V389117 ONT::PROTEIN :NAME W::EGFR :DRUM ((:DRUM (TERM :ID GO::|0005006| :NAME "epidermal growth factor-activated receptor activity" :MATCHED-VARIANTS ("EGFR")) (TERM :ID UP::P0CY46 :NAME "Epidermal growth factor receptor" :MATCHED-VARIANTS ("egfr") :DBXREFS (XFAM::PF00757 XFAM::PF07714 XFAM::PF01030)) (TERM :ID UP::P04412 :NAME "Epidermal growth factor receptor" :MATCHED-VARIANTS ("egfr") :DBXREFS (XFAM::PF00757 XFAM::PF07714 XFAM::PF01030)))))'
p593
sg83
S'XFAM:PF07714|GO:0005006|UP:P04412|XFAM:PF01030|UP:P0CY46|XFAM:PF00757'
p594
sg43
S'-SIMPLE-REF'
p595
sg31
S'74'
p596
sg33
S'paragraph152'
p597
sg39
S'337'
p598
sg41
S'V389117'
p599
ssg23
g147
sg25
(lp600
g0
(g17
g2
Ntp601
Rp602
(dp603
g50
S'ONT::PROTEIN'
p604
sg21
(dp605
sg23
g53
sg25
(lp606
sbag0
(g17
g2
Ntp607
Rp608
(dp609
g50
S'EGFR'
p610
sg21
(dp611
sg23
g160
sg25
(lp612
sbag0
(g17
g2
Ntp613
Rp614
(dp615
g50
S'EGFR'
p616
sg21
(dp617
sg23
g77
sg25
(lp618
sbasbag0
(g17
g2
Ntp619
Rp620
(dp621
g21
(dp622
g31
S'123'
p623
sg33
S'paragraph152'
p624
sg35
S'192'
p625
sg37
S'(EVENT ONT::V402247 ONT::PHOSPHORYLATION :AGENT ONT::V402231 :AFFECTED ONT::V402257 :SITEMOD ONT::V402266 :SITE ONT::V402294 :DRUM - :TENSE ONT::PRES :MODA ONT::V402241)'
p626
sg39
S'338'
p627
sg41
S'V402247'
p628
sg43
S'-PHOSPHORYLATE-LOC4,-PHOSPHORYLATE-MODA1'
p629
ssg23
g45
sg25
(lp630
g0
(g17
g2
Ntp631
Rp632
(dp633
g50
S'ONT::PHOSPHORYLATION'
p634
sg21
(dp635
sg23
g53
sg25
(lp636
sbag0
(g17
g2
Ntp637
Rp638
(dp639
g21
(dp640
g31
S'123'
p641
sg35
S'192'
p642
sg41
S'V402247'
p643
ssg23
g62
sg25
(lp644
g0
(g17
g2
Ntp645
Rp646
(dp647
g50
S'ONT::PHOSPHORYLATION'
p648
sg21
(dp649
sg23
g53
sg25
(lp650
sbag0
(g17
g2
Ntp651
Rp652
(dp653
g21
(dp654
sg23
S'mods'
p655
sg25
(lp656
g0
(g17
g2
Ntp657
Rp658
(dp659
g21
(dp660
g31
S'145'
p661
sg35
S'150'
p662
ssg23
S'mod'
p663
sg25
(lp664
g0
(g17
g2
Ntp665
Rp666
(dp667
g50
S'ONT::ACROSS'
p668
sg21
(dp669
sg23
g53
sg25
(lp670
sbag0
(g17
g2
Ntp671
Rp672
(dp673
g50
S'trans'
p674
sg21
(dp675
sg23
g77
sg25
(lp676
sbasbasbag0
(g17
g2
Ntp677
Rp678
(dp679
g50
S'The EGFR-EGFR complex transphosphorylates EGFR at Tyr1068 and Tyr1148'
p680
sg21
(dp681
g75
S'PHOSPHORYLATE'
p682
ssg23
g77
sg25
(lp683
sbasbag0
(g17
g2
Ntp684
Rp685
(dp686
g21
(dp687
g35
S'145'
p688
sg86
S':AGENT'
p689
sg41
S'V402231'
p690
sg31
S'123'
p691
ssg23
g90
sg25
(lp692
g0
(g17
g2
Ntp693
Rp694
(dp695
g50
S'ONT::MACROMOLECULAR-COMPLEX'
p696
sg21
(dp697
sg23
g53
sg25
(lp698
sbag0
(g17
g2
Ntp699
Rp700
(dp701
g50
S'The EGFR-EGFR complex'
p702
sg21
(dp703
g75
S'COMPLEX'
p704
ssg23
g77
sg25
(lp705
sbasbag0
(g17
g2
Ntp706
Rp707
(dp708
g21
(dp709
g83
S'XFAM:PF07714|GO:0005006|UP:P04412|XFAM:PF01030|UP:P0CY46|XFAM:PF00757'
p710
sg35
S'170'
p711
sg86
S':AFFECTED'
p712
sg41
S'V402257'
p713
sg31
S'165'
p714
ssg23
g114
sg25
(lp715
g0
(g17
g2
Ntp716
Rp717
(dp718
g50
S'ONT::PROTEIN'
p719
sg21
(dp720
sg23
g53
sg25
(lp721
sbag0
(g17
g2
Ntp722
Rp723
(dp724
g50
S'EGFR'
p725
sg21
(dp726
g75
S'EGFR'
p727
ssg23
g77
sg25
(lp728
sbasbag0
(g17
g2
Ntp729
Rp730
(dp731
g21
(dp732
g31
S'173'
p733
sg35
S'192'
p734
sg41
S'V402294'
p735
ssg23
S'site'
p736
sg25
(lp737
g0
(g17
g2
Ntp738
Rp739
(dp740
g50
S'ONT::MOLECULAR-SITE'
p741
sg21
(dp742
sg23
g53
sg25
(lp743
sbag0
(g17
g2
Ntp744
Rp745
(dp746
g50
S'Tyr1068 and Tyr1148'
p747
sg21
(dp748
g75
g453
ssg23
g77
sg25
(lp749
sbasbag0
(g17
g2
Ntp750
Rp751
(dp752
g50
S'The EGFR-EGFR complex transphosphorylates EGFR at Tyr1068 and Tyr1148'
p753
sg21
(dp754
sg23
g77
sg25
(lp755
sbasbag0
(g17
g2
Ntp756
Rp757
(dp758
g21
(dp759
g31
S'123'
p760
sg33
S'paragraph152'
p761
sg35
S'145'
p762
sg39
S'338'
p763
sg41
S'V402231'
p764
sg43
S'-EXPLICIT-REF-SEQ0A'
p765
ssg23
g147
sg25
(lp766
g0
(g17
g2
Ntp767
Rp768
(dp769
g50
S'ONT::MACROMOLECULAR-COMPLEX'
p770
sg21
(dp771
sg23
g53
sg25
(lp772
sbag0
(g17
g2
Ntp773
Rp774
(dp775
g21
(dp776
sg23
g433
sg25
(lp777
g0
(g17
g2
Ntp778
Rp779
(dp780
g50
S'V402205'
p781
sg21
(dp782
sg23
g440
sg25
(lp783
sbag0
(g17
g2
Ntp784
Rp785
(dp786
g50
S'V402213'
p787
sg21
(dp788
sg23
g440
sg25
(lp789
sbasbag0
(g17
g2
Ntp790
Rp791
(dp792
g50
S'The EGFR-EGFR complex'
p793
sg21
(dp794
g75
g453
ssg23
g77
sg25
(lp795
sbasbag0
(g17
g2
Ntp796
Rp797
(dp798
g21
(dp799
g31
S'173'
p800
sg33
S'paragraph152'
p801
sg35
S'192'
p802
sg39
S'338'
p803
sg41
S'V402294'
p804
sg43
S'-LOGICALOP-REF'
p805
ssg23
g147
sg25
(lp806
g0
(g17
g2
Ntp807
Rp808
(dp809
g50
S'ONT::MOLECULAR-SITE'
p810
sg21
(dp811
sg23
g53
sg25
(lp812
sbag0
(g17
g2
Ntp813
Rp814
(dp815
g21
(dp816
S'operator'
p817
S'AND'
p818
ssg23
S'subterms'
p819
sg25
(lp820
g0
(g17
g2
Ntp821
Rp822
(dp823
g50
S'V402290'
p824
sg21
(dp825
sg23
g440
sg25
(lp826
sbag0
(g17
g2
Ntp827
Rp828
(dp829
g50
S'V402313'
p830
sg21
(dp831
sg23
g440
sg25
(lp832
sbasbag0
(g17
g2
Ntp833
Rp834
(dp835
g50
S'Tyr1068 and Tyr1148'
p836
sg21
(dp837
g75
g453
ssg23
g77
sg25
(lp838
sbasbag0
(g17
g2
Ntp839
Rp840
(dp841
g21
(dp842
g31
S'185'
p843
sg33
S'paragraph152'
p844
sg35
S'192'
p845
sg37
S'(TERM ONT::V402313 ONT::MOLECULAR-SITE :NAME W::TYR-1148 :DRUM ((:DRUM (AA-SITE :NAME "Tyrosine" :LETTER "Y" :INDEX 1148))))'
p846
sg39
S'338'
p847
sg41
S'V402313'
p848
sg43
S'-SIMPLE-REF'
p849
ssg23
g147
sg25
(lp850
g0
(g17
g2
Ntp851
Rp852
(dp853
g50
S'ONT::MOLECULAR-SITE'
p854
sg21
(dp855
sg23
g53
sg25
(lp856
sbag0
(g17
g2
Ntp857
Rp858
(dp859
g21
(dp860
sg23
S'features'
p861
sg25
(lp862
g0
(g17
g2
Ntp863
Rp864
(dp865
g21
(dp866
sg23
g736
sg25
(lp867
g0
(g17
g2
Ntp868
Rp869
(dp870
g50
S'Tyrosine'
p871
sg21
(dp872
sg23
g160
sg25
(lp873
sbag0
(g17
g2
Ntp874
Rp875
(dp876
g50
S'Y'
p877
sg21
(dp878
sg23
S'code'
p879
sg25
(lp880
sbag0
(g17
g2
Ntp881
Rp882
(dp883
g50
S'1148'
p884
sg21
(dp885
sg23
S'pos'
p886
sg25
(lp887
sbasbasbag0
(g17
g2
Ntp888
Rp889
(dp890
g50
S'TYR-1148'
p891
sg21
(dp892
sg23
g160
sg25
(lp893
sbag0
(g17
g2
Ntp894
Rp895
(dp896
g50
S'Tyr1148'
p897
sg21
(dp898
sg23
g77
sg25
(lp899
sbasbag0
(g17
g2
Ntp900
Rp901
(dp902
g21
(dp903
g31
S'173'
p904
sg33
S'paragraph152'
p905
sg35
S'181'
p906
sg37
S'(TERM ONT::V402290 ONT::MOLECULAR-SITE :NAME W::TYR-1068 :DRUM ((:DRUM (AA-SITE :NAME "Tyrosine" :LETTER "Y" :INDEX 1068))))'
p907
sg39
S'338'
p908
sg41
S'V402290'
p909
sg43
S'-SIMPLE-REF'
p910
ssg23
g147
sg25
(lp911
g0
(g17
g2
Ntp912
Rp913
(dp914
g50
S'ONT::MOLECULAR-SITE'
p915
sg21
(dp916
sg23
g53
sg25
(lp917
sbag0
(g17
g2
Ntp918
Rp919
(dp920
g21
(dp921
sg23
g861
sg25
(lp922
g0
(g17
g2
Ntp923
Rp924
(dp925
g21
(dp926
sg23
g736
sg25
(lp927
g0
(g17
g2
Ntp928
Rp929
(dp930
g50
S'Tyrosine'
p931
sg21
(dp932
sg23
g160
sg25
(lp933
sbag0
(g17
g2
Ntp934
Rp935
(dp936
g50
S'Y'
p937
sg21
(dp938
sg23
g879
sg25
(lp939
sbag0
(g17
g2
Ntp940
Rp941
(dp942
g50
S'1068'
p943
sg21
(dp944
sg23
g886
sg25
(lp945
sbasbasbag0
(g17
g2
Ntp946
Rp947
(dp948
g50
S'TYR-1068'
p949
sg21
(dp950
sg23
g160
sg25
(lp951
sbag0
(g17
g2
Ntp952
Rp953
(dp954
g50
S'Tyr1068'
p955
sg21
(dp956
sg23
g77
sg25
(lp957
sbasbag0
(g17
g2
Ntp958
Rp959
(dp960
g21
(dp961
g35
S'137'
p962
sg37
S'(TERM ONT::V402213 ONT::PROTEIN :NAME W::EGFR :DRUM ((:DRUM (TERM :ID GO::|0005006| :NAME "epidermal growth factor-activated receptor activity" :MATCHED-VARIANTS ("EGFR")) (TERM :ID UP::P0CY46 :NAME "Epidermal growth factor receptor" :MATCHED-VARIANTS ("egfr") :DBXREFS (XFAM::PF00757 XFAM::PF07714 XFAM::PF01030)) (TERM :ID UP::P04412 :NAME "Epidermal growth factor receptor" :MATCHED-VARIANTS ("egfr") :DBXREFS (XFAM::PF00757 XFAM::PF07714 XFAM::PF01030)))))'
p963
sg83
S'XFAM:PF07714|GO:0005006|UP:P04412|XFAM:PF01030|UP:P0CY46|XFAM:PF00757'
p964
sg43
S'-SIMPLE-REF'
p965
sg31
S'132'
p966
sg33
S'paragraph152'
p967
sg39
S'338'
p968
sg41
S'V402213'
p969
ssg23
g147
sg25
(lp970
g0
(g17
g2
Ntp971
Rp972
(dp973
g50
S'ONT::PROTEIN'
p974
sg21
(dp975
sg23
g53
sg25
(lp976
sbag0
(g17
g2
Ntp977
Rp978
(dp979
g50
S'EGFR'
p980
sg21
(dp981
sg23
g160
sg25
(lp982
sbag0
(g17
g2
Ntp983
Rp984
(dp985
g50
S'EGFR'
p986
sg21
(dp987
sg23
g77
sg25
(lp988
sbasbag0
(g17
g2
Ntp989
Rp990
(dp991
g21
(dp992
g35
S'131'
p993
sg37
S'(TERM ONT::V402205 ONT::PROTEIN :NAME W::EGFR :DRUM ((:DRUM (TERM :ID GO::|0005006| :NAME "epidermal growth factor-activated receptor activity" :MATCHED-VARIANTS ("EGFR")) (TERM :ID UP::P0CY46 :NAME "Epidermal growth factor receptor" :MATCHED-VARIANTS ("egfr") :DBXREFS (XFAM::PF00757 XFAM::PF07714 XFAM::PF01030)) (TERM :ID UP::P04412 :NAME "Epidermal growth factor receptor" :MATCHED-VARIANTS ("egfr") :DBXREFS (XFAM::PF00757 XFAM::PF07714 XFAM::PF01030)))))'
p994
sg83
S'XFAM:PF07714|GO:0005006|UP:P04412|XFAM:PF01030|UP:P0CY46|XFAM:PF00757'
p995
sg43
S'-SIMPLE-REF'
p996
sg31
S'127'
p997
sg33
S'paragraph152'
p998
sg39
S'338'
p999
sg41
S'V402205'
p1000
ssg23
g147
sg25
(lp1001
g0
(g17
g2
Ntp1002
Rp1003
(dp1004
g50
S'ONT::PROTEIN'
p1005
sg21
(dp1006
sg23
g53
sg25
(lp1007
sbag0
(g17
g2
Ntp1008
Rp1009
(dp1010
g50
S'EGFR'
p1011
sg21
(dp1012
sg23
g160
sg25
(lp1013
sbag0
(g17
g2
Ntp1014
Rp1015
(dp1016
g50
S'EGFR'
p1017
sg21
(dp1018
sg23
g77
sg25
(lp1019
sbasbag0
(g17
g2
Ntp1020
Rp1021
(dp1022
g21
(dp1023
g35
S'170'
p1024
sg37
S'(TERM ONT::V402257 ONT::PROTEIN :NAME W::EGFR :DRUM ((:DRUM (TERM :ID GO::|0005006| :NAME "epidermal growth factor-activated receptor activity" :MATCHED-VARIANTS ("EGFR")) (TERM :ID UP::P0CY46 :NAME "Epidermal growth factor receptor" :MATCHED-VARIANTS ("egfr") :DBXREFS (XFAM::PF00757 XFAM::PF07714 XFAM::PF01030)) (TERM :ID UP::P04412 :NAME "Epidermal growth factor receptor" :MATCHED-VARIANTS ("egfr") :DBXREFS (XFAM::PF00757 XFAM::PF07714 XFAM::PF01030)))))'
p1025
sg83
S'XFAM:PF07714|GO:0005006|UP:P04412|XFAM:PF01030|UP:P0CY46|XFAM:PF00757'
p1026
sg43
S'-SIMPLE-REF'
p1027
sg31
S'165'
p1028
sg33
S'paragraph152'
p1029
sg39
S'338'
p1030
sg41
S'V402257'
p1031
ssg23
g147
sg25
(lp1032
g0
(g17
g2
Ntp1033
Rp1034
(dp1035
g50
S'ONT::PROTEIN'
p1036
sg21
(dp1037
sg23
g53
sg25
(lp1038
sbag0
(g17
g2
Ntp1039
Rp1040
(dp1041
g50
S'EGFR'
p1042
sg21
(dp1043
sg23
g160
sg25
(lp1044
sbag0
(g17
g2
Ntp1045
Rp1046
(dp1047
g50
S'EGFR'
p1048
sg21
(dp1049
sg23
g77
sg25
(lp1050
sbasbag0
(g17
g2
Ntp1051
Rp1052
(dp1053
g21
(dp1054
g31
S'194'
p1055
sg33
S'paragraph152'
p1056
sg35
S'237'
p1057
sg37
S'(EVENT ONT::V417201 ONT::PHOSPHORYLATION :AFFECTED ONT::V417196 :SITEMOD ONT::V417210 :SITE ONT::V417238 :DRUM -)'
p1058
sg39
S'339'
p1059
sg41
S'V417201'
p1060
sg43
S'-PHOSPHORYLATE-LOC4-AFFECTED'
p1061
ssg23
g45
sg25
(lp1062
g0
(g17
g2
Ntp1063
Rp1064
(dp1065
g50
S'ONT::PHOSPHORYLATION'
p1066
sg21
(dp1067
sg23
g53
sg25
(lp1068
sbag0
(g17
g2
Ntp1069
Rp1070
(dp1071
g21
(dp1072
g31
S'199'
p1073
sg35
S'237'
p1074
sg41
S'V417201'
p1075
ssg23
g62
sg25
(lp1076
g0
(g17
g2
Ntp1077
Rp1078
(dp1079
g50
S'ONT::PHOSPHORYLATION'
p1080
sg21
(dp1081
sg23
g53
sg25
(lp1082
sbag0
(g17
g2
Ntp1083
Rp1084
(dp1085
g50
S'phosphorylated at Tyr1068 and Tyr1148'
p1086
sg21
(dp1087
g75
S'PHOSPHORYLATE'
p1088
ssg23
g77
sg25
(lp1089
sbasbag0
(g17
g2
Ntp1090
Rp1091
(dp1092
g21
(dp1093
g83
S'XFAM:PF07714|GO:0005006|UP:P04412|XFAM:PF01030|UP:P0CY46|XFAM:PF00757'
p1094
sg35
S'237'
p1095
sg86
S':AFFECTED'
p1096
sg41
S'V417196'
p1097
sg31
S'194'
p1098
ssg23
g114
sg25
(lp1099
g0
(g17
g2
Ntp1100
Rp1101
(dp1102
g50
S'ONT::PROTEIN'
p1103
sg21
(dp1104
sg23
g53
sg25
(lp1105
sbag0
(g17
g2
Ntp1106
Rp1107
(dp1108
g50
S'EGFR phosphorylated at Tyr1068 and Tyr1148'
p1109
sg21
(dp1110
g75
S'EGFR'
p1111
ssg23
g77
sg25
(lp1112
sbasbag0
(g17
g2
Ntp1113
Rp1114
(dp1115
g21
(dp1116
g31
S'217'
p1117
sg35
S'237'
p1118
sg41
S'V417238'
p1119
ssg23
g736
sg25
(lp1120
g0
(g17
g2
Ntp1121
Rp1122
(dp1123
g50
S'ONT::MOLECULAR-SITE'
p1124
sg21
(dp1125
sg23
g53
sg25
(lp1126
sbag0
(g17
g2
Ntp1127
Rp1128
(dp1129
g50
S'Tyr1068 and Tyr1148'
p1130
sg21
(dp1131
g75
g453
ssg23
g77
sg25
(lp1132
sbasbag0
(g17
g2
Ntp1133
Rp1134
(dp1135
g50
S'EGFR phosphorylated at Tyr1068 and Tyr1148'
p1136
sg21
(dp1137
sg23
g77
sg25
(lp1138
sbasbag0
(g17
g2
Ntp1139
Rp1140
(dp1141
g21
(dp1142
g31
S'194'
p1143
sg33
S'paragraph152'
p1144
sg35
S'249'
p1145
sg37
S'(EVENT ONT::V417277 ONT::ACTIVATE :AFFECTED ONT::V417196 :DRUM - :TENSE ONT::PRES :PASSIVE +)'
p1146
sg39
S'339'
p1147
sg41
S'V417277'
p1148
sg43
S'-ACTIVATE-AFFECTED'
p1149
ssg23
g45
sg25
(lp1150
g0
(g17
g2
Ntp1151
Rp1152
(dp1153
g50
S'ONT::ACTIVATE'
p1154
sg21
(dp1155
sg23
g53
sg25
(lp1156
sbag0
(g17
g2
Ntp1157
Rp1158
(dp1159
g21
(dp1160
g31
S'194'
p1161
sg35
S'249'
p1162
sg41
S'V417277'
p1163
ssg23
g62
sg25
(lp1164
g0
(g17
g2
Ntp1165
Rp1166
(dp1167
g50
S'ONT::START'
p1168
sg21
(dp1169
sg23
g53
sg25
(lp1170
sbag0
(g17
g2
Ntp1171
Rp1172
(dp1173
g50
S'EGFR phosphorylated at Tyr1068 and Tyr1148 is activated'
p1174
sg21
(dp1175
g75
S'ACTIVATE'
p1176
ssg23
g77
sg25
(lp1177
sbasbag0
(g17
g2
Ntp1178
Rp1179
(dp1180
g21
(dp1181
g83
S'XFAM:PF07714|GO:0005006|UP:P04412|XFAM:PF01030|UP:P0CY46|XFAM:PF00757'
p1182
sg35
S'237'
p1183
sg86
S':AFFECTED'
p1184
sg41
S'V417196'
p1185
sg31
S'194'
p1186
ssg23
g114
sg25
(lp1187
g0
(g17
g2
Ntp1188
Rp1189
(dp1190
g50
S'ONT::PROTEIN'
p1191
sg21
(dp1192
sg23
g53
sg25
(lp1193
sbag0
(g17
g2
Ntp1194
Rp1195
(dp1196
g50
S'EGFR phosphorylated at Tyr1068 and Tyr1148'
p1197
sg21
(dp1198
g75
S'EGFR'
p1199
ssg23
g77
sg25
(lp1200
sbasbag0
(g17
g2
Ntp1201
Rp1202
(dp1203
g50
S'EGFR phosphorylated at Tyr1068 and Tyr1148 is activated'
p1204
sg21
(dp1205
sg23
g77
sg25
(lp1206
sbasbag0
(g17
g2
Ntp1207
Rp1208
(dp1209
g21
(dp1210
g35
S'237'
p1211
sg37
S'(TERM ONT::V417196 ONT::PROTEIN :NAME W::EGFR :INEVENT ONT::V417201 :DRUM ((:DRUM (TERM :ID GO::|0005006| :NAME "epidermal growth factor-activated receptor activity" :MATCHED-VARIANTS ("EGFR")) (TERM :ID UP::P0CY46 :NAME "Epidermal growth factor receptor" :MATCHED-VARIANTS ("egfr") :DBXREFS (XFAM::PF00757 XFAM::PF07714 XFAM::PF01030)) (TERM :ID UP::P04412 :NAME "Epidermal growth factor receptor" :MATCHED-VARIANTS ("egfr") :DBXREFS (XFAM::PF00757 XFAM::PF07714 XFAM::PF01030)))))'
p1212
sg83
S'XFAM:PF07714|GO:0005006|UP:P04412|XFAM:PF01030|UP:P0CY46|XFAM:PF00757'
p1213
sg43
S'-SIMPLE-REF-MODEVENT'
p1214
sg31
S'194'
p1215
sg33
S'paragraph152'
p1216
sg39
S'339'
p1217
sg41
S'V417196'
p1218
ssg23
g147
sg25
(lp1219
g0
(g17
g2
Ntp1220
Rp1221
(dp1222
g50
S'ONT::PROTEIN'
p1223
sg21
(dp1224
sg23
g53
sg25
(lp1225
sbag0
(g17
g2
Ntp1226
Rp1227
(dp1228
g21
(dp1229
sg23
g861
sg25
(lp1230
g0
(g17
g2
Ntp1231
Rp1232
(dp1233
g21
(dp1234
sg23
S'inevent'
p1235
sg25
(lp1236
g0
(g17
g2
Ntp1237
Rp1238
(dp1239
g50
S'V417201'
p1240
sg21
(dp1241
sg23
S'eventID'
p1242
sg25
(lp1243
sbasbasbag0
(g17
g2
Ntp1244
Rp1245
(dp1246
g50
S'EGFR'
p1247
sg21
(dp1248
sg23
g160
sg25
(lp1249
sbag0
(g17
g2
Ntp1250
Rp1251
(dp1252
g50
S'EGFR phosphorylated at Tyr1068 and Tyr1148'
p1253
sg21
(dp1254
sg23
g77
sg25
(lp1255
sbasbag0
(g17
g2
Ntp1256
Rp1257
(dp1258
g21
(dp1259
g31
S'217'
p1260
sg33
S'paragraph152'
p1261
sg35
S'237'
p1262
sg39
S'339'
p1263
sg41
S'V417238'
p1264
sg43
S'-LOGICALOP-REF'
p1265
ssg23
g147
sg25
(lp1266
g0
(g17
g2
Ntp1267
Rp1268
(dp1269
g50
S'ONT::MOLECULAR-SITE'
p1270
sg21
(dp1271
sg23
g53
sg25
(lp1272
sbag0
(g17
g2
Ntp1273
Rp1274
(dp1275
g21
(dp1276
g817
S'AND'
p1277
ssg23
g819
sg25
(lp1278
g0
(g17
g2
Ntp1279
Rp1280
(dp1281
g50
S'V417234'
p1282
sg21
(dp1283
sg23
g440
sg25
(lp1284
sbag0
(g17
g2
Ntp1285
Rp1286
(dp1287
g50
S'V417257'
p1288
sg21
(dp1289
sg23
g440
sg25
(lp1290
sbasbag0
(g17
g2
Ntp1291
Rp1292
(dp1293
g50
S'Tyr1068 and Tyr1148'
p1294
sg21
(dp1295
g75
g453
ssg23
g77
sg25
(lp1296
sbasbag0
(g17
g2
Ntp1297
Rp1298
(dp1299
g21
(dp1300
g31
S'229'
p1301
sg33
S'paragraph152'
p1302
sg35
S'237'
p1303
sg37
S'(TERM ONT::V417257 ONT::MOLECULAR-SITE :NAME W::TYR-1148 :DRUM ((:DRUM (AA-SITE :NAME "Tyrosine" :LETTER "Y" :INDEX 1148))))'
p1304
sg39
S'339'
p1305
sg41
S'V417257'
p1306
sg43
S'-SIMPLE-REF'
p1307
ssg23
g147
sg25
(lp1308
g0
(g17
g2
Ntp1309
Rp1310
(dp1311
g50
S'ONT::MOLECULAR-SITE'
p1312
sg21
(dp1313
sg23
g53
sg25
(lp1314
sbag0
(g17
g2
Ntp1315
Rp1316
(dp1317
g21
(dp1318
sg23
g861
sg25
(lp1319
g0
(g17
g2
Ntp1320
Rp1321
(dp1322
g21
(dp1323
sg23
g736
sg25
(lp1324
g0
(g17
g2
Ntp1325
Rp1326
(dp1327
g50
S'Tyrosine'
p1328
sg21
(dp1329
sg23
g160
sg25
(lp1330
sbag0
(g17
g2
Ntp1331
Rp1332
(dp1333
g50
S'Y'
p1334
sg21
(dp1335
sg23
g879
sg25
(lp1336
sbag0
(g17
g2
Ntp1337
Rp1338
(dp1339
g50
S'1148'
p1340
sg21
(dp1341
sg23
g886
sg25
(lp1342
sbasbasbag0
(g17
g2
Ntp1343
Rp1344
(dp1345
g50
S'TYR-1148'
p1346
sg21
(dp1347
sg23
g160
sg25
(lp1348
sbag0
(g17
g2
Ntp1349
Rp1350
(dp1351
g50
S'Tyr1148'
p1352
sg21
(dp1353
sg23
g77
sg25
(lp1354
sbasbag0
(g17
g2
Ntp1355
Rp1356
(dp1357
g21
(dp1358
g31
S'217'
p1359
sg33
S'paragraph152'
p1360
sg35
S'225'
p1361
sg37
S'(TERM ONT::V417234 ONT::MOLECULAR-SITE :NAME W::TYR-1068 :DRUM ((:DRUM (AA-SITE :NAME "Tyrosine" :LETTER "Y" :INDEX 1068))))'
p1362
sg39
S'339'
p1363
sg41
S'V417234'
p1364
sg43
S'-SIMPLE-REF'
p1365
ssg23
g147
sg25
(lp1366
g0
(g17
g2
Ntp1367
Rp1368
(dp1369
g50
S'ONT::MOLECULAR-SITE'
p1370
sg21
(dp1371
sg23
g53
sg25
(lp1372
sbag0
(g17
g2
Ntp1373
Rp1374
(dp1375
g21
(dp1376
sg23
g861
sg25
(lp1377
g0
(g17
g2
Ntp1378
Rp1379
(dp1380
g21
(dp1381
sg23
g736
sg25
(lp1382
g0
(g17
g2
Ntp1383
Rp1384
(dp1385
g50
S'Tyrosine'
p1386
sg21
(dp1387
sg23
g160
sg25
(lp1388
sbag0
(g17
g2
Ntp1389
Rp1390
(dp1391
g50
S'Y'
p1392
sg21
(dp1393
sg23
g879
sg25
(lp1394
sbag0
(g17
g2
Ntp1395
Rp1396
(dp1397
g50
S'1068'
p1398
sg21
(dp1399
sg23
g886
sg25
(lp1400
sbasbasbag0
(g17
g2
Ntp1401
Rp1402
(dp1403
g50
S'TYR-1068'
p1404
sg21
(dp1405
sg23
g160
sg25
(lp1406
sbag0
(g17
g2
Ntp1407
Rp1408
(dp1409
g50
S'Tyr1068'
p1410
sg21
(dp1411
sg23
g77
sg25
(lp1412
sbasbag0
(g17
g2
Ntp1413
Rp1414
(dp1415
g21
(dp1416
g31
S'251'
p1417
sg33
S'paragraph152'
p1418
sg35
S'273'
p1419
sg37
S'(EVENT ONT::V430118 ONT::BIND :AGENT ONT::V430114 :AFFECTED ONT::V430127 :DRUM - :TENSE ONT::PRES)'
p1420
sg39
S'340'
p1421
sg41
S'V430118'
p1422
sg43
S'-BIND1'
p1423
ssg23
g45
sg25
(lp1424
g0
(g17
g2
Ntp1425
Rp1426
(dp1427
g50
S'ONT::BIND'
p1428
sg21
(dp1429
sg23
g53
sg25
(lp1430
sbag0
(g17
g2
Ntp1431
Rp1432
(dp1433
g21
(dp1434
g31
S'251'
p1435
sg35
S'273'
p1436
sg41
S'V430118'
p1437
ssg23
g62
sg25
(lp1438
g0
(g17
g2
Ntp1439
Rp1440
(dp1441
g50
S'ONT::ATTACH'
p1442
sg21
(dp1443
sg23
g53
sg25
(lp1444
sbag0
(g17
g2
Ntp1445
Rp1446
(dp1447
g50
S'Active EGFR binds HRAS'
p1448
sg21
(dp1449
g75
S'BIND'
p1450
ssg23
g77
sg25
(lp1451
sbasbag0
(g17
g2
Ntp1452
Rp1453
(dp1454
g21
(dp1455
g83
S'XFAM:PF07714|GO:0005006|UP:P04412|XFAM:PF01030|UP:P0CY46|XFAM:PF00757'
p1456
sg35
S'263'
p1457
sg86
S':AGENT'
p1458
sg41
S'V430114'
p1459
sg31
S'251'
p1460
ssg23
g90
sg25
(lp1461
g0
(g17
g2
Ntp1462
Rp1463
(dp1464
g50
S'ONT::PROTEIN'
p1465
sg21
(dp1466
sg23
g53
sg25
(lp1467
sbag0
(g17
g2
Ntp1468
Rp1469
(dp1470
g50
S'Active EGFR'
p1471
sg21
(dp1472
g75
S'EGFR'
p1473
ssg23
g77
sg25
(lp1474
sbasbag0
(g17
g2
Ntp1475
Rp1476
(dp1477
g21
(dp1478
g83
S'UP:P01112|HGNC:5173'
p1479
sg35
S'273'
p1480
sg86
S':AFFECTED'
p1481
sg41
S'V430127'
p1482
sg31
S'269'
p1483
ssg23
g114
sg25
(lp1484
g0
(g17
g2
Ntp1485
Rp1486
(dp1487
g50
S'ONT::GENE'
p1488
sg21
(dp1489
sg23
g53
sg25
(lp1490
sbag0
(g17
g2
Ntp1491
Rp1492
(dp1493
g50
S'HRAS'
p1494
sg21
(dp1495
g75
S'HRAS'
p1496
ssg23
g77
sg25
(lp1497
sbasbag0
(g17
g2
Ntp1498
Rp1499
(dp1500
g50
S'Active EGFR binds HRAS'
p1501
sg21
(dp1502
sg23
g77
sg25
(lp1503
sbasbag0
(g17
g2
Ntp1504
Rp1505
(dp1506
g21
(dp1507
g35
S'263'
p1508
sg37
S'(TERM ONT::V430114 ONT::PROTEIN :NAME W::EGFR :ACTIVE ONT::TRUE :DRUM ((:DRUM (TERM :ID GO::|0005006| :NAME "epidermal growth factor-activated receptor activity" :MATCHED-VARIANTS ("EGFR")) (TERM :ID UP::P0CY46 :NAME "Epidermal growth factor receptor" :MATCHED-VARIANTS ("egfr") :DBXREFS (XFAM::PF00757 XFAM::PF07714 XFAM::PF01030)) (TERM :ID UP::P04412 :NAME "Epidermal growth factor receptor" :MATCHED-VARIANTS ("egfr") :DBXREFS (XFAM::PF00757 XFAM::PF07714 XFAM::PF01030)))))'
p1509
sg83
S'XFAM:PF07714|GO:0005006|UP:P04412|XFAM:PF01030|UP:P0CY46|XFAM:PF00757'
p1510
sg43
S'-SIMPLE-REF-MODACTIVE1'
p1511
sg31
S'251'
p1512
sg33
S'paragraph152'
p1513
sg39
S'340'
p1514
sg41
S'V430114'
p1515
ssg23
g147
sg25
(lp1516
g0
(g17
g2
Ntp1517
Rp1518
(dp1519
g50
S'ONT::PROTEIN'
p1520
sg21
(dp1521
sg23
g53
sg25
(lp1522
sbag0
(g17
g2
Ntp1523
Rp1524
(dp1525
g21
(dp1526
sg23
g861
sg25
(lp1527
g0
(g17
g2
Ntp1528
Rp1529
(dp1530
g50
S'TRUE'
p1531
sg21
(dp1532
sg23
S'active'
p1533
sg25
(lp1534
sbasbag0
(g17
g2
Ntp1535
Rp1536
(dp1537
g50
S'EGFR'
p1538
sg21
(dp1539
sg23
g160
sg25
(lp1540
sbag0
(g17
g2
Ntp1541
Rp1542
(dp1543
g50
S'Active EGFR'
p1544
sg21
(dp1545
sg23
g77
sg25
(lp1546
sbasbag0
(g17
g2
Ntp1547
Rp1548
(dp1549
g21
(dp1550
g35
S'273'
p1551
sg37
S'(TERM ONT::V430127 ONT::GENE :NAME W::HRAS :DRUM ((:DRUM (TERM :ID HGNC::|5173| :NAME "Harvey rat sarcoma viral oncogene homolog" :MATCHED-VARIANTS ("HRAS") :DBXREFS (UP::P01112)))))'
p1552
sg83
S'UP:P01112|HGNC:5173'
p1553
sg43
S'-SIMPLE-REF'
p1554
sg31
S'269'
p1555
sg33
S'paragraph152'
p1556
sg39
S'340'
p1557
sg41
S'V430127'
p1558
ssg23
g147
sg25
(lp1559
g0
(g17
g2
Ntp1560
Rp1561
(dp1562
g50
S'ONT::GENE'
p1563
sg21
(dp1564
sg23
g53
sg25
(lp1565
sbag0
(g17
g2
Ntp1566
Rp1567
(dp1568
g50
S'HRAS'
p1569
sg21
(dp1570
sg23
g160
sg25
(lp1571
sbag0
(g17
g2
Ntp1572
Rp1573
(dp1574
g50
S'HRAS'
p1575
sg21
(dp1576
sg23
g77
sg25
(lp1577
sbasbag0
(g17
g2
Ntp1578
Rp1579
(dp1580
g21
(dp1581
g31
S'275'
p1582
sg33
S'paragraph152'
p1583
sg35
S'306'
p1584
sg37
S'(EVENT ONT::V430453 ONT::BIND :AGENT ONT::V430444 :AFFECTED ONT::V430462 :DRUM - :TENSE ONT::PRES)'
p1585
sg39
S'341'
p1586
sg41
S'V430453'
p1587
sg43
S'-BIND1'
p1588
ssg23
g45
sg25
(lp1589
g0
(g17
g2
Ntp1590
Rp1591
(dp1592
g50
S'ONT::BIND'
p1593
sg21
(dp1594
sg23
g53
sg25
(lp1595
sbag0
(g17
g2
Ntp1596
Rp1597
(dp1598
g21
(dp1599
g31
S'275'
p1600
sg35
S'306'
p1601
sg41
S'V430453'
p1602
ssg23
g62
sg25
(lp1603
g0
(g17
g2
Ntp1604
Rp1605
(dp1606
g50
S'ONT::ATTACH'
p1607
sg21
(dp1608
sg23
g53
sg25
(lp1609
sbag0
(g17
g2
Ntp1610
Rp1611
(dp1612
g50
S'The EGFR-HRAS complex binds GTP'
p1613
sg21
(dp1614
g75
S'BIND'
p1615
ssg23
g77
sg25
(lp1616
sbasbag0
(g17
g2
Ntp1617
Rp1618
(dp1619
g21
(dp1620
g35
S'297'
p1621
sg86
S':AGENT'
p1622
sg41
S'V430444'
p1623
sg31
S'275'
p1624
ssg23
g90
sg25
(lp1625
g0
(g17
g2
Ntp1626
Rp1627
(dp1628
g50
S'ONT::MACROMOLECULAR-COMPLEX'
p1629
sg21
(dp1630
sg23
g53
sg25
(lp1631
sbag0
(g17
g2
Ntp1632
Rp1633
(dp1634
g50
S'The EGFR-HRAS complex'
p1635
sg21
(dp1636
g75
S'COMPLEX'
p1637
ssg23
g77
sg25
(lp1638
sbasbag0
(g17
g2
Ntp1639
Rp1640
(dp1641
g21
(dp1642
g83
S'CHEBI:37565|CHEBI:15996'
p1643
sg35
S'306'
p1644
sg86
S':AFFECTED'
p1645
sg41
S'V430462'
p1646
sg31
S'303'
p1647
ssg23
g114
sg25
(lp1648
g0
(g17
g2
Ntp1649
Rp1650
(dp1651
g50
S'ONT::MOLECULE'
p1652
sg21
(dp1653
sg23
g53
sg25
(lp1654
sbag0
(g17
g2
Ntp1655
Rp1656
(dp1657
g50
S'GTP'
p1658
sg21
(dp1659
g75
S'GTP'
p1660
ssg23
g77
sg25
(lp1661
sbasbag0
(g17
g2
Ntp1662
Rp1663
(dp1664
g50
S'The EGFR-HRAS complex binds GTP'
p1665
sg21
(dp1666
sg23
g77
sg25
(lp1667
sbasbag0
(g17
g2
Ntp1668
Rp1669
(dp1670
g21
(dp1671
g31
S'275'
p1672
sg33
S'paragraph152'
p1673
sg35
S'297'
p1674
sg39
S'341'
p1675
sg41
S'V430444'
p1676
sg43
S'-EXPLICIT-REF-SEQ0A'
p1677
ssg23
g147
sg25
(lp1678
g0
(g17
g2
Ntp1679
Rp1680
(dp1681
g50
S'ONT::MACROMOLECULAR-COMPLEX'
p1682
sg21
(dp1683
sg23
g53
sg25
(lp1684
sbag0
(g17
g2
Ntp1685
Rp1686
(dp1687
g21
(dp1688
sg23
g433
sg25
(lp1689
g0
(g17
g2
Ntp1690
Rp1691
(dp1692
g50
S'V430418'
p1693
sg21
(dp1694
sg23
g440
sg25
(lp1695
sbag0
(g17
g2
Ntp1696
Rp1697
(dp1698
g50
S'V430426'
p1699
sg21
(dp1700
sg23
g440
sg25
(lp1701
sbasbag0
(g17
g2
Ntp1702
Rp1703
(dp1704
g50
S'The EGFR-HRAS complex'
p1705
sg21
(dp1706
g75
g453
ssg23
g77
sg25
(lp1707
sbasbag0
(g17
g2
Ntp1708
Rp1709
(dp1710
g21
(dp1711
g35
S'289'
p1712
sg37
S'(TERM ONT::V430426 ONT::GENE :NAME W::HRAS :DRUM ((:DRUM (TERM :ID HGNC::|5173| :NAME "Harvey rat sarcoma viral oncogene homolog" :MATCHED-VARIANTS ("HRAS") :DBXREFS (UP::P01112)))))'
p1713
sg83
S'UP:P01112|HGNC:5173'
p1714
sg43
S'-SIMPLE-REF'
p1715
sg31
S'284'
p1716
sg33
S'paragraph152'
p1717
sg39
S'341'
p1718
sg41
S'V430426'
p1719
ssg23
g147
sg25
(lp1720
g0
(g17
g2
Ntp1721
Rp1722
(dp1723
g50
S'ONT::GENE'
p1724
sg21
(dp1725
sg23
g53
sg25
(lp1726
sbag0
(g17
g2
Ntp1727
Rp1728
(dp1729
g50
S'HRAS'
p1730
sg21
(dp1731
sg23
g160
sg25
(lp1732
sbag0
(g17
g2
Ntp1733
Rp1734
(dp1735
g50
S'HRAS'
p1736
sg21
(dp1737
sg23
g77
sg25
(lp1738
sbasbag0
(g17
g2
Ntp1739
Rp1740
(dp1741
g21
(dp1742
g35
S'283'
p1743
sg37
S'(TERM ONT::V430418 ONT::PROTEIN :NAME W::EGFR :DRUM ((:DRUM (TERM :ID GO::|0005006| :NAME "epidermal growth factor-activated receptor activity" :MATCHED-VARIANTS ("EGFR")) (TERM :ID UP::P0CY46 :NAME "Epidermal growth factor receptor" :MATCHED-VARIANTS ("egfr") :DBXREFS (XFAM::PF00757 XFAM::PF07714 XFAM::PF01030)) (TERM :ID UP::P04412 :NAME "Epidermal growth factor receptor" :MATCHED-VARIANTS ("egfr") :DBXREFS (XFAM::PF00757 XFAM::PF07714 XFAM::PF01030)))))'
p1744
sg83
S'XFAM:PF07714|GO:0005006|UP:P04412|XFAM:PF01030|UP:P0CY46|XFAM:PF00757'
p1745
sg43
S'-SIMPLE-REF'
p1746
sg31
S'279'
p1747
sg33
S'paragraph152'
p1748
sg39
S'341'
p1749
sg41
S'V430418'
p1750
ssg23
g147
sg25
(lp1751
g0
(g17
g2
Ntp1752
Rp1753
(dp1754
g50
S'ONT::PROTEIN'
p1755
sg21
(dp1756
sg23
g53
sg25
(lp1757
sbag0
(g17
g2
Ntp1758
Rp1759
(dp1760
g50
S'EGFR'
p1761
sg21
(dp1762
sg23
g160
sg25
(lp1763
sbag0
(g17
g2
Ntp1764
Rp1765
(dp1766
g50
S'EGFR'
p1767
sg21
(dp1768
sg23
g77
sg25
(lp1769
sbasbag0
(g17
g2
Ntp1770
Rp1771
(dp1772
g21
(dp1773
g35
S'306'
p1774
sg37
S'(TERM ONT::V430462 ONT::MOLECULE :NAME W::GTP :DRUM ((:DRUM (TERM :ID CHEBI::|37565| :NAME "GTP(4-)" :MATCHED-VARIANTS ("GTP") :MAPPINGS ((MAP :THROUGH (CONCEPT CHEBI::|24870| (SENSE (MORPH (POS N) (WORD ION)))) :TO ONT::MOLECULE) (MAP :THROUGH (CONCEPT CHEBI::|23367| (SENSE (MORPH (POS N) (WORD (MOLECULAR ENTITI))))) :TO ONT::MOLECULE))) (TERM :ID CHEBI::|15996| :NAME "GTP" :MATCHED-VARIANTS ("GTP") :MAPPINGS ((MAP :THROUGH (CONCEPT CHEBI::|23367| (SENSE (MORPH (POS N) (WORD (MOLECULAR ENTITI))))) :TO ONT::MOLECULE))))))'
p1775
sg83
S'CHEBI:37565|CHEBI:15996'
p1776
sg43
S'-SIMPLE-REF'
p1777
sg31
S'303'
p1778
sg33
S'paragraph152'
p1779
sg39
S'341'
p1780
sg41
S'V430462'
p1781
ssg23
g147
sg25
(lp1782
g0
(g17
g2
Ntp1783
Rp1784
(dp1785
g50
S'ONT::MOLECULE'
p1786
sg21
(dp1787
sg23
g53
sg25
(lp1788
sbag0
(g17
g2
Ntp1789
Rp1790
(dp1791
g50
S'GTP'
p1792
sg21
(dp1793
sg23
g160
sg25
(lp1794
sbag0
(g17
g2
Ntp1795
Rp1796
(dp1797
g50
S'GTP'
p1798
sg21
(dp1799
sg23
g77
sg25
(lp1800
sbasbag0
(g17
g2
Ntp1801
Rp1802
(dp1803
g21
(dp1804
g31
S'308'
p1805
sg33
S'paragraph152'
p1806
sg35
S'339'
p1807
sg37
S'(EVENT ONT::V434629 ONT::BIND :AGENT ONT::V434620 :AFFECTED ONT::V434638 :DRUM - :TENSE ONT::PRES)'
p1808
sg39
S'342'
p1809
sg41
S'V434629'
p1810
sg43
S'-BIND1'
p1811
ssg23
g45
sg25
(lp1812
g0
(g17
g2
Ntp1813
Rp1814
(dp1815
g50
S'ONT::BIND'
p1816
sg21
(dp1817
sg23
g53
sg25
(lp1818
sbag0
(g17
g2
Ntp1819
Rp1820
(dp1821
g21
(dp1822
g31
S'308'
p1823
sg35
S'339'
p1824
sg41
S'V434629'
p1825
ssg23
g62
sg25
(lp1826
g0
(g17
g2
Ntp1827
Rp1828
(dp1829
g50
S'ONT::ATTACH'
p1830
sg21
(dp1831
sg23
g53
sg25
(lp1832
sbag0
(g17
g2
Ntp1833
Rp1834
(dp1835
g50
S'The HRAS-GTP complex binds BRAF'
p1836
sg21
(dp1837
g75
S'BIND'
p1838
ssg23
g77
sg25
(lp1839
sbasbag0
(g17
g2
Ntp1840
Rp1841
(dp1842
g21
(dp1843
g35
S'329'
p1844
sg86
S':AGENT'
p1845
sg41
S'V434620'
p1846
sg31
S'308'
p1847
ssg23
g90
sg25
(lp1848
g0
(g17
g2
Ntp1849
Rp1850
(dp1851
g50
S'ONT::MACROMOLECULAR-COMPLEX'
p1852
sg21
(dp1853
sg23
g53
sg25
(lp1854
sbag0
(g17
g2
Ntp1855
Rp1856
(dp1857
g50
S'The HRAS-GTP complex'
p1858
sg21
(dp1859
g75
S'COMPLEX'
p1860
ssg23
g77
sg25
(lp1861
sbasbag0
(g17
g2
Ntp1862
Rp1863
(dp1864
g21
(dp1865
g83
S'HGNC:1097|UP:P15056'
p1866
sg35
S'339'
p1867
sg86
S':AFFECTED'
p1868
sg41
S'V434638'
p1869
sg31
S'335'
p1870
ssg23
g114
sg25
(lp1871
g0
(g17
g2
Ntp1872
Rp1873
(dp1874
g50
S'ONT::GENE'
p1875
sg21
(dp1876
sg23
g53
sg25
(lp1877
sbag0
(g17
g2
Ntp1878
Rp1879
(dp1880
g50
S'BRAF'
p1881
sg21
(dp1882
g75
S'BRAF'
p1883
ssg23
g77
sg25
(lp1884
sbasbag0
(g17
g2
Ntp1885
Rp1886
(dp1887
g50
S'The HRAS-GTP complex binds BRAF'
p1888
sg21
(dp1889
sg23
g77
sg25
(lp1890
sbasbag0
(g17
g2
Ntp1891
Rp1892
(dp1893
g21
(dp1894
g31
S'308'
p1895
sg33
S'paragraph152'
p1896
sg35
S'329'
p1897
sg39
S'342'
p1898
sg41
S'V434620'
p1899
sg43
S'-EXPLICIT-REF-SEQ0A'
p1900
ssg23
g147
sg25
(lp1901
g0
(g17
g2
Ntp1902
Rp1903
(dp1904
g50
S'ONT::MACROMOLECULAR-COMPLEX'
p1905
sg21
(dp1906
sg23
g53
sg25
(lp1907
sbag0
(g17
g2
Ntp1908
Rp1909
(dp1910
g21
(dp1911
sg23
g433
sg25
(lp1912
g0
(g17
g2
Ntp1913
Rp1914
(dp1915
g50
S'V434594'
p1916
sg21
(dp1917
sg23
g440
sg25
(lp1918
sbag0
(g17
g2
Ntp1919
Rp1920
(dp1921
g50
S'V434602'
p1922
sg21
(dp1923
sg23
g440
sg25
(lp1924
sbasbag0
(g17
g2
Ntp1925
Rp1926
(dp1927
g50
S'The HRAS-GTP complex'
p1928
sg21
(dp1929
g75
g453
ssg23
g77
sg25
(lp1930
sbasbag0
(g17
g2
Ntp1931
Rp1932
(dp1933
g21
(dp1934
g35
S'321'
p1935
sg37
S'(TERM ONT::V434602 ONT::MOLECULE :NAME W::GTP :DRUM ((:DRUM (TERM :ID CHEBI::|37565| :NAME "GTP(4-)" :MATCHED-VARIANTS ("GTP") :MAPPINGS ((MAP :THROUGH (CONCEPT CHEBI::|24870| (SENSE (MORPH (POS N) (WORD ION)))) :TO ONT::MOLECULE) (MAP :THROUGH (CONCEPT CHEBI::|23367| (SENSE (MORPH (POS N) (WORD (MOLECULAR ENTITI))))) :TO ONT::MOLECULE))) (TERM :ID CHEBI::|15996| :NAME "GTP" :MATCHED-VARIANTS ("GTP") :MAPPINGS ((MAP :THROUGH (CONCEPT CHEBI::|23367| (SENSE (MORPH (POS N) (WORD (MOLECULAR ENTITI))))) :TO ONT::MOLECULE))))))'
p1936
sg83
S'CHEBI:37565|CHEBI:15996'
p1937
sg43
S'-SIMPLE-REF'
p1938
sg31
S'317'
p1939
sg33
S'paragraph152'
p1940
sg39
S'342'
p1941
sg41
S'V434602'
p1942
ssg23
g147
sg25
(lp1943
g0
(g17
g2
Ntp1944
Rp1945
(dp1946
g50
S'ONT::MOLECULE'
p1947
sg21
(dp1948
sg23
g53
sg25
(lp1949
sbag0
(g17
g2
Ntp1950
Rp1951
(dp1952
g50
S'GTP'
p1953
sg21
(dp1954
sg23
g160
sg25
(lp1955
sbag0
(g17
g2
Ntp1956
Rp1957
(dp1958
g50
S'GTP'
p1959
sg21
(dp1960
sg23
g77
sg25
(lp1961
sbasbag0
(g17
g2
Ntp1962
Rp1963
(dp1964
g21
(dp1965
g35
S'316'
p1966
sg37
S'(TERM ONT::V434594 ONT::GENE :NAME W::HRAS :DRUM ((:DRUM (TERM :ID HGNC::|5173| :NAME "Harvey rat sarcoma viral oncogene homolog" :MATCHED-VARIANTS ("HRAS") :DBXREFS (UP::P01112)))))'
p1967
sg83
S'UP:P01112|HGNC:5173'
p1968
sg43
S'-SIMPLE-REF'
p1969
sg31
S'312'
p1970
sg33
S'paragraph152'
p1971
sg39
S'342'
p1972
sg41
S'V434594'
p1973
ssg23
g147
sg25
(lp1974
g0
(g17
g2
Ntp1975
Rp1976
(dp1977
g50
S'ONT::GENE'
p1978
sg21
(dp1979
sg23
g53
sg25
(lp1980
sbag0
(g17
g2
Ntp1981
Rp1982
(dp1983
g50
S'HRAS'
p1984
sg21
(dp1985
sg23
g160
sg25
(lp1986
sbag0
(g17
g2
Ntp1987
Rp1988
(dp1989
g50
S'HRAS'
p1990
sg21
(dp1991
sg23
g77
sg25
(lp1992
sbasbag0
(g17
g2
Ntp1993
Rp1994
(dp1995
g21
(dp1996
g35
S'339'
p1997
sg37
S'(TERM ONT::V434638 ONT::GENE :NAME W::BRAF :DRUM ((:DRUM (TERM :ID HGNC::|1097| :NAME "B-Raf proto-oncogene, serine/threonine kinase" :MATCHED-VARIANTS ("BRAF") :DBXREFS (UP::P15056)))))'
p1998
sg83
S'HGNC:1097|UP:P15056'
p1999
sg43
S'-SIMPLE-REF'
p2000
sg31
S'335'
p2001
sg33
S'paragraph152'
p2002
sg39
S'342'
p2003
sg41
S'V434638'
p2004
ssg23
g147
sg25
(lp2005
g0
(g17
g2
Ntp2006
Rp2007
(dp2008
g50
S'ONT::GENE'
p2009
sg21
(dp2010
sg23
g53
sg25
(lp2011
sbag0
(g17
g2
Ntp2012
Rp2013
(dp2014
g50
S'BRAF'
p2015
sg21
(dp2016
sg23
g160
sg25
(lp2017
sbag0
(g17
g2
Ntp2018
Rp2019
(dp2020
g50
S'BRAF'
p2021
sg21
(dp2022
sg23
g77
sg25
(lp2023
sbasbag0
(g17
g2
Ntp2024
Rp2025
(dp2026
g21
(dp2027
g31
S'341'
p2028
sg33
S'paragraph152'
p2029
sg35
S'403'
p2030
sg37
S'(EVENT ONT::V438805 ONT::PHOSPHORYLATION :AGENT ONT::V438796 :AFFECTED ONT::V438810 :SITEMOD ONT::V438819 :SITE ONT::V438847 :DRUM - :TENSE ONT::PRES)'
p2031
sg39
S'343'
p2032
sg41
S'V438805'
p2033
sg43
S'-PHOSPHORYLATE-LOC4'
p2034
ssg23
g45
sg25
(lp2035
g0
(g17
g2
Ntp2036
Rp2037
(dp2038
g50
S'ONT::PHOSPHORYLATION'
p2039
sg21
(dp2040
sg23
g53
sg25
(lp2041
sbag0
(g17
g2
Ntp2042
Rp2043
(dp2044
g21
(dp2045
g31
S'341'
p2046
sg35
S'403'
p2047
sg41
S'V438805'
p2048
ssg23
g62
sg25
(lp2049
g0
(g17
g2
Ntp2050
Rp2051
(dp2052
g50
S'ONT::PHOSPHORYLATION'
p2053
sg21
(dp2054
sg23
g53
sg25
(lp2055
sbag0
(g17
g2
Ntp2056
Rp2057
(dp2058
g50
S'The HRAS-BRAF complex phosphorylates BRAF at Thr598 and Thr601'
p2059
sg21
(dp2060
g75
S'PHOSPHORYLATE'
p2061
ssg23
g77
sg25
(lp2062
sbasbag0
(g17
g2
Ntp2063
Rp2064
(dp2065
g21
(dp2066
g35
S'363'
p2067
sg86
S':AGENT'
p2068
sg41
S'V438796'
p2069
sg31
S'341'
p2070
ssg23
g90
sg25
(lp2071
g0
(g17
g2
Ntp2072
Rp2073
(dp2074
g50
S'ONT::MACROMOLECULAR-COMPLEX'
p2075
sg21
(dp2076
sg23
g53
sg25
(lp2077
sbag0
(g17
g2
Ntp2078
Rp2079
(dp2080
g50
S'The HRAS-BRAF complex'
p2081
sg21
(dp2082
g75
S'COMPLEX'
p2083
ssg23
g77
sg25
(lp2084
sbasbag0
(g17
g2
Ntp2085
Rp2086
(dp2087
g21
(dp2088
g83
S'HGNC:1097|UP:P15056'
p2089
sg35
S'383'
p2090
sg86
S':AFFECTED'
p2091
sg41
S'V438810'
p2092
sg31
S'378'
p2093
ssg23
g114
sg25
(lp2094
g0
(g17
g2
Ntp2095
Rp2096
(dp2097
g50
S'ONT::GENE'
p2098
sg21
(dp2099
sg23
g53
sg25
(lp2100
sbag0
(g17
g2
Ntp2101
Rp2102
(dp2103
g50
S'BRAF'
p2104
sg21
(dp2105
g75
S'BRAF'
p2106
ssg23
g77
sg25
(lp2107
sbasbag0
(g17
g2
Ntp2108
Rp2109
(dp2110
g21
(dp2111
g31
S'386'
p2112
sg35
S'403'
p2113
sg41
S'V438847'
p2114
ssg23
g736
sg25
(lp2115
g0
(g17
g2
Ntp2116
Rp2117
(dp2118
g50
S'ONT::MOLECULAR-SITE'
p2119
sg21
(dp2120
sg23
g53
sg25
(lp2121
sbag0
(g17
g2
Ntp2122
Rp2123
(dp2124
g50
S'Thr598 and Thr601'
p2125
sg21
(dp2126
g75
g453
ssg23
g77
sg25
(lp2127
sbasbag0
(g17
g2
Ntp2128
Rp2129
(dp2130
g50
S'The HRAS-BRAF complex phosphorylates BRAF at Thr598 and Thr601'
p2131
sg21
(dp2132
sg23
g77
sg25
(lp2133
sbasbag0
(g17
g2
Ntp2134
Rp2135
(dp2136
g21
(dp2137
g31
S'341'
p2138
sg33
S'paragraph152'
p2139
sg35
S'363'
p2140
sg39
S'343'
p2141
sg41
S'V438796'
p2142
sg43
S'-EXPLICIT-REF-SEQ0A'
p2143
ssg23
g147
sg25
(lp2144
g0
(g17
g2
Ntp2145
Rp2146
(dp2147
g50
S'ONT::MACROMOLECULAR-COMPLEX'
p2148
sg21
(dp2149
sg23
g53
sg25
(lp2150
sbag0
(g17
g2
Ntp2151
Rp2152
(dp2153
g21
(dp2154
sg23
g433
sg25
(lp2155
g0
(g17
g2
Ntp2156
Rp2157
(dp2158
g50
S'V438770'
p2159
sg21
(dp2160
sg23
g440
sg25
(lp2161
sbag0
(g17
g2
Ntp2162
Rp2163
(dp2164
g50
S'V438778'
p2165
sg21
(dp2166
sg23
g440
sg25
(lp2167
sbasbag0
(g17
g2
Ntp2168
Rp2169
(dp2170
g50
S'The HRAS-BRAF complex'
p2171
sg21
(dp2172
g75
g453
ssg23
g77
sg25
(lp2173
sbasbag0
(g17
g2
Ntp2174
Rp2175
(dp2176
g21
(dp2177
g31
S'386'
p2178
sg33
S'paragraph152'
p2179
sg35
S'403'
p2180
sg39
S'343'
p2181
sg41
S'V438847'
p2182
sg43
S'-LOGICALOP-REF'
p2183
ssg23
g147
sg25
(lp2184
g0
(g17
g2
Ntp2185
Rp2186
(dp2187
g50
S'ONT::MOLECULAR-SITE'
p2188
sg21
(dp2189
sg23
g53
sg25
(lp2190
sbag0
(g17
g2
Ntp2191
Rp2192
(dp2193
g21
(dp2194
g817
S'AND'
p2195
ssg23
g819
sg25
(lp2196
g0
(g17
g2
Ntp2197
Rp2198
(dp2199
g50
S'V438843'
p2200
sg21
(dp2201
sg23
g440
sg25
(lp2202
sbag0
(g17
g2
Ntp2203
Rp2204
(dp2205
g50
S'V438866'
p2206
sg21
(dp2207
sg23
g440
sg25
(lp2208
sbasbag0
(g17
g2
Ntp2209
Rp2210
(dp2211
g50
S'Thr598 and Thr601'
p2212
sg21
(dp2213
g75
g453
ssg23
g77
sg25
(lp2214
sbasbag0
(g17
g2
Ntp2215
Rp2216
(dp2217
g21
(dp2218
g31
S'397'
p2219
sg33
S'paragraph152'
p2220
sg35
S'403'
p2221
sg37
S'(TERM ONT::V438866 ONT::MOLECULAR-SITE :NAME W::THR-601 :DRUM ((:DRUM (AA-SITE :NAME "Threonine" :LETTER "T" :INDEX 601))))'
p2222
sg39
S'343'
p2223
sg41
S'V438866'
p2224
sg43
S'-SIMPLE-REF'
p2225
ssg23
g147
sg25
(lp2226
g0
(g17
g2
Ntp2227
Rp2228
(dp2229
g50
S'ONT::MOLECULAR-SITE'
p2230
sg21
(dp2231
sg23
g53
sg25
(lp2232
sbag0
(g17
g2
Ntp2233
Rp2234
(dp2235
g21
(dp2236
sg23
g861
sg25
(lp2237
g0
(g17
g2
Ntp2238
Rp2239
(dp2240
g21
(dp2241
sg23
g736
sg25
(lp2242
g0
(g17
g2
Ntp2243
Rp2244
(dp2245
g50
S'Threonine'
p2246
sg21
(dp2247
sg23
g160
sg25
(lp2248
sbag0
(g17
g2
Ntp2249
Rp2250
(dp2251
g50
S'T'
p2252
sg21
(dp2253
sg23
g879
sg25
(lp2254
sbag0
(g17
g2
Ntp2255
Rp2256
(dp2257
g50
S'601'
p2258
sg21
(dp2259
sg23
g886
sg25
(lp2260
sbasbasbag0
(g17
g2
Ntp2261
Rp2262
(dp2263
g50
S'THR-601'
p2264
sg21
(dp2265
sg23
g160
sg25
(lp2266
sbag0
(g17
g2
Ntp2267
Rp2268
(dp2269
g50
S'Thr601'
p2270
sg21
(dp2271
sg23
g77
sg25
(lp2272
sbasbag0
(g17
g2
Ntp2273
Rp2274
(dp2275
g21
(dp2276
g31
S'386'
p2277
sg33
S'paragraph152'
p2278
sg35
S'393'
p2279
sg37
S'(TERM ONT::V438843 ONT::MOLECULAR-SITE :NAME W::THR-598 :DRUM ((:DRUM (AA-SITE :NAME "Threonine" :LETTER "T" :INDEX 598))))'
p2280
sg39
S'343'
p2281
sg41
S'V438843'
p2282
sg43
S'-SIMPLE-REF'
p2283
ssg23
g147
sg25
(lp2284
g0
(g17
g2
Ntp2285
Rp2286
(dp2287
g50
S'ONT::MOLECULAR-SITE'
p2288
sg21
(dp2289
sg23
g53
sg25
(lp2290
sbag0
(g17
g2
Ntp2291
Rp2292
(dp2293
g21
(dp2294
sg23
g861
sg25
(lp2295
g0
(g17
g2
Ntp2296
Rp2297
(dp2298
g21
(dp2299
sg23
g736
sg25
(lp2300
g0
(g17
g2
Ntp2301
Rp2302
(dp2303
g50
S'Threonine'
p2304
sg21
(dp2305
sg23
g160
sg25
(lp2306
sbag0
(g17
g2
Ntp2307
Rp2308
(dp2309
g50
S'T'
p2310
sg21
(dp2311
sg23
g879
sg25
(lp2312
sbag0
(g17
g2
Ntp2313
Rp2314
(dp2315
g50
S'598'
p2316
sg21
(dp2317
sg23
g886
sg25
(lp2318
sbasbasbag0
(g17
g2
Ntp2319
Rp2320
(dp2321
g50
S'THR-598'
p2322
sg21
(dp2323
sg23
g160
sg25
(lp2324
sbag0
(g17
g2
Ntp2325
Rp2326
(dp2327
g50
S'Thr598'
p2328
sg21
(dp2329
sg23
g77
sg25
(lp2330
sbasbag0
(g17
g2
Ntp2331
Rp2332
(dp2333
g21
(dp2334
g35
S'355'
p2335
sg37
S'(TERM ONT::V438778 ONT::GENE :NAME W::BRAF :DRUM ((:DRUM (TERM :ID HGNC::|1097| :NAME "B-Raf proto-oncogene, serine/threonine kinase" :MATCHED-VARIANTS ("BRAF") :DBXREFS (UP::P15056)))))'
p2336
sg83
S'HGNC:1097|UP:P15056'
p2337
sg43
S'-SIMPLE-REF'
p2338
sg31
S'350'
p2339
sg33
S'paragraph152'
p2340
sg39
S'343'
p2341
sg41
S'V438778'
p2342
ssg23
g147
sg25
(lp2343
g0
(g17
g2
Ntp2344
Rp2345
(dp2346
g50
S'ONT::GENE'
p2347
sg21
(dp2348
sg23
g53
sg25
(lp2349
sbag0
(g17
g2
Ntp2350
Rp2351
(dp2352
g50
S'BRAF'
p2353
sg21
(dp2354
sg23
g160
sg25
(lp2355
sbag0
(g17
g2
Ntp2356
Rp2357
(dp2358
g50
S'BRAF'
p2359
sg21
(dp2360
sg23
g77
sg25
(lp2361
sbasbag0
(g17
g2
Ntp2362
Rp2363
(dp2364
g21
(dp2365
g35
S'349'
p2366
sg37
S'(TERM ONT::V438770 ONT::GENE :NAME W::HRAS :DRUM ((:DRUM (TERM :ID HGNC::|5173| :NAME "Harvey rat sarcoma viral oncogene homolog" :MATCHED-VARIANTS ("HRAS") :DBXREFS (UP::P01112)))))'
p2367
sg83
S'UP:P01112|HGNC:5173'
p2368
sg43
S'-SIMPLE-REF'
p2369
sg31
S'345'
p2370
sg33
S'paragraph152'
p2371
sg39
S'343'
p2372
sg41
S'V438770'
p2373
ssg23
g147
sg25
(lp2374
g0
(g17
g2
Ntp2375
Rp2376
(dp2377
g50
S'ONT::GENE'
p2378
sg21
(dp2379
sg23
g53
sg25
(lp2380
sbag0
(g17
g2
Ntp2381
Rp2382
(dp2383
g50
S'HRAS'
p2384
sg21
(dp2385
sg23
g160
sg25
(lp2386
sbag0
(g17
g2
Ntp2387
Rp2388
(dp2389
g50
S'HRAS'
p2390
sg21
(dp2391
sg23
g77
sg25
(lp2392
sbasbag0
(g17
g2
Ntp2393
Rp2394
(dp2395
g21
(dp2396
g35
S'383'
p2397
sg37
S'(TERM ONT::V438810 ONT::GENE :NAME W::BRAF :DRUM ((:DRUM (TERM :ID HGNC::|1097| :NAME "B-Raf proto-oncogene, serine/threonine kinase" :MATCHED-VARIANTS ("BRAF") :DBXREFS (UP::P15056)))))'
p2398
sg83
S'HGNC:1097|UP:P15056'
p2399
sg43
S'-SIMPLE-REF'
p2400
sg31
S'378'
p2401
sg33
S'paragraph152'
p2402
sg39
S'343'
p2403
sg41
S'V438810'
p2404
ssg23
g147
sg25
(lp2405
g0
(g17
g2
Ntp2406
Rp2407
(dp2408
g50
S'ONT::GENE'
p2409
sg21
(dp2410
sg23
g53
sg25
(lp2411
sbag0
(g17
g2
Ntp2412
Rp2413
(dp2414
g50
S'BRAF'
p2415
sg21
(dp2416
sg23
g160
sg25
(lp2417
sbag0
(g17
g2
Ntp2418
Rp2419
(dp2420
g50
S'BRAF'
p2421
sg21
(dp2422
sg23
g77
sg25
(lp2423
sbasbag0
(g17
g2
Ntp2424
Rp2425
(dp2426
g21
(dp2427
g31
S'405'
p2428
sg33
S'paragraph152'
p2429
sg35
S'446'
p2430
sg37
S'(EVENT ONT::V453770 ONT::PHOSPHORYLATION :AFFECTED ONT::V453765 :SITEMOD ONT::V453779 :SITE ONT::V453807 :DRUM -)'
p2431
sg39
S'344'
p2432
sg41
S'V453770'
p2433
sg43
S'-PHOSPHORYLATE-LOC4-AFFECTED'
p2434
ssg23
g45
sg25
(lp2435
g0
(g17
g2
Ntp2436
Rp2437
(dp2438
g50
S'ONT::PHOSPHORYLATION'
p2439
sg21
(dp2440
sg23
g53
sg25
(lp2441
sbag0
(g17
g2
Ntp2442
Rp2443
(dp2444
g21
(dp2445
g31
S'410'
p2446
sg35
S'446'
p2447
sg41
S'V453770'
p2448
ssg23
g62
sg25
(lp2449
g0
(g17
g2
Ntp2450
Rp2451
(dp2452
g50
S'ONT::PHOSPHORYLATION'
p2453
sg21
(dp2454
sg23
g53
sg25
(lp2455
sbag0
(g17
g2
Ntp2456
Rp2457
(dp2458
g50
S'phosphorylated at Thr598 and Ser601'
p2459
sg21
(dp2460
g75
S'PHOSPHORYLATE'
p2461
ssg23
g77
sg25
(lp2462
sbasbag0
(g17
g2
Ntp2463
Rp2464
(dp2465
g21
(dp2466
g83
S'HGNC:1097|UP:P15056'
p2467
sg35
S'446'
p2468
sg86
S':AFFECTED'
p2469
sg41
S'V453765'
p2470
sg31
S'405'
p2471
ssg23
g114
sg25
(lp2472
g0
(g17
g2
Ntp2473
Rp2474
(dp2475
g50
S'ONT::GENE'
p2476
sg21
(dp2477
sg23
g53
sg25
(lp2478
sbag0
(g17
g2
Ntp2479
Rp2480
(dp2481
g50
S'BRAF phosphorylated at Thr598 and Ser601'
p2482
sg21
(dp2483
g75
S'BRAF'
p2484
ssg23
g77
sg25
(lp2485
sbasbag0
(g17
g2
Ntp2486
Rp2487
(dp2488
g21
(dp2489
g31
S'428'
p2490
sg35
S'446'
p2491
sg41
S'V453807'
p2492
ssg23
g736
sg25
(lp2493
g0
(g17
g2
Ntp2494
Rp2495
(dp2496
g50
S'ONT::MOLECULAR-SITE'
p2497
sg21
(dp2498
sg23
g53
sg25
(lp2499
sbag0
(g17
g2
Ntp2500
Rp2501
(dp2502
g50
S'Thr598 and Ser601'
p2503
sg21
(dp2504
g75
g453
ssg23
g77
sg25
(lp2505
sbasbag0
(g17
g2
Ntp2506
Rp2507
(dp2508
g50
S'BRAF phosphorylated at Thr598 and Ser601'
p2509
sg21
(dp2510
sg23
g77
sg25
(lp2511
sbasbag0
(g17
g2
Ntp2512
Rp2513
(dp2514
g21
(dp2515
g31
S'405'
p2516
sg33
S'paragraph152'
p2517
sg35
S'458'
p2518
sg37
S'(EVENT ONT::V453846 ONT::ACTIVATE :AFFECTED ONT::V453765 :DRUM - :TENSE ONT::PRES :PASSIVE +)'
p2519
sg39
S'344'
p2520
sg41
S'V453846'
p2521
sg43
S'-ACTIVATE-AFFECTED'
p2522
ssg23
g45
sg25
(lp2523
g0
(g17
g2
Ntp2524
Rp2525
(dp2526
g50
S'ONT::ACTIVATE'
p2527
sg21
(dp2528
sg23
g53
sg25
(lp2529
sbag0
(g17
g2
Ntp2530
Rp2531
(dp2532
g21
(dp2533
g31
S'405'
p2534
sg35
S'458'
p2535
sg41
S'V453846'
p2536
ssg23
g62
sg25
(lp2537
g0
(g17
g2
Ntp2538
Rp2539
(dp2540
g50
S'ONT::START'
p2541
sg21
(dp2542
sg23
g53
sg25
(lp2543
sbag0
(g17
g2
Ntp2544
Rp2545
(dp2546
g50
S'BRAF phosphorylated at Thr598 and Ser601 is activated'
p2547
sg21
(dp2548
g75
S'ACTIVATE'
p2549
ssg23
g77
sg25
(lp2550
sbasbag0
(g17
g2
Ntp2551
Rp2552
(dp2553
g21
(dp2554
g83
S'HGNC:1097|UP:P15056'
p2555
sg35
S'446'
p2556
sg86
S':AFFECTED'
p2557
sg41
S'V453765'
p2558
sg31
S'405'
p2559
ssg23
g114
sg25
(lp2560
g0
(g17
g2
Ntp2561
Rp2562
(dp2563
g50
S'ONT::GENE'
p2564
sg21
(dp2565
sg23
g53
sg25
(lp2566
sbag0
(g17
g2
Ntp2567
Rp2568
(dp2569
g50
S'BRAF phosphorylated at Thr598 and Ser601'
p2570
sg21
(dp2571
g75
S'BRAF'
p2572
ssg23
g77
sg25
(lp2573
sbasbag0
(g17
g2
Ntp2574
Rp2575
(dp2576
g50
S'BRAF phosphorylated at Thr598 and Ser601 is activated'
p2577
sg21
(dp2578
sg23
g77
sg25
(lp2579
sbasbag0
(g17
g2
Ntp2580
Rp2581
(dp2582
g21
(dp2583
g35
S'446'
p2584
sg37
S'(TERM ONT::V453765 ONT::GENE :NAME W::BRAF :INEVENT ONT::V453770 :DRUM ((:DRUM (TERM :ID HGNC::|1097| :NAME "B-Raf proto-oncogene, serine/threonine kinase" :MATCHED-VARIANTS ("BRAF") :DBXREFS (UP::P15056)))))'
p2585
sg83
S'HGNC:1097|UP:P15056'
p2586
sg43
S'-SIMPLE-REF-MODEVENT'
p2587
sg31
S'405'
p2588
sg33
S'paragraph152'
p2589
sg39
S'344'
p2590
sg41
S'V453765'
p2591
ssg23
g147
sg25
(lp2592
g0
(g17
g2
Ntp2593
Rp2594
(dp2595
g50
S'ONT::GENE'
p2596
sg21
(dp2597
sg23
g53
sg25
(lp2598
sbag0
(g17
g2
Ntp2599
Rp2600
(dp2601
g21
(dp2602
sg23
g861
sg25
(lp2603
g0
(g17
g2
Ntp2604
Rp2605
(dp2606
g21
(dp2607
sg23
g1235
sg25
(lp2608
g0
(g17
g2
Ntp2609
Rp2610
(dp2611
g50
S'V453770'
p2612
sg21
(dp2613
sg23
g1242
sg25
(lp2614
sbasbasbag0
(g17
g2
Ntp2615
Rp2616
(dp2617
g50
S'BRAF'
p2618
sg21
(dp2619
sg23
g160
sg25
(lp2620
sbag0
(g17
g2
Ntp2621
Rp2622
(dp2623
g50
S'BRAF phosphorylated at Thr598 and Ser601'
p2624
sg21
(dp2625
sg23
g77
sg25
(lp2626
sbasbag0
(g17
g2
Ntp2627
Rp2628
(dp2629
g21
(dp2630
g31
S'428'
p2631
sg33
S'paragraph152'
p2632
sg35
S'446'
p2633
sg39
S'344'
p2634
sg41
S'V453807'
p2635
sg43
S'-LOGICALOP-REF'
p2636
ssg23
g147
sg25
(lp2637
g0
(g17
g2
Ntp2638
Rp2639
(dp2640
g50
S'ONT::MOLECULAR-SITE'
p2641
sg21
(dp2642
sg23
g53
sg25
(lp2643
sbag0
(g17
g2
Ntp2644
Rp2645
(dp2646
g21
(dp2647
g817
S'AND'
p2648
ssg23
g819
sg25
(lp2649
g0
(g17
g2
Ntp2650
Rp2651
(dp2652
g50
S'V453803'
p2653
sg21
(dp2654
sg23
g440
sg25
(lp2655
sbag0
(g17
g2
Ntp2656
Rp2657
(dp2658
g50
S'V453826'
p2659
sg21
(dp2660
sg23
g440
sg25
(lp2661
sbasbag0
(g17
g2
Ntp2662
Rp2663
(dp2664
g50
S'Thr598 and Ser601'
p2665
sg21
(dp2666
g75
g453
ssg23
g77
sg25
(lp2667
sbasbag0
(g17
g2
Ntp2668
Rp2669
(dp2670
g21
(dp2671
g31
S'439'
p2672
sg33
S'paragraph152'
p2673
sg35
S'446'
p2674
sg37
S'(TERM ONT::V453826 ONT::MOLECULAR-SITE :NAME W::SER-601 :DRUM ((:DRUM (AA-SITE :NAME "Serine" :LETTER "S" :INDEX 601))))'
p2675
sg39
S'344'
p2676
sg41
S'V453826'
p2677
sg43
S'-SIMPLE-REF'
p2678
ssg23
g147
sg25
(lp2679
g0
(g17
g2
Ntp2680
Rp2681
(dp2682
g50
S'ONT::MOLECULAR-SITE'
p2683
sg21
(dp2684
sg23
g53
sg25
(lp2685
sbag0
(g17
g2
Ntp2686
Rp2687
(dp2688
g21
(dp2689
sg23
g861
sg25
(lp2690
g0
(g17
g2
Ntp2691
Rp2692
(dp2693
g21
(dp2694
sg23
g736
sg25
(lp2695
g0
(g17
g2
Ntp2696
Rp2697
(dp2698
g50
S'Serine'
p2699
sg21
(dp2700
sg23
g160
sg25
(lp2701
sbag0
(g17
g2
Ntp2702
Rp2703
(dp2704
g50
S'S'
p2705
sg21
(dp2706
sg23
g879
sg25
(lp2707
sbag0
(g17
g2
Ntp2708
Rp2709
(dp2710
g50
S'601'
p2711
sg21
(dp2712
sg23
g886
sg25
(lp2713
sbasbasbag0
(g17
g2
Ntp2714
Rp2715
(dp2716
g50
S'SER-601'
p2717
sg21
(dp2718
sg23
g160
sg25
(lp2719
sbag0
(g17
g2
Ntp2720
Rp2721
(dp2722
g50
S'Ser601'
p2723
sg21
(dp2724
sg23
g77
sg25
(lp2725
sbasbag0
(g17
g2
Ntp2726
Rp2727
(dp2728
g21
(dp2729
g31
S'428'
p2730
sg33
S'paragraph152'
p2731
sg35
S'435'
p2732
sg37
S'(TERM ONT::V453803 ONT::MOLECULAR-SITE :NAME W::THR-598 :DRUM ((:DRUM (AA-SITE :NAME "Threonine" :LETTER "T" :INDEX 598))))'
p2733
sg39
S'344'
p2734
sg41
S'V453803'
p2735
sg43
S'-SIMPLE-REF'
p2736
ssg23
g147
sg25
(lp2737
g0
(g17
g2
Ntp2738
Rp2739
(dp2740
g50
S'ONT::MOLECULAR-SITE'
p2741
sg21
(dp2742
sg23
g53
sg25
(lp2743
sbag0
(g17
g2
Ntp2744
Rp2745
(dp2746
g21
(dp2747
sg23
g861
sg25
(lp2748
g0
(g17
g2
Ntp2749
Rp2750
(dp2751
g21
(dp2752
sg23
g736
sg25
(lp2753
g0
(g17
g2
Ntp2754
Rp2755
(dp2756
g50
S'Threonine'
p2757
sg21
(dp2758
sg23
g160
sg25
(lp2759
sbag0
(g17
g2
Ntp2760
Rp2761
(dp2762
g50
S'T'
p2763
sg21
(dp2764
sg23
g879
sg25
(lp2765
sbag0
(g17
g2
Ntp2766
Rp2767
(dp2768
g50
S'598'
p2769
sg21
(dp2770
sg23
g886
sg25
(lp2771
sbasbasbag0
(g17
g2
Ntp2772
Rp2773
(dp2774
g50
S'THR-598'
p2775
sg21
(dp2776
sg23
g160
sg25
(lp2777
sbag0
(g17
g2
Ntp2778
Rp2779
(dp2780
g50
S'Thr598'
p2781
sg21
(dp2782
sg23
g77
sg25
(lp2783
sbasbag0
(g17
g2
Ntp2784
Rp2785
(dp2786
g21
(dp2787
g31
S'460'
p2788
sg33
S'paragraph152'
p2789
sg35
S'512'
p2790
sg37
S'(EVENT ONT::V466687 ONT::PHOSPHORYLATION :AGENT ONT::V466683 :AFFECTED ONT::V466700 :SITEMOD ONT::V466709 :SITE ONT::V466737 :DRUM - :TENSE ONT::PRES)'
p2791
sg39
S'345'
p2792
sg41
S'V466687'
p2793
sg43
S'-PHOSPHORYLATE-LOC4'
p2794
ssg23
g45
sg25
(lp2795
g0
(g17
g2
Ntp2796
Rp2797
(dp2798
g50
S'ONT::PHOSPHORYLATION'
p2799
sg21
(dp2800
sg23
g53
sg25
(lp2801
sbag0
(g17
g2
Ntp2802
Rp2803
(dp2804
g21
(dp2805
g31
S'460'
p2806
sg35
S'512'
p2807
sg41
S'V466687'
p2808
ssg23
g62
sg25
(lp2809
g0
(g17
g2
Ntp2810
Rp2811
(dp2812
g50
S'ONT::PHOSPHORYLATION'
p2813
sg21
(dp2814
sg23
g53
sg25
(lp2815
sbag0
(g17
g2
Ntp2816
Rp2817
(dp2818
g50
S'Active BRAF phosphorylates MEK1 at Ser218 and Ser222'
p2819
sg21
(dp2820
g75
S'PHOSPHORYLATE'
p2821
ssg23
g77
sg25
(lp2822
sbasbag0
(g17
g2
Ntp2823
Rp2824
(dp2825
g21
(dp2826
g83
S'HGNC:1097|UP:P15056'
p2827
sg35
S'472'
p2828
sg86
S':AGENT'
p2829
sg41
S'V466683'
p2830
sg31
S'460'
p2831
ssg23
g90
sg25
(lp2832
g0
(g17
g2
Ntp2833
Rp2834
(dp2835
g50
S'ONT::GENE'
p2836
sg21
(dp2837
sg23
g53
sg25
(lp2838
sbag0
(g17
g2
Ntp2839
Rp2840
(dp2841
g50
S'Active BRAF'
p2842
sg21
(dp2843
g75
S'BRAF'
p2844
ssg23
g77
sg25
(lp2845
sbasbag0
(g17
g2
Ntp2846
Rp2847
(dp2848
g21
(dp2849
g83
S'UP:Q91447|UP:Q05116|XFAM:PF00069'
p2850
sg35
S'492'
p2851
sg86
S':AFFECTED'
p2852
sg41
S'V466700'
p2853
sg31
S'487'
p2854
ssg23
g114
sg25
(lp2855
g0
(g17
g2
Ntp2856
Rp2857
(dp2858
g50
S'ONT::PROTEIN'
p2859
sg21
(dp2860
sg23
g53
sg25
(lp2861
sbag0
(g17
g2
Ntp2862
Rp2863
(dp2864
g50
S'MEK1'
p2865
sg21
(dp2866
g75
S'MEK 1'
p2867
ssg23
g77
sg25
(lp2868
sbasbag0
(g17
g2
Ntp2869
Rp2870
(dp2871
g21
(dp2872
g31
S'495'
p2873
sg35
S'512'
p2874
sg41
S'V466737'
p2875
ssg23
g736
sg25
(lp2876
g0
(g17
g2
Ntp2877
Rp2878
(dp2879
g50
S'ONT::MOLECULAR-SITE'
p2880
sg21
(dp2881
sg23
g53
sg25
(lp2882
sbag0
(g17
g2
Ntp2883
Rp2884
(dp2885
g50
S'Ser218 and Ser222'
p2886
sg21
(dp2887
g75
g453
ssg23
g77
sg25
(lp2888
sbasbag0
(g17
g2
Ntp2889
Rp2890
(dp2891
g50
S'Active BRAF phosphorylates MEK1 at Ser218 and Ser222'
p2892
sg21
(dp2893
sg23
g77
sg25
(lp2894
sbasbag0
(g17
g2
Ntp2895
Rp2896
(dp2897
g21
(dp2898
g35
S'472'
p2899
sg37
S'(TERM ONT::V466683 ONT::GENE :NAME W::BRAF :ACTIVE ONT::TRUE :DRUM ((:DRUM (TERM :ID HGNC::|1097| :NAME "B-Raf proto-oncogene, serine/threonine kinase" :MATCHED-VARIANTS ("BRAF") :DBXREFS (UP::P15056)))))'
p2900
sg83
S'HGNC:1097|UP:P15056'
p2901
sg43
S'-SIMPLE-REF-MODACTIVE1'
p2902
sg31
S'460'
p2903
sg33
S'paragraph152'
p2904
sg39
S'345'
p2905
sg41
S'V466683'
p2906
ssg23
g147
sg25
(lp2907
g0
(g17
g2
Ntp2908
Rp2909
(dp2910
g50
S'ONT::GENE'
p2911
sg21
(dp2912
sg23
g53
sg25
(lp2913
sbag0
(g17
g2
Ntp2914
Rp2915
(dp2916
g21
(dp2917
sg23
g861
sg25
(lp2918
g0
(g17
g2
Ntp2919
Rp2920
(dp2921
g50
S'TRUE'
p2922
sg21
(dp2923
sg23
g1533
sg25
(lp2924
sbasbag0
(g17
g2
Ntp2925
Rp2926
(dp2927
g50
S'BRAF'
p2928
sg21
(dp2929
sg23
g160
sg25
(lp2930
sbag0
(g17
g2
Ntp2931
Rp2932
(dp2933
g50
S'Active BRAF'
p2934
sg21
(dp2935
sg23
g77
sg25
(lp2936
sbasbag0
(g17
g2
Ntp2937
Rp2938
(dp2939
g21
(dp2940
g31
S'495'
p2941
sg33
S'paragraph152'
p2942
sg35
S'512'
p2943
sg39
S'345'
p2944
sg41
S'V466737'
p2945
sg43
S'-LOGICALOP-REF'
p2946
ssg23
g147
sg25
(lp2947
g0
(g17
g2
Ntp2948
Rp2949
(dp2950
g50
S'ONT::MOLECULAR-SITE'
p2951
sg21
(dp2952
sg23
g53
sg25
(lp2953
sbag0
(g17
g2
Ntp2954
Rp2955
(dp2956
g21
(dp2957
g817
S'AND'
p2958
ssg23
g819
sg25
(lp2959
g0
(g17
g2
Ntp2960
Rp2961
(dp2962
g50
S'V466733'
p2963
sg21
(dp2964
sg23
g440
sg25
(lp2965
sbag0
(g17
g2
Ntp2966
Rp2967
(dp2968
g50
S'V466756'
p2969
sg21
(dp2970
sg23
g440
sg25
(lp2971
sbasbag0
(g17
g2
Ntp2972
Rp2973
(dp2974
g50
S'Ser218 and Ser222'
p2975
sg21
(dp2976
g75
g453
ssg23
g77
sg25
(lp2977
sbasbag0
(g17
g2
Ntp2978
Rp2979
(dp2980
g21
(dp2981
g31
S'506'
p2982
sg33
S'paragraph152'
p2983
sg35
S'512'
p2984
sg37
S'(TERM ONT::V466756 ONT::MOLECULAR-SITE :NAME W::SER-222 :DRUM ((:DRUM (AA-SITE :NAME "Serine" :LETTER "S" :INDEX 222))))'
p2985
sg39
S'345'
p2986
sg41
S'V466756'
p2987
sg43
S'-SIMPLE-REF'
p2988
ssg23
g147
sg25
(lp2989
g0
(g17
g2
Ntp2990
Rp2991
(dp2992
g50
S'ONT::MOLECULAR-SITE'
p2993
sg21
(dp2994
sg23
g53
sg25
(lp2995
sbag0
(g17
g2
Ntp2996
Rp2997
(dp2998
g21
(dp2999
sg23
g861
sg25
(lp3000
g0
(g17
g2
Ntp3001
Rp3002
(dp3003
g21
(dp3004
sg23
g736
sg25
(lp3005
g0
(g17
g2
Ntp3006
Rp3007
(dp3008
g50
S'Serine'
p3009
sg21
(dp3010
sg23
g160
sg25
(lp3011
sbag0
(g17
g2
Ntp3012
Rp3013
(dp3014
g50
S'S'
p3015
sg21
(dp3016
sg23
g879
sg25
(lp3017
sbag0
(g17
g2
Ntp3018
Rp3019
(dp3020
g50
S'222'
p3021
sg21
(dp3022
sg23
g886
sg25
(lp3023
sbasbasbag0
(g17
g2
Ntp3024
Rp3025
(dp3026
g50
S'SER-222'
p3027
sg21
(dp3028
sg23
g160
sg25
(lp3029
sbag0
(g17
g2
Ntp3030
Rp3031
(dp3032
g50
S'Ser222'
p3033
sg21
(dp3034
sg23
g77
sg25
(lp3035
sbasbag0
(g17
g2
Ntp3036
Rp3037
(dp3038
g21
(dp3039
g31
S'495'
p3040
sg33
S'paragraph152'
p3041
sg35
S'502'
p3042
sg37
S'(TERM ONT::V466733 ONT::MOLECULAR-SITE :NAME W::SER-218 :DRUM ((:DRUM (AA-SITE :NAME "Serine" :LETTER "S" :INDEX 218))))'
p3043
sg39
S'345'
p3044
sg41
S'V466733'
p3045
sg43
S'-SIMPLE-REF'
p3046
ssg23
g147
sg25
(lp3047
g0
(g17
g2
Ntp3048
Rp3049
(dp3050
g50
S'ONT::MOLECULAR-SITE'
p3051
sg21
(dp3052
sg23
g53
sg25
(lp3053
sbag0
(g17
g2
Ntp3054
Rp3055
(dp3056
g21
(dp3057
sg23
g861
sg25
(lp3058
g0
(g17
g2
Ntp3059
Rp3060
(dp3061
g21
(dp3062
sg23
g736
sg25
(lp3063
g0
(g17
g2
Ntp3064
Rp3065
(dp3066
g50
S'Serine'
p3067
sg21
(dp3068
sg23
g160
sg25
(lp3069
sbag0
(g17
g2
Ntp3070
Rp3071
(dp3072
g50
S'S'
p3073
sg21
(dp3074
sg23
g879
sg25
(lp3075
sbag0
(g17
g2
Ntp3076
Rp3077
(dp3078
g50
S'218'
p3079
sg21
(dp3080
sg23
g886
sg25
(lp3081
sbasbasbag0
(g17
g2
Ntp3082
Rp3083
(dp3084
g50
S'SER-218'
p3085
sg21
(dp3086
sg23
g160
sg25
(lp3087
sbag0
(g17
g2
Ntp3088
Rp3089
(dp3090
g50
S'Ser218'
p3091
sg21
(dp3092
sg23
g77
sg25
(lp3093
sbasbag0
(g17
g2
Ntp3094
Rp3095
(dp3096
g21
(dp3097
g35
S'492'
p3098
sg37
S'(TERM ONT::V466700 ONT::PROTEIN :NAME W::MEK-1 :DRUM ((:DRUM (TERM :ID UP::Q91447 :NAME "Dual specificity mitogen-activated protein kinase kinase 1" :MATCHED-VARIANTS ("MEK1") :DBXREFS (XFAM::PF00069)) (TERM :ID UP::Q05116 :NAME "Dual specificity mitogen-activated protein kinase kinase 1" :MATCHED-VARIANTS ("MEK1") :DBXREFS (XFAM::PF00069)))))'
p3099
sg83
S'UP:Q91447|UP:Q05116|XFAM:PF00069'
p3100
sg43
S'-SIMPLE-REF'
p3101
sg31
S'487'
p3102
sg33
S'paragraph152'
p3103
sg39
S'345'
p3104
sg41
S'V466700'
p3105
ssg23
g147
sg25
(lp3106
g0
(g17
g2
Ntp3107
Rp3108
(dp3109
g50
S'ONT::PROTEIN'
p3110
sg21
(dp3111
sg23
g53
sg25
(lp3112
sbag0
(g17
g2
Ntp3113
Rp3114
(dp3115
g50
S'MEK-1'
p3116
sg21
(dp3117
sg23
g160
sg25
(lp3118
sbag0
(g17
g2
Ntp3119
Rp3120
(dp3121
g50
S'MEK1'
p3122
sg21
(dp3123
sg23
g77
sg25
(lp3124
sbasbag0
(g17
g2
Ntp3125
Rp3126
(dp3127
g21
(dp3128
g31
S'514'
p3129
sg33
S'paragraph152'
p3130
sg35
S'555'
p3131
sg37
S'(EVENT ONT::V481498 ONT::PHOSPHORYLATION :AFFECTED ONT::V481493 :SITEMOD ONT::V481507 :SITE ONT::V481535 :DRUM -)'
p3132
sg39
S'346'
p3133
sg41
S'V481498'
p3134
sg43
S'-PHOSPHORYLATE-LOC4-AFFECTED'
p3135
ssg23
g45
sg25
(lp3136
g0
(g17
g2
Ntp3137
Rp3138
(dp3139
g50
S'ONT::PHOSPHORYLATION'
p3140
sg21
(dp3141
sg23
g53
sg25
(lp3142
sbag0
(g17
g2
Ntp3143
Rp3144
(dp3145
g21
(dp3146
g31
S'519'
p3147
sg35
S'555'
p3148
sg41
S'V481498'
p3149
ssg23
g62
sg25
(lp3150
g0
(g17
g2
Ntp3151
Rp3152
(dp3153
g50
S'ONT::PHOSPHORYLATION'
p3154
sg21
(dp3155
sg23
g53
sg25
(lp3156
sbag0
(g17
g2
Ntp3157
Rp3158
(dp3159
g50
S'phosphorylated at Ser218 and Ser222'
p3160
sg21
(dp3161
g75
S'PHOSPHORYLATE'
p3162
ssg23
g77
sg25
(lp3163
sbasbag0
(g17
g2
Ntp3164
Rp3165
(dp3166
g21
(dp3167
g83
S'UP:Q91447|UP:Q05116|XFAM:PF00069'
p3168
sg35
S'555'
p3169
sg86
S':AFFECTED'
p3170
sg41
S'V481493'
p3171
sg31
S'514'
p3172
ssg23
g114
sg25
(lp3173
g0
(g17
g2
Ntp3174
Rp3175
(dp3176
g50
S'ONT::PROTEIN'
p3177
sg21
(dp3178
sg23
g53
sg25
(lp3179
sbag0
(g17
g2
Ntp3180
Rp3181
(dp3182
g50
S'MEK1 phosphorylated at Ser218 and Ser222'
p3183
sg21
(dp3184
g75
S'MEK 1'
p3185
ssg23
g77
sg25
(lp3186
sbasbag0
(g17
g2
Ntp3187
Rp3188
(dp3189
g21
(dp3190
g31
S'537'
p3191
sg35
S'555'
p3192
sg41
S'V481535'
p3193
ssg23
g736
sg25
(lp3194
g0
(g17
g2
Ntp3195
Rp3196
(dp3197
g50
S'ONT::MOLECULAR-SITE'
p3198
sg21
(dp3199
sg23
g53
sg25
(lp3200
sbag0
(g17
g2
Ntp3201
Rp3202
(dp3203
g50
S'Ser218 and Ser222'
p3204
sg21
(dp3205
g75
g453
ssg23
g77
sg25
(lp3206
sbasbag0
(g17
g2
Ntp3207
Rp3208
(dp3209
g50
S'MEK1 phosphorylated at Ser218 and Ser222'
p3210
sg21
(dp3211
sg23
g77
sg25
(lp3212
sbasbag0
(g17
g2
Ntp3213
Rp3214
(dp3215
g21
(dp3216
g31
S'514'
p3217
sg33
S'paragraph152'
p3218
sg35
S'567'
p3219
sg37
S'(EVENT ONT::V481574 ONT::ACTIVATE :AFFECTED ONT::V481493 :DRUM - :TENSE ONT::PRES :PASSIVE +)'
p3220
sg39
S'346'
p3221
sg41
S'V481574'
p3222
sg43
S'-ACTIVATE-AFFECTED'
p3223
ssg23
g45
sg25
(lp3224
g0
(g17
g2
Ntp3225
Rp3226
(dp3227
g50
S'ONT::ACTIVATE'
p3228
sg21
(dp3229
sg23
g53
sg25
(lp3230
sbag0
(g17
g2
Ntp3231
Rp3232
(dp3233
g21
(dp3234
g31
S'514'
p3235
sg35
S'567'
p3236
sg41
S'V481574'
p3237
ssg23
g62
sg25
(lp3238
g0
(g17
g2
Ntp3239
Rp3240
(dp3241
g50
S'ONT::START'
p3242
sg21
(dp3243
sg23
g53
sg25
(lp3244
sbag0
(g17
g2
Ntp3245
Rp3246
(dp3247
g50
S'MEK1 phosphorylated at Ser218 and Ser222 is activated'
p3248
sg21
(dp3249
g75
S'ACTIVATE'
p3250
ssg23
g77
sg25
(lp3251
sbasbag0
(g17
g2
Ntp3252
Rp3253
(dp3254
g21
(dp3255
g83
S'UP:Q91447|UP:Q05116|XFAM:PF00069'
p3256
sg35
S'555'
p3257
sg86
S':AFFECTED'
p3258
sg41
S'V481493'
p3259
sg31
S'514'
p3260
ssg23
g114
sg25
(lp3261
g0
(g17
g2
Ntp3262
Rp3263
(dp3264
g50
S'ONT::PROTEIN'
p3265
sg21
(dp3266
sg23
g53
sg25
(lp3267
sbag0
(g17
g2
Ntp3268
Rp3269
(dp3270
g50
S'MEK1 phosphorylated at Ser218 and Ser222'
p3271
sg21
(dp3272
g75
S'MEK 1'
p3273
ssg23
g77
sg25
(lp3274
sbasbag0
(g17
g2
Ntp3275
Rp3276
(dp3277
g50
S'MEK1 phosphorylated at Ser218 and Ser222 is activated'
p3278
sg21
(dp3279
sg23
g77
sg25
(lp3280
sbasbag0
(g17
g2
Ntp3281
Rp3282
(dp3283
g21
(dp3284
g35
S'555'
p3285
sg37
S'(TERM ONT::V481493 ONT::PROTEIN :NAME W::MEK-1 :INEVENT ONT::V481498 :DRUM ((:DRUM (TERM :ID UP::Q91447 :NAME "Dual specificity mitogen-activated protein kinase kinase 1" :MATCHED-VARIANTS ("MEK1") :DBXREFS (XFAM::PF00069)) (TERM :ID UP::Q05116 :NAME "Dual specificity mitogen-activated protein kinase kinase 1" :MATCHED-VARIANTS ("MEK1") :DBXREFS (XFAM::PF00069)))))'
p3286
sg83
S'UP:Q91447|UP:Q05116|XFAM:PF00069'
p3287
sg43
S'-SIMPLE-REF-MODEVENT'
p3288
sg31
S'514'
p3289
sg33
S'paragraph152'
p3290
sg39
S'346'
p3291
sg41
S'V481493'
p3292
ssg23
g147
sg25
(lp3293
g0
(g17
g2
Ntp3294
Rp3295
(dp3296
g50
S'ONT::PROTEIN'
p3297
sg21
(dp3298
sg23
g53
sg25
(lp3299
sbag0
(g17
g2
Ntp3300
Rp3301
(dp3302
g21
(dp3303
sg23
g861
sg25
(lp3304
g0
(g17
g2
Ntp3305
Rp3306
(dp3307
g21
(dp3308
sg23
g1235
sg25
(lp3309
g0
(g17
g2
Ntp3310
Rp3311
(dp3312
g50
S'V481498'
p3313
sg21
(dp3314
sg23
g1242
sg25
(lp3315
sbasbasbag0
(g17
g2
Ntp3316
Rp3317
(dp3318
g50
S'MEK-1'
p3319
sg21
(dp3320
sg23
g160
sg25
(lp3321
sbag0
(g17
g2
Ntp3322
Rp3323
(dp3324
g50
S'MEK1 phosphorylated at Ser218 and Ser222'
p3325
sg21
(dp3326
sg23
g77
sg25
(lp3327
sbasbag0
(g17
g2
Ntp3328
Rp3329
(dp3330
g21
(dp3331
g31
S'537'
p3332
sg33
S'paragraph152'
p3333
sg35
S'555'
p3334
sg39
S'346'
p3335
sg41
S'V481535'
p3336
sg43
S'-LOGICALOP-REF'
p3337
ssg23
g147
sg25
(lp3338
g0
(g17
g2
Ntp3339
Rp3340
(dp3341
g50
S'ONT::MOLECULAR-SITE'
p3342
sg21
(dp3343
sg23
g53
sg25
(lp3344
sbag0
(g17
g2
Ntp3345
Rp3346
(dp3347
g21
(dp3348
g817
S'AND'
p3349
ssg23
g819
sg25
(lp3350
g0
(g17
g2
Ntp3351
Rp3352
(dp3353
g50
S'V481531'
p3354
sg21
(dp3355
sg23
g440
sg25
(lp3356
sbag0
(g17
g2
Ntp3357
Rp3358
(dp3359
g50
S'V481554'
p3360
sg21
(dp3361
sg23
g440
sg25
(lp3362
sbasbag0
(g17
g2
Ntp3363
Rp3364
(dp3365
g50
S'Ser218 and Ser222'
p3366
sg21
(dp3367
g75
g453
ssg23
g77
sg25
(lp3368
sbasbag0
(g17
g2
Ntp3369
Rp3370
(dp3371
g21
(dp3372
g31
S'548'
p3373
sg33
S'paragraph152'
p3374
sg35
S'555'
p3375
sg37
S'(TERM ONT::V481554 ONT::MOLECULAR-SITE :NAME W::SER-222 :DRUM ((:DRUM (AA-SITE :NAME "Serine" :LETTER "S" :INDEX 222))))'
p3376
sg39
S'346'
p3377
sg41
S'V481554'
p3378
sg43
S'-SIMPLE-REF'
p3379
ssg23
g147
sg25
(lp3380
g0
(g17
g2
Ntp3381
Rp3382
(dp3383
g50
S'ONT::MOLECULAR-SITE'
p3384
sg21
(dp3385
sg23
g53
sg25
(lp3386
sbag0
(g17
g2
Ntp3387
Rp3388
(dp3389
g21
(dp3390
sg23
g861
sg25
(lp3391
g0
(g17
g2
Ntp3392
Rp3393
(dp3394
g21
(dp3395
sg23
g736
sg25
(lp3396
g0
(g17
g2
Ntp3397
Rp3398
(dp3399
g50
S'Serine'
p3400
sg21
(dp3401
sg23
g160
sg25
(lp3402
sbag0
(g17
g2
Ntp3403
Rp3404
(dp3405
g50
S'S'
p3406
sg21
(dp3407
sg23
g879
sg25
(lp3408
sbag0
(g17
g2
Ntp3409
Rp3410
(dp3411
g50
S'222'
p3412
sg21
(dp3413
sg23
g886
sg25
(lp3414
sbasbasbag0
(g17
g2
Ntp3415
Rp3416
(dp3417
g50
S'SER-222'
p3418
sg21
(dp3419
sg23
g160
sg25
(lp3420
sbag0
(g17
g2
Ntp3421
Rp3422
(dp3423
g50
S'Ser222'
p3424
sg21
(dp3425
sg23
g77
sg25
(lp3426
sbasbag0
(g17
g2
Ntp3427
Rp3428
(dp3429
g21
(dp3430
g31
S'537'
p3431
sg33
S'paragraph152'
p3432
sg35
S'544'
p3433
sg37
S'(TERM ONT::V481531 ONT::MOLECULAR-SITE :NAME W::SER-218 :DRUM ((:DRUM (AA-SITE :NAME "Serine" :LETTER "S" :INDEX 218))))'
p3434
sg39
S'346'
p3435
sg41
S'V481531'
p3436
sg43
S'-SIMPLE-REF'
p3437
ssg23
g147
sg25
(lp3438
g0
(g17
g2
Ntp3439
Rp3440
(dp3441
g50
S'ONT::MOLECULAR-SITE'
p3442
sg21
(dp3443
sg23
g53
sg25
(lp3444
sbag0
(g17
g2
Ntp3445
Rp3446
(dp3447
g21
(dp3448
sg23
g861
sg25
(lp3449
g0
(g17
g2
Ntp3450
Rp3451
(dp3452
g21
(dp3453
sg23
g736
sg25
(lp3454
g0
(g17
g2
Ntp3455
Rp3456
(dp3457
g50
S'Serine'
p3458
sg21
(dp3459
sg23
g160
sg25
(lp3460
sbag0
(g17
g2
Ntp3461
Rp3462
(dp3463
g50
S'S'
p3464
sg21
(dp3465
sg23
g879
sg25
(lp3466
sbag0
(g17
g2
Ntp3467
Rp3468
(dp3469
g50
S'218'
p3470
sg21
(dp3471
sg23
g886
sg25
(lp3472
sbasbasbag0
(g17
g2
Ntp3473
Rp3474
(dp3475
g50
S'SER-218'
p3476
sg21
(dp3477
sg23
g160
sg25
(lp3478
sbag0
(g17
g2
Ntp3479
Rp3480
(dp3481
g50
S'Ser218'
p3482
sg21
(dp3483
sg23
g77
sg25
(lp3484
sbasbag0
(g17
g2
Ntp3485
Rp3486
(dp3487
g21
(dp3488
g31
S'569'
p3489
sg33
S'paragraph152'
p3490
sg35
S'621'
p3491
sg37
S'(EVENT ONT::V490468 ONT::PHOSPHORYLATION :AGENT ONT::V490464 :AFFECTED ONT::V490481 :SITEMOD ONT::V490490 :SITE ONT::V490518 :DRUM - :TENSE ONT::PRES)'
p3492
sg39
S'347'
p3493
sg41
S'V490468'
p3494
sg43
S'-PHOSPHORYLATE-LOC4'
p3495
ssg23
g45
sg25
(lp3496
g0
(g17
g2
Ntp3497
Rp3498
(dp3499
g50
S'ONT::PHOSPHORYLATION'
p3500
sg21
(dp3501
sg23
g53
sg25
(lp3502
sbag0
(g17
g2
Ntp3503
Rp3504
(dp3505
g21
(dp3506
g31
S'569'
p3507
sg35
S'621'
p3508
sg41
S'V490468'
p3509
ssg23
g62
sg25
(lp3510
g0
(g17
g2
Ntp3511
Rp3512
(dp3513
g50
S'ONT::PHOSPHORYLATION'
p3514
sg21
(dp3515
sg23
g53
sg25
(lp3516
sbag0
(g17
g2
Ntp3517
Rp3518
(dp3519
g50
S'Active MEK1 phosphorylates ERK2 at Thr202 and Thr185'
p3520
sg21
(dp3521
g75
S'PHOSPHORYLATE'
p3522
ssg23
g77
sg25
(lp3523
sbasbag0
(g17
g2
Ntp3524
Rp3525
(dp3526
g21
(dp3527
g83
S'UP:Q91447|UP:Q05116|XFAM:PF00069'
p3528
sg35
S'581'
p3529
sg86
S':AGENT'
p3530
sg41
S'V490464'
p3531
sg31
S'569'
p3532
ssg23
g90
sg25
(lp3533
g0
(g17
g2
Ntp3534
Rp3535
(dp3536
g50
S'ONT::PROTEIN'
p3537
sg21
(dp3538
sg23
g53
sg25
(lp3539
sbag0
(g17
g2
Ntp3540
Rp3541
(dp3542
g50
S'Active MEK1'
p3543
sg21
(dp3544
g75
S'MEK 1'
p3545
ssg23
g77
sg25
(lp3546
sbasbag0
(g17
g2
Ntp3547
Rp3548
(dp3549
g21
(dp3550
g83
S'UP:P63086|UP:P28482|UP:P63085|HGNC:6871|UP:P46196|UP:Q54QB1|XFAM:PF00069'
p3551
sg35
S'601'
p3552
sg86
S':AFFECTED'
p3553
sg41
S'V490481'
p3554
sg31
S'596'
p3555
ssg23
g114
sg25
(lp3556
g0
(g17
g2
Ntp3557
Rp3558
(dp3559
g50
S'ONT::PROTEIN'
p3560
sg21
(dp3561
sg23
g53
sg25
(lp3562
sbag0
(g17
g2
Ntp3563
Rp3564
(dp3565
g50
S'ERK2'
p3566
sg21
(dp3567
g75
S'ERK 2'
p3568
ssg23
g77
sg25
(lp3569
sbasbag0
(g17
g2
Ntp3570
Rp3571
(dp3572
g21
(dp3573
g31
S'604'
p3574
sg35
S'621'
p3575
sg41
S'V490518'
p3576
ssg23
g736
sg25
(lp3577
g0
(g17
g2
Ntp3578
Rp3579
(dp3580
g50
S'ONT::MOLECULAR-SITE'
p3581
sg21
(dp3582
sg23
g53
sg25
(lp3583
sbag0
(g17
g2
Ntp3584
Rp3585
(dp3586
g50
S'Thr202 and Thr185'
p3587
sg21
(dp3588
g75
g453
ssg23
g77
sg25
(lp3589
sbasbag0
(g17
g2
Ntp3590
Rp3591
(dp3592
g50
S'Active MEK1 phosphorylates ERK2 at Thr202 and Thr185'
p3593
sg21
(dp3594
sg23
g77
sg25
(lp3595
sbasbag0
(g17
g2
Ntp3596
Rp3597
(dp3598
g21
(dp3599
g35
S'581'
p3600
sg37
S'(TERM ONT::V490464 ONT::PROTEIN :NAME W::MEK-1 :ACTIVE ONT::TRUE :DRUM ((:DRUM (TERM :ID UP::Q91447 :NAME "Dual specificity mitogen-activated protein kinase kinase 1" :MATCHED-VARIANTS ("MEK1") :DBXREFS (XFAM::PF00069)) (TERM :ID UP::Q05116 :NAME "Dual specificity mitogen-activated protein kinase kinase 1" :MATCHED-VARIANTS ("MEK1") :DBXREFS (XFAM::PF00069)))))'
p3601
sg83
S'UP:Q91447|UP:Q05116|XFAM:PF00069'
p3602
sg43
S'-SIMPLE-REF-MODACTIVE1'
p3603
sg31
S'569'
p3604
sg33
S'paragraph152'
p3605
sg39
S'347'
p3606
sg41
S'V490464'
p3607
ssg23
g147
sg25
(lp3608
g0
(g17
g2
Ntp3609
Rp3610
(dp3611
g50
S'ONT::PROTEIN'
p3612
sg21
(dp3613
sg23
g53
sg25
(lp3614
sbag0
(g17
g2
Ntp3615
Rp3616
(dp3617
g21
(dp3618
sg23
g861
sg25
(lp3619
g0
(g17
g2
Ntp3620
Rp3621
(dp3622
g50
S'TRUE'
p3623
sg21
(dp3624
sg23
g1533
sg25
(lp3625
sbasbag0
(g17
g2
Ntp3626
Rp3627
(dp3628
g50
S'MEK-1'
p3629
sg21
(dp3630
sg23
g160
sg25
(lp3631
sbag0
(g17
g2
Ntp3632
Rp3633
(dp3634
g50
S'Active MEK1'
p3635
sg21
(dp3636
sg23
g77
sg25
(lp3637
sbasbag0
(g17
g2
Ntp3638
Rp3639
(dp3640
g21
(dp3641
g31
S'604'
p3642
sg33
S'paragraph152'
p3643
sg35
S'621'
p3644
sg39
S'347'
p3645
sg41
S'V490518'
p3646
sg43
S'-LOGICALOP-REF'
p3647
ssg23
g147
sg25
(lp3648
g0
(g17
g2
Ntp3649
Rp3650
(dp3651
g50
S'ONT::MOLECULAR-SITE'
p3652
sg21
(dp3653
sg23
g53
sg25
(lp3654
sbag0
(g17
g2
Ntp3655
Rp3656
(dp3657
g21
(dp3658
g817
S'AND'
p3659
ssg23
g819
sg25
(lp3660
g0
(g17
g2
Ntp3661
Rp3662
(dp3663
g50
S'V490514'
p3664
sg21
(dp3665
sg23
g440
sg25
(lp3666
sbag0
(g17
g2
Ntp3667
Rp3668
(dp3669
g50
S'V490537'
p3670
sg21
(dp3671
sg23
g440
sg25
(lp3672
sbasbag0
(g17
g2
Ntp3673
Rp3674
(dp3675
g50
S'Thr202 and Thr185'
p3676
sg21
(dp3677
g75
g453
ssg23
g77
sg25
(lp3678
sbasbag0
(g17
g2
Ntp3679
Rp3680
(dp3681
g21
(dp3682
g31
S'615'
p3683
sg33
S'paragraph152'
p3684
sg35
S'621'
p3685
sg37
S'(TERM ONT::V490537 ONT::MOLECULAR-SITE :NAME W::THR-185 :DRUM ((:DRUM (AA-SITE :NAME "Threonine" :LETTER "T" :INDEX 185))))'
p3686
sg39
S'347'
p3687
sg41
S'V490537'
p3688
sg43
S'-SIMPLE-REF'
p3689
ssg23
g147
sg25
(lp3690
g0
(g17
g2
Ntp3691
Rp3692
(dp3693
g50
S'ONT::MOLECULAR-SITE'
p3694
sg21
(dp3695
sg23
g53
sg25
(lp3696
sbag0
(g17
g2
Ntp3697
Rp3698
(dp3699
g21
(dp3700
sg23
g861
sg25
(lp3701
g0
(g17
g2
Ntp3702
Rp3703
(dp3704
g21
(dp3705
sg23
g736
sg25
(lp3706
g0
(g17
g2
Ntp3707
Rp3708
(dp3709
g50
S'Threonine'
p3710
sg21
(dp3711
sg23
g160
sg25
(lp3712
sbag0
(g17
g2
Ntp3713
Rp3714
(dp3715
g50
S'T'
p3716
sg21
(dp3717
sg23
g879
sg25
(lp3718
sbag0
(g17
g2
Ntp3719
Rp3720
(dp3721
g50
S'185'
p3722
sg21
(dp3723
sg23
g886
sg25
(lp3724
sbasbasbag0
(g17
g2
Ntp3725
Rp3726
(dp3727
g50
S'THR-185'
p3728
sg21
(dp3729
sg23
g160
sg25
(lp3730
sbag0
(g17
g2
Ntp3731
Rp3732
(dp3733
g50
S'Thr185'
p3734
sg21
(dp3735
sg23
g77
sg25
(lp3736
sbasbag0
(g17
g2
Ntp3737
Rp3738
(dp3739
g21
(dp3740
g31
S'604'
p3741
sg33
S'paragraph152'
p3742
sg35
S'611'
p3743
sg37
S'(TERM ONT::V490514 ONT::MOLECULAR-SITE :NAME W::THR-202 :DRUM ((:DRUM (AA-SITE :NAME "Threonine" :LETTER "T" :INDEX 202))))'
p3744
sg39
S'347'
p3745
sg41
S'V490514'
p3746
sg43
S'-SIMPLE-REF'
p3747
ssg23
g147
sg25
(lp3748
g0
(g17
g2
Ntp3749
Rp3750
(dp3751
g50
S'ONT::MOLECULAR-SITE'
p3752
sg21
(dp3753
sg23
g53
sg25
(lp3754
sbag0
(g17
g2
Ntp3755
Rp3756
(dp3757
g21
(dp3758
sg23
g861
sg25
(lp3759
g0
(g17
g2
Ntp3760
Rp3761
(dp3762
g21
(dp3763
sg23
g736
sg25
(lp3764
g0
(g17
g2
Ntp3765
Rp3766
(dp3767
g50
S'Threonine'
p3768
sg21
(dp3769
sg23
g160
sg25
(lp3770
sbag0
(g17
g2
Ntp3771
Rp3772
(dp3773
g50
S'T'
p3774
sg21
(dp3775
sg23
g879
sg25
(lp3776
sbag0
(g17
g2
Ntp3777
Rp3778
(dp3779
g50
S'202'
p3780
sg21
(dp3781
sg23
g886
sg25
(lp3782
sbasbasbag0
(g17
g2
Ntp3783
Rp3784
(dp3785
g50
S'THR-202'
p3786
sg21
(dp3787
sg23
g160
sg25
(lp3788
sbag0
(g17
g2
Ntp3789
Rp3790
(dp3791
g50
S'Thr202'
p3792
sg21
(dp3793
sg23
g77
sg25
(lp3794
sbasbag0
(g17
g2
Ntp3795
Rp3796
(dp3797
g21
(dp3798
g35
S'601'
p3799
sg37
S'(TERM ONT::V490481 ONT::PROTEIN :NAME W::ERK-2 :DRUM ((:DRUM (TERM :ID UP::Q54QB1 :NAME "Extracellular signal-regulated kinase 2" :MATCHED-VARIANTS ("ERK2") :DBXREFS (XFAM::PF00069)) (TERM :ID UP::P46196 :NAME "Mitogen-activated protein kinase 1" :MATCHED-VARIANTS ("ERK2") :DBXREFS (XFAM::PF00069)) (TERM :ID UP::P28482 :NAME "Mitogen-activated protein kinase 1" :MATCHED-VARIANTS ("ERK2") :SPECIES "Homo sapiens (Human)" :DBXREFS (HGNC::|6871| XFAM::PF00069)) (TERM :ID UP::P63085 :NAME "Mitogen-activated protein kinase 1" :MATCHED-VARIANTS ("ERK2") :SPECIES "Mus musculus (Mouse)" :DBXREFS (XFAM::PF00069)) (TERM :ID UP::P63086 :NAME "Mitogen-activated protein kinase 1" :MATCHED-VARIANTS ("ERK2") :DBXREFS (XFAM::PF00069)))))'
p3800
sg83
S'UP:P63086|UP:P28482|UP:P63085|HGNC:6871|UP:P46196|UP:Q54QB1|XFAM:PF00069'
p3801
sg43
S'-SIMPLE-REF'
p3802
sg31
S'596'
p3803
sg33
S'paragraph152'
p3804
sg39
S'347'
p3805
sg41
S'V490481'
p3806
ssg23
g147
sg25
(lp3807
g0
(g17
g2
Ntp3808
Rp3809
(dp3810
g50
S'ONT::PROTEIN'
p3811
sg21
(dp3812
sg23
g53
sg25
(lp3813
sbag0
(g17
g2
Ntp3814
Rp3815
(dp3816
g50
S'ERK-2'
p3817
sg21
(dp3818
sg23
g160
sg25
(lp3819
sbag0
(g17
g2
Ntp3820
Rp3821
(dp3822
g50
S'ERK2'
p3823
sg21
(dp3824
sg23
g77
sg25
(lp3825
sbasbasbsS'belpy_stmts'
p3826
(lp3827
g0
(cbelpy.statements
Complex
p3828
g2
Ntp3829
Rp3830
(dp3831
S'bound'
p3832
(lp3833
NaNasS'members'
p3834
(lp3835
VEgfr
p3836
ag13
asbag0
(g3828
g2
Ntp3837
Rp3838
(dp3839
g3832
(lp3840
g13
ag13
asg3834
(lp3841
VEgfr
p3842
aVEgfr
p3843
asbag0
(g3828
g2
Ntp3844
Rp3845
(dp3846
g3832
(lp3847
NaNasg3834
(lp3848
VEgfr
p3849
ag9
asbag0
(g3828
g2
Ntp3850
Rp3851
(dp3852
g3832
(lp3853
g9
aNasg3834
(lp3854
VEgfr
p3855
ag1792
asbag0
(g3828
g2
Ntp3856
Rp3857
(dp3858
g3832
(lp3859
g1953
aNasg3834
(lp3860
g9
ag11
asbag0
(cbelpy.statements
Phosphorylation
p3861
g2
Ntp3862
Rp3863
(dp3864
S'mod_pos'
p3865
S'1068'
p3866
sS'sub_name'
p3867
VEgfr
p3868
sS'citation'
p3869
g453
sS'stmt'
p3870
g753
sS'evidence'
p3871
g753
sS'enz_name'
p3872
VEgfr
p3873
sS'enz_bound'
p3874
VEgfr
p3875
sS'annotations'
p3876
g453
sS'sub_bound'
p3877
NsS'mod'
p3878
S'PhosphorylationTyrosine'
p3879
sbag0
(g3861
g2
Ntp3880
Rp3881
(dp3882
g3865
S'1148'
p3883
sg3867
g3868
sg3869
g453
sg3870
g753
sg3871
g753
sg3872
g3873
sg3874
g3875
sg3876
g453
sg3877
Nsg3878
S'PhosphorylationTyrosine'
p3884
sbag0
(g3861
g2
Ntp3885
Rp3886
(dp3887
g3865
S'598'
p3888
sg3867
g11
sg3869
g453
sg3870
g2131
sg3871
g2131
sg3872
g9
sg3874
g11
sg3876
g453
sg3877
Nsg3878
S'PhosphorylationThreonine'
p3889
sbag0
(g3861
g2
Ntp3890
Rp3891
(dp3892
g3865
S'601'
p3893
sg3867
g11
sg3869
g453
sg3870
g2131
sg3871
g2131
sg3872
g9
sg3874
g11
sg3876
g453
sg3877
Nsg3878
S'PhosphorylationThreonine'
p3894
sbag0
(g3861
g2
Ntp3895
Rp3896
(dp3897
g3865
S'218'
p3898
sg3867
VMAP2K1
p3899
sg3869
g453
sg3870
g2892
sg3871
g2892
sg3872
g11
sg3874
Nsg3876
g453
sg3877
Nsg3878
S'PhosphorylationSerine'
p3900
sbag0
(g3861
g2
Ntp3901
Rp3902
(dp3903
g3865
S'222'
p3904
sg3867
g3899
sg3869
g453
sg3870
g2892
sg3871
g2892
sg3872
g11
sg3874
Nsg3876
g453
sg3877
Nsg3878
S'PhosphorylationSerine'
p3905
sbag0
(g3861
g2
Ntp3906
Rp3907
(dp3908
g3865
S'202'
p3909
sg3867
g15
sg3869
g453
sg3870
g3593
sg3871
g3593
sg3872
VMAP2K1
p3910
sg3874
Nsg3876
g453
sg3877
Nsg3878
S'PhosphorylationThreonine'
p3911
sbag0
(g3861
g2
Ntp3912
Rp3913
(dp3914
g3865
S'185'
p3915
sg3867
g15
sg3869
g453
sg3870
g3593
sg3871
g3593
sg3872
g3910
sg3874
Nsg3876
g453
sg3877
Nsg3878
S'PhosphorylationThreonine'
p3916
sbag0
(cbelpy.statements
ActivityModification
p3917
g2
Ntp3918
Rp3919
(dp3920
g3865
(lp3921
S'1068'
p3922
aS'1148'
p3923
asS'relationship'
p3924
S'DirectlyIncreases'
p3925
sg3869
g453
sg3870
g1204
sS'monomer_name'
p3926
VEgfr
p3927
sS'activity'
p3928
S'Active'
p3929
sg3871
g1204
sg3876
g453
sg3878
(lp3930
S'PhosphorylationTyrosine'
p3931
aS'PhosphorylationTyrosine'
p3932
asbag0
(g3917
g2
Ntp3933
Rp3934
(dp3935
g3865
(lp3936
S'598'
p3937
aS'601'
p3938
asg3924
g3925
sg3869
g453
sg3870
g2577
sg3926
g11
sg3928
g3929
sg3871
g2577
sg3876
g453
sg3878
(lp3939
S'PhosphorylationThreonine'
p3940
aS'PhosphorylationSerine'
p3941
asbag0
(g3917
g2
Ntp3942
Rp3943
(dp3944
g3865
(lp3945
S'218'
p3946
aS'222'
p3947
asg3924
g3925
sg3869
g453
sg3870
g3278
sg3926
VMAP2K1
p3948
sg3928
g3929
sg3871
g3278
sg3876
g453
sg3878
(lp3949
S'PhosphorylationSerine'
p3950
aS'PhosphorylationSerine'
p3951
asbasb.