ccopy_reg
_reconstructor
p0
(cpysb.core
Model
p1
c__builtin__
object
p2
Ntp3
Rp4
(dp5
S'reactions'
p6
(lp7
(dp8
S'reactants'
p9
(I3
I7
tp10
sS'products'
p11
(I13
tp12
sS'rate'
p13
csympy.core.mul
Mul
p14
(csympy.core.symbol
Symbol
p15
(S'__s3'
p16
tp17
Rp18
(dp19
S'_assumptions'
p20
g0
(csympy.core.assumptions
StdFactKB
p21
c__builtin__
dict
p22
(dp23
S'commutative'
p24
I01
stp25
Rp26
sbg15
(S'__s7'
p27
tp28
Rp29
(dp30
g20
g0
(g21
g22
(dp31
g24
I01
stp32
Rp33
sbg15
(S'kf_bh_bind_1'
p34
tp35
Rp36
(dp37
g20
g0
(g21
g22
(dp38
g24
I01
stp39
Rp40
sbtp41
Rp42
(dp43
bsS'rule'
p44
(S'BRAF_HRAS_bind'
p45
tp46
sS'reverse'
p47
(I00
tp48
sa(dp49
g9
(I3
I12
tp50
sg11
(I12
I14
tp51
sg13
g14
(g15
(S'__s12'
p52
tp53
Rp54
(dp55
g20
g0
(g21
g22
(dp56
g24
I01
stp57
Rp58
sbg18
g15
(S'kf_rh_act_1'
p59
tp60
Rp61
(dp62
g20
g0
(g21
g22
(dp63
g24
I01
stp64
Rp65
sbtp66
Rp67
(dp68
bsg44
(S'RASA3_Catalytic_activates_HRAS_GtpBound'
p69
tp70
sg47
(I00
tp71
sa(dp72
g9
(I5
I12
tp73
sg11
(I12
I15
tp74
sg13
g14
(g54
g15
(S'__s5'
p75
tp76
Rp77
(dp78
g20
g0
(g21
g22
(dp79
g24
I01
stp80
Rp81
sbg15
(S'kf_rk_act_2'
p82
tp83
Rp84
(dp85
g20
g0
(g21
g22
(dp86
g24
I01
stp87
Rp88
sbtp89
Rp90
(dp91
bsg44
(S'RASA3_Catalytic_activates_KRAS_GtpBound'
p92
tp93
sg47
(I00
tp94
sa(dp95
g9
(I4
I11
tp96
sg11
(I11
I16
tp97
sg13
g14
(g15
(S'__s11'
p98
tp99
Rp100
(dp101
g20
g0
(g21
g22
(dp102
g24
I01
stp103
Rp104
sbg15
(S'__s4'
p105
tp106
Rp107
(dp108
g20
g0
(g21
g22
(dp109
g24
I01
stp110
Rp111
sbg15
(S'kf_rn_act_2'
p112
tp113
Rp114
(dp115
g20
g0
(g21
g22
(dp116
g24
I01
stp117
Rp118
sbtp119
Rp120
(dp121
bsg44
(S'RASA2_Catalytic_activates_NRAS_GtpBound'
p122
tp123
sg47
(I00
tp124
sa(dp125
g9
(I0
I1
tp126
sg11
(I0
I17
tp127
sg13
g14
(g15
(S'__s0'
p128
tp129
Rp130
(dp131
g20
g0
(g21
g22
(dp132
g24
I01
stp133
Rp134
sbg15
(S'__s1'
p135
tp136
Rp137
(dp138
g20
g0
(g21
g22
(dp139
g24
I01
stp140
Rp141
sbg15
(S'kf_ee_act'
p142
tp143
Rp144
(dp145
g20
g0
(g21
g22
(dp146
g24
I01
stp147
Rp148
sbtp149
Rp150
(dp151
bsg44
(S'EGF_activates_EGFR'
p152
tp153
sg47
(I00
tp154
sa(dp155
g9
(I7
I14
tp156
sg11
(I18
tp157
sg13
g14
(g15
(S'__s14'
p158
tp159
Rp160
(dp161
g20
g0
(g21
g22
(dp162
g24
I01
stp163
Rp164
sbg29
g36
tp165
Rp166
(dp167
bsg44
(S'BRAF_HRAS_bind'
p168
tp169
sg47
(I00
tp170
sa(dp171
g9
(I13
tp172
sg11
(I3
I7
tp173
sg13
g14
(g15
(S'__s13'
p174
tp175
Rp176
(dp177
g20
g0
(g21
g22
(dp178
S'positive'
p179
NsS'zero'
p180
Nsg24
I01
sS'negative'
p181
Nstp182
Rp183
sbg15
(S'kr_bh_bind_1'
p184
tp185
Rp186
(dp187
g20
g0
(g21
g22
(dp188
g24
I01
stp189
Rp190
sbtp191
Rp192
(dp193
bsg44
(S'BRAF_HRAS_bind'
p194
tp195
sg47
(I01
tp196
sa(dp197
g9
(I7
I16
tp198
sg11
(I16
I19
tp199
sg13
g14
(g15
(S'__s16'
p200
tp201
Rp202
(dp203
g20
g0
(g21
g22
(dp204
g24
I01
stp205
Rp206
sbg29
g15
(S'kf_nb_act_1'
p207
tp208
Rp209
(dp210
g20
g0
(g21
g22
(dp211
g24
I01
stp212
Rp213
sbtp214
Rp215
(dp216
bsg44
(S'NRAS_GtpBound_activates_BRAF_Kinase'
p217
tp218
sg47
(I00
tp219
sa(dp220
g9
(I13
I16
tp221
sg11
(I16
I20
tp222
sg13
g14
(g176
g202
g209
tp223
Rp224
(dp225
bsg44
(S'NRAS_GtpBound_activates_BRAF_Kinase'
p226
tp227
sg47
(I00
tp228
sa(dp229
g9
(I7
I14
tp230
sg11
(I14
I19
tp231
sg13
g14
(g160
g29
g15
(S'kf_hb_act_1'
p232
tp233
Rp234
(dp235
g20
g0
(g21
g22
(dp236
g24
I01
stp237
Rp238
sbtp239
Rp240
(dp241
bsg44
(S'HRAS_GtpBound_activates_BRAF_Kinase'
p242
tp243
sg47
(I00
tp244
sa(dp245
g9
(I13
I14
tp246
sg11
(I14
I20
tp247
sg13
g14
(g176
g160
g234
tp248
Rp249
(dp250
bsg44
(S'HRAS_GtpBound_activates_BRAF_Kinase'
p251
tp252
sg47
(I00
tp253
sa(dp254
g9
(I2
I17
tp255
sg11
(I17
I21
tp256
sg13
g14
(g15
(S'__s17'
p257
tp258
Rp259
(dp260
g20
g0
(g21
g22
(dp261
g24
I01
stp262
Rp263
sbg15
(S'__s2'
p264
tp265
Rp266
(dp267
g20
g0
(g21
g22
(dp268
g24
I01
stp269
Rp270
sbg15
(S'kf_es_act_1'
p271
tp272
Rp273
(dp274
g20
g0
(g21
g22
(dp275
g24
I01
stp276
Rp277
sbtp278
Rp279
(dp280
bsg44
(S'EGFR_Kinase_activates_SOS1_Catalytic'
p281
tp282
sg47
(I00
tp283
sa(dp284
g9
(I8
I14
tp285
sg11
(I14
I22
tp286
sg13
g14
(g160
g15
(S'__s8'
p287
tp288
Rp289
(dp290
g20
g0
(g21
g22
(dp291
g24
I01
stp292
Rp293
sbg15
(S'kf_hr_act_1'
p294
tp295
Rp296
(dp297
g20
g0
(g21
g22
(dp298
g24
I01
stp299
Rp300
sbtp301
Rp302
(dp303
bsg44
(S'HRAS_GtpBound_activates_RAF1_Kinase'
p304
tp305
sg47
(I00
tp306
sa(dp307
g9
(I6
I14
tp308
sg11
(I14
I23
tp309
sg13
g14
(g160
g15
(S'__s6'
p310
tp311
Rp312
(dp313
g20
g0
(g21
g22
(dp314
g24
I01
stp315
Rp316
sbg15
(S'kf_ha_act_1'
p317
tp318
Rp319
(dp320
g20
g0
(g21
g22
(dp321
g24
I01
stp322
Rp323
sbtp324
Rp325
(dp326
bsg44
(S'HRAS_GtpBound_activates_ARAF_Kinase'
p327
tp328
sg47
(I00
tp329
sa(dp330
g9
(I12
I13
tp331
sg11
(I12
I18
tp332
sg13
g14
(g54
g176
g61
tp333
Rp334
(dp335
bsg44
(S'RASA3_Catalytic_activates_HRAS_GtpBound'
p336
tp337
sg47
(I00
tp338
sa(dp339
g9
(I8
I15
tp340
sg11
(I15
I22
tp341
sg13
g14
(g15
(S'__s15'
p342
tp343
Rp344
(dp345
g20
g0
(g21
g22
(dp346
g24
I01
stp347
Rp348
sbg289
g15
(S'kf_kr_act_1'
p349
tp350
Rp351
(dp352
g20
g0
(g21
g22
(dp353
g24
I01
stp354
Rp355
sbtp356
Rp357
(dp358
bsg44
(S'KRAS_GtpBound_activates_RAF1_Kinase'
p359
tp360
sg47
(I00
tp361
sa(dp362
g9
(I7
I15
tp363
sg11
(I15
I19
tp364
sg13
g14
(g344
g29
g15
(S'kf_kb_act_1'
p365
tp366
Rp367
(dp368
g20
g0
(g21
g22
(dp369
g24
I01
stp370
Rp371
sbtp372
Rp373
(dp374
bsg44
(S'KRAS_GtpBound_activates_BRAF_Kinase'
p375
tp376
sg47
(I00
tp377
sa(dp378
g9
(I13
I15
tp379
sg11
(I15
I20
tp380
sg13
g14
(g176
g344
g367
tp381
Rp382
(dp383
bsg44
(S'KRAS_GtpBound_activates_BRAF_Kinase'
p384
tp385
sg47
(I00
tp386
sa(dp387
g9
(I6
I15
tp388
sg11
(I15
I23
tp389
sg13
g14
(g344
g312
g15
(S'kf_ka_act_1'
p390
tp391
Rp392
(dp393
g20
g0
(g21
g22
(dp394
g24
I01
stp395
Rp396
sbtp397
Rp398
(dp399
bsg44
(S'KRAS_GtpBound_activates_ARAF_Kinase'
p400
tp401
sg47
(I00
tp402
sa(dp403
g9
(I6
I16
tp404
sg11
(I16
I23
tp405
sg13
g14
(g202
g312
g15
(S'kf_na_act_1'
p406
tp407
Rp408
(dp409
g20
g0
(g21
g22
(dp410
g24
I01
stp411
Rp412
sbtp413
Rp414
(dp415
bsg44
(S'NRAS_GtpBound_activates_ARAF_Kinase'
p416
tp417
sg47
(I00
tp418
sa(dp419
g9
(I3
I19
tp420
sg11
(I20
tp421
sg13
g14
(g15
(S'__s19'
p422
tp423
Rp424
(dp425
g20
g0
(g21
g22
(dp426
g24
I01
stp427
Rp428
sbg18
g36
tp429
Rp430
(dp431
bsg44
(S'BRAF_HRAS_bind'
p432
tp433
sg47
(I00
tp434
sa(dp435
g9
(I14
I19
tp436
sg11
(I24
tp437
sg13
g14
(g160
g424
g36
tp438
Rp439
(dp440
bsg44
(S'BRAF_HRAS_bind'
p441
tp442
sg47
(I00
tp443
sa(dp444
g9
(I18
tp445
sg11
(I7
I14
tp446
sg13
g14
(g15
(S'__s18'
p447
tp448
Rp449
(dp450
g20
g0
(g21
g22
(dp451
g179
Nsg180
Nsg24
I01
sg181
Nstp452
Rp453
sbg186
tp454
Rp455
(dp456
bsg44
(S'BRAF_HRAS_bind'
p457
tp458
sg47
(I01
tp459
sa(dp460
g9
(I20
tp461
sg11
(I3
I19
tp462
sg13
g14
(g15
(S'__s20'
p463
tp464
Rp465
(dp466
g20
g0
(g21
g22
(dp467
g179
Nsg180
Nsg24
I01
sg181
Nstp468
Rp469
sbg186
tp470
Rp471
(dp472
bsg44
(S'BRAF_HRAS_bind'
p473
tp474
sg47
(I01
tp475
sa(dp476
g9
(I4
I21
tp477
sg11
(I16
I21
tp478
sg13
g14
(g15
(S'__s21'
p479
tp480
Rp481
(dp482
g20
g0
(g21
g22
(dp483
g24
I01
stp484
Rp485
sbg107
g15
(S'kf_sn_act_1'
p486
tp487
Rp488
(dp489
g20
g0
(g21
g22
(dp490
g24
I01
stp491
Rp492
sbtp493
Rp494
(dp495
bsg44
(S'SOS1_Catalytic_activates_NRAS_GtpBound'
p496
tp497
sg47
(I00
tp498
sa(dp499
g9
(I16
I18
tp500
sg11
(I16
I24
tp501
sg13
g14
(g202
g449
g209
tp502
Rp503
(dp504
bsg44
(S'NRAS_GtpBound_activates_BRAF_Kinase'
p505
tp506
sg47
(I00
tp507
sa(dp508
g9
(I14
I18
tp509
sg11
(I14
I24
tp510
sg13
g14
(g160
g449
g234
tp511
Rp512
(dp513
bsg44
(S'HRAS_GtpBound_activates_BRAF_Kinase'
p514
tp515
sg47
(I00
tp516
sa(dp517
g9
(I7
I18
tp518
sg11
(I18
I19
tp519
sg13
g14
(g449
g29
g234
tp520
Rp521
(dp522
bsg44
(S'HRAS_GtpBound_activates_BRAF_Kinase'
p523
tp524
sg47
(I00
tp525
sa(dp526
g9
(I13
I18
tp527
sg11
(I18
I20
tp528
sg13
g14
(g176
g449
g234
tp529
Rp530
(dp531
bsg44
(S'HRAS_GtpBound_activates_BRAF_Kinase'
p532
tp533
sg47
(I00
tp534
sa(dp535
g9
(I18
I18
tp536
sg11
(I18
I24
tp537
sg13
g14
(g234
csympy.core.power
Pow
p538
(g449
csympy.core.numbers
Integer
p539
(I2
tp540
Rp541
(dp542
btp543
Rp544
(dp545
btp546
Rp547
(dp548
bsg44
(S'HRAS_GtpBound_activates_BRAF_Kinase'
p549
tp550
sg47
(I00
tp551
sa(dp552
g9
(I8
I18
tp553
sg11
(I18
I22
tp554
sg13
g14
(g449
g289
g296
tp555
Rp556
(dp557
bsg44
(S'HRAS_GtpBound_activates_RAF1_Kinase'
p558
tp559
sg47
(I00
tp560
sa(dp561
g9
(I5
I21
tp562
sg11
(I15
I21
tp563
sg13
g14
(g481
g77
g15
(S'kf_sk_act_1'
p564
tp565
Rp566
(dp567
g20
g0
(g21
g22
(dp568
g24
I01
stp569
Rp570
sbtp571
Rp572
(dp573
bsg44
(S'SOS1_Catalytic_activates_KRAS_GtpBound'
p574
tp575
sg47
(I00
tp576
sa(dp577
g9
(I6
I18
tp578
sg11
(I18
I23
tp579
sg13
g14
(g449
g312
g319
tp580
Rp581
(dp582
bsg44
(S'HRAS_GtpBound_activates_ARAF_Kinase'
p583
tp584
sg47
(I00
tp585
sa(dp586
g9
(I12
I20
tp587
sg11
(I12
I24
tp588
sg13
g14
(g54
g465
g61
tp589
Rp590
(dp591
bsg44
(S'RASA3_Catalytic_activates_HRAS_GtpBound'
p592
tp593
sg47
(I00
tp594
sa(dp595
g9
(I9
I23
tp596
sg11
(I23
I25
tp597
sg13
g14
(g15
(S'__s23'
p598
tp599
Rp600
(dp601
g20
g0
(g21
g22
(dp602
g24
I01
stp603
Rp604
sbg15
(S'__s9'
p605
tp606
Rp607
(dp608
g20
g0
(g21
g22
(dp609
g24
I01
stp610
Rp611
sbg15
(S'kf_am_act_1'
p612
tp613
Rp614
(dp615
g20
g0
(g21
g22
(dp616
g24
I01
stp617
Rp618
sbtp619
Rp620
(dp621
bsg44
(S'ARAF_Kinase_activates_MAP2K1_Kinase'
p622
tp623
sg47
(I00
tp624
sa(dp625
g9
(I3
I21
tp626
sg11
(I14
I21
tp627
sg13
g14
(g481
g18
g15
(S'kf_sh_act_1'
p628
tp629
Rp630
(dp631
g20
g0
(g21
g22
(dp632
g24
I01
stp633
Rp634
sbtp635
Rp636
(dp637
bsg44
(S'SOS1_Catalytic_activates_HRAS_GtpBound'
p638
tp639
sg47
(I00
tp640
sa(dp641
g9
(I13
I21
tp642
sg11
(I18
I21
tp643
sg13
g14
(g176
g481
g630
tp644
Rp645
(dp646
bsg44
(S'SOS1_Catalytic_activates_HRAS_GtpBound'
p647
tp648
sg47
(I00
tp649
sa(dp650
g9
(I20
I21
tp651
sg11
(I21
I24
tp652
sg13
g14
(g465
g481
g630
tp653
Rp654
(dp655
bsg44
(S'SOS1_Catalytic_activates_HRAS_GtpBound'
p656
tp657
sg47
(I00
tp658
sa(dp659
g9
(I9
I19
tp660
sg11
(I19
I25
tp661
sg13
g14
(g424
g607
g15
(S'kf_bm_act_1'
p662
tp663
Rp664
(dp665
g20
g0
(g21
g22
(dp666
g24
I01
stp667
Rp668
sbtp669
Rp670
(dp671
bsg44
(S'BRAF_Kinase_activates_MAP2K1_Kinase'
p672
tp673
sg47
(I00
tp674
sa(dp675
g9
(I9
I20
tp676
sg11
(I20
I25
tp677
sg13
g14
(g465
g607
g664
tp678
Rp679
(dp680
bsg44
(S'BRAF_Kinase_activates_MAP2K1_Kinase'
p681
tp682
sg47
(I00
tp683
sa(dp684
g9
(I15
I18
tp685
sg11
(I15
I24
tp686
sg13
g14
(g344
g449
g367
tp687
Rp688
(dp689
bsg44
(S'KRAS_GtpBound_activates_BRAF_Kinase'
p690
tp691
sg47
(I00
tp692
sa(dp693
g9
(I9
I22
tp694
sg11
(I22
I25
tp695
sg13
g14
(g15
(S'__s22'
p696
tp697
Rp698
(dp699
g20
g0
(g21
g22
(dp700
g24
I01
stp701
Rp702
sbg607
g15
(S'kf_rm_act_1'
p703
tp704
Rp705
(dp706
g20
g0
(g21
g22
(dp707
g24
I01
stp708
Rp709
sbtp710
Rp711
(dp712
bsg44
(S'RAF1_Kinase_activates_MAP2K1_Kinase'
p713
tp714
sg47
(I00
tp715
sa(dp716
g9
(I24
tp717
sg11
(I14
I19
tp718
sg13
g14
(g15
(S'__s24'
p719
tp720
Rp721
(dp722
g20
g0
(g21
g22
(dp723
g179
Nsg180
Nsg24
I01
sg181
Nstp724
Rp725
sbg186
tp726
Rp727
(dp728
bsg44
(S'BRAF_HRAS_bind'
p729
tp730
sg47
(I01
tp731
sa(dp732
g9
(I7
I24
tp733
sg11
(I19
I24
tp734
sg13
g14
(g721
g29
g234
tp735
Rp736
(dp737
bsg44
(S'HRAS_GtpBound_activates_BRAF_Kinase'
p738
tp739
sg47
(I00
tp740
sa(dp741
g9
(I13
I24
tp742
sg11
(I20
I24
tp743
sg13
g14
(g176
g721
g234
tp744
Rp745
(dp746
bsg44
(S'HRAS_GtpBound_activates_BRAF_Kinase'
p747
tp748
sg47
(I00
tp749
sa(dp750
g9
(I18
I24
tp751
sg11
(I24
I24
tp752
sg13
g14
(g449
g721
g234
tp753
Rp754
(dp755
bsg44
(S'HRAS_GtpBound_activates_BRAF_Kinase'
p756
tp757
sg47
(I00
tp758
sa(dp759
g9
(I8
I24
tp760
sg11
(I22
I24
tp761
sg13
g14
(g721
g289
g296
tp762
Rp763
(dp764
bsg44
(S'HRAS_GtpBound_activates_RAF1_Kinase'
p765
tp766
sg47
(I00
tp767
sa(dp768
g9
(I6
I24
tp769
sg11
(I23
I24
tp770
sg13
g14
(g721
g312
g319
tp771
Rp772
(dp773
bsg44
(S'HRAS_GtpBound_activates_ARAF_Kinase'
p774
tp775
sg47
(I00
tp776
sa(dp777
g9
(I9
I24
tp778
sg11
(I24
I25
tp779
sg13
g14
(g721
g607
g664
tp780
Rp781
(dp782
bsg44
(S'BRAF_Kinase_activates_MAP2K1_Kinase'
p783
tp784
sg47
(I00
tp785
sa(dp786
g9
(I10
I25
tp787
sg11
(I25
I26
tp788
sg13
g14
(g15
(S'__s10'
p789
tp790
Rp791
(dp792
g20
g0
(g21
g22
(dp793
g24
I01
stp794
Rp795
sbg15
(S'__s25'
p796
tp797
Rp798
(dp799
g20
g0
(g21
g22
(dp800
g24
I01
stp801
Rp802
sbg15
(S'kf_mm_act_3'
p803
tp804
Rp805
(dp806
g20
g0
(g21
g22
(dp807
g24
I01
stp808
Rp809
sbtp810
Rp811
(dp812
bsg44
(S'MAP2K1_Kinase_activates_MAPK1_Kinase'
p813
tp814
sg47
(I00
tp815
sasS'initial_conditions'
p816
(lp817
(g0
(cpysb.core
ComplexPattern
p818
g2
Ntp819
Rp820
(dp821
S'compartment'
p822
NsS'monomer_patterns'
p823
(lp824
g0
(cpysb.core
MonomerPattern
p825
g2
Ntp826
Rp827
(dp828
g822
NsS'monomer'
p829
g0
(cpysb.core
Monomer
p830
g2
Ntp831
Rp832
(dp833
S'site_states'
p834
(dp835
sS'name'
p836
S'EGF'
p837
sS'_export'
p838
I00
sS'sites'
p839
(lp840
sbsS'site_conditions'
p841
(dp842
sbasS'match_once'
p843
I00
sbcpysb.core
Parameter
p844
(S'EGF_0'
p845
F10000.0
I00
tp846
Rp847
(dp848
g838
I00
sS'value'
p849
F10000.0
sbtp850
a(g0
(g818
g2
Ntp851
Rp852
(dp853
g822
Nsg823
(lp854
g0
(g825
g2
Ntp855
Rp856
(dp857
g822
Nsg829
g0
(g830
g2
Ntp858
Rp859
(dp860
g834
(dp861
S'Kinase'
p862
(lp863
S'inactive'
p864
aS'active'
p865
assg836
S'EGFR'
p866
sg838
I00
sg839
(lp867
S'ERBB2'
p868
ag862
asbsg841
(dp869
g868
Nsg862
g864
ssbasg843
I00
sbg844
(S'EGFR_0'
p870
F70000.0
I00
tp871
Rp872
(dp873
g838
I00
sg849
F70000.0
sbtp874
a(g0
(g818
g2
Ntp875
Rp876
(dp877
g822
Nsg823
(lp878
g0
(g825
g2
Ntp879
Rp880
(dp881
g822
Nsg829
g0
(g830
g2
Ntp882
Rp883
(dp884
g834
(dp885
S'Catalytic'
p886
(lp887
g864
ag865
assg836
S'SOS1'
p888
sg838
I00
sg839
(lp889
S'GRB2'
p890
ag886
asbsg841
(dp891
g890
Nsg886
g864
ssbasg843
I00
sbg844
(S'SOS_0'
p892
F5000000.0
I00
tp893
Rp894
(dp895
g838
I00
sg849
F5000000.0
sbtp896
a(g0
(g818
g2
Ntp897
Rp898
(dp899
g822
Nsg823
(lp900
g0
(g825
g2
Ntp901
Rp902
(dp903
g822
Nsg829
g0
(g830
g2
Ntp904
Rp905
(dp906
g834
(dp907
S'GtpBound'
p908
(lp909
g864
ag865
assg836
S'HRAS'
p910
sg838
I00
sg839
(lp911
S'BRAF'
p912
aS'BCL2'
p913
ag908
asbsg841
(dp914
g913
Nsg912
Nsg908
g864
ssbasg843
I00
sbg844
(S'RAS_0'
p915
F58000.0
I00
tp916
Rp917
(dp918
g838
I00
sg849
F58000.0
sbtp919
a(g0
(g818
g2
Ntp920
Rp921
(dp922
g822
Nsg823
(lp923
g0
(g825
g2
Ntp924
Rp925
(dp926
g822
Nsg829
g0
(g830
g2
Ntp927
Rp928
(dp929
g834
(dp930
S'GtpBound'
p931
(lp932
S'inactive'
p933
aS'active'
p934
assg836
S'NRAS'
p935
sg838
I00
sg839
(lp936
g931
asbsg841
(dp937
g931
g933
ssbasg843
I00
sbg917
tp938
a(g0
(g818
g2
Ntp939
Rp940
(dp941
g822
Nsg823
(lp942
g0
(g825
g2
Ntp943
Rp944
(dp945
g822
Nsg829
g0
(g830
g2
Ntp946
Rp947
(dp948
g834
(dp949
S'GtpBound'
p950
(lp951
g933
ag934
assg836
S'KRAS'
p952
sg838
I00
sg839
(lp953
g950
asbsg841
(dp954
g950
g933
ssbasg843
I00
sbg917
tp955
a(g0
(g818
g2
Ntp956
Rp957
(dp958
g822
Nsg823
(lp959
g0
(g825
g2
Ntp960
Rp961
(dp962
g822
Nsg829
g0
(g830
g2
Ntp963
Rp964
(dp965
g834
(dp966
S'Kinase'
p967
(lp968
g933
ag934
assg836
S'ARAF'
p969
sg838
I00
sg839
(lp970
g967
asbsg841
(dp971
g967
g933
ssbasg843
I00
sbg844
(S'RAF_0'
p972
F40000.0
I00
tp973
Rp974
(dp975
g838
I00
sg849
F40000.0
sbtp976
a(g0
(g818
g2
Ntp977
Rp978
(dp979
g822
Nsg823
(lp980
g0
(g825
g2
Ntp981
Rp982
(dp983
g822
Nsg829
g0
(g830
g2
Ntp984
Rp985
(dp986
g834
(dp987
S'Kinase'
p988
(lp989
g933
ag934
assg836
g912
sg838
I00
sg839
(lp990
g910
aS'RPS6KB2'
p991
aS'PRKCE'
p992
ag988
asbsg841
(dp993
g910
Nsg992
Nsg988
g933
sg991
Nssbasg843
I00
sbg974
tp994
a(g0
(g818
g2
Ntp995
Rp996
(dp997
g822
Nsg823
(lp998
g0
(g825
g2
Ntp999
Rp1000
(dp1001
g822
Nsg829
g0
(g830
g2
Ntp1002
Rp1003
(dp1004
g834
(dp1005
S'Y340'
p1006
(lp1007
S'u'
p1008
aS'p'
p1009
asS'Y341'
p1010
(lp1011
g1008
ag1009
asS'S259'
p1012
(lp1013
g1008
ag1009
asS'S499'
p1014
(lp1015
g1008
ag1009
asS'Kinase'
p1016
(lp1017
g933
ag934
asS'S43'
p1018
(lp1019
g1008
ag1009
asS'S339'
p1020
(lp1021
g1008
ag1009
assg836
S'RAF1'
p1022
sg838
I00
sg839
(lp1023
S'PAK2'
p1024
aS'PRKCZ'
p1025
aS'YWHAB'
p1026
aS'CFLAR'
p1027
aS'KRT8'
p1028
aS'KRT18'
p1029
aS'RB1'
p1030
aS'P3579'
p1031
aS'ARRB2'
p1032
aS'MAPK1'
p1033
aS'YWHAQ'
p1034
aS'PEBP1'
p1035
ag1014
ag1010
ag1006
ag1018
ag1012
ag1020
ag1016
asbsg841
(dp1036
g1012
g1008
sg1010
g1008
sg1016
g933
sg1025
Nsg1032
Nsg1018
g1008
sg1028
Nsg1006
g1008
sg1035
Nsg1014
g1008
sg1034
Nsg1030
Nsg1027
Nsg1033
Nsg1031
Nsg1026
Nsg1020
g1008
sg1024
Nsg1029
Nssbasg843
I00
sbg974
tp1037
a(g0
(g818
g2
Ntp1038
Rp1039
(dp1040
g822
Nsg823
(lp1041
g0
(g825
g2
Ntp1042
Rp1043
(dp1044
g822
Nsg829
g0
(g830
g2
Ntp1045
Rp1046
(dp1047
g834
(dp1048
S'S'
p1049
(lp1050
g1008
ag1009
asS'T25'
p1051
(lp1052
g1008
ag1009
asS'Kinase'
p1053
(lp1054
g933
ag934
assg836
S'MAP2K1'
p1055
sg838
I00
sg839
(lp1056
S'GIT1'
p1057
ag1051
ag1049
ag1053
asbsg841
(dp1058
g1049
g1008
sg1051
g1008
sg1057
Nsg1053
g933
ssbasg843
I00
sbg844
(S'MAP2K1_0'
p1059
F3020000.0
I00
tp1060
Rp1061
(dp1062
g838
I00
sg849
F3020000.0
sbtp1063
a(g0
(g818
g2
Ntp1064
Rp1065
(dp1066
g822
Nsg823
(lp1067
g0
(g825
g2
Ntp1068
Rp1069
(dp1070
g822
Nsg829
g0
(g830
g2
Ntp1071
Rp1072
(dp1073
g834
(dp1074
S'Y'
p1075
(lp1076
g1008
ag1009
asS'Y187'
p1077
(lp1078
g1008
ag1009
asS'T185'
p1079
(lp1080
g1008
ag1009
asS'Kinase'
p1081
(lp1082
g933
ag934
assg836
g1033
sg838
I00
sg839
(lp1083
S'RAF1'
p1084
ag1031
ag1032
ag1077
ag1079
ag1075
ag1081
asbsg841
(dp1085
g1077
g1008
sg1032
Nsg1031
Nsg1075
g1008
sg1084
Nsg1079
g1008
sg1081
g933
ssbasg843
I00
sbg844
(S'MAPK1_0'
p1086
F695000.0
I00
tp1087
Rp1088
(dp1089
g838
I00
sg849
F695000.0
sbtp1090
a(g0
(g818
g2
Ntp1091
Rp1092
(dp1093
g822
Nsg823
(lp1094
g0
(g825
g2
Ntp1095
Rp1096
(dp1097
g822
Nsg829
g0
(g830
g2
Ntp1098
Rp1099
(dp1100
g834
(dp1101
S'Catalytic'
p1102
(lp1103
g864
ag865
assg836
S'RASA2'
p1104
sg838
I00
sg839
(lp1105
g1102
asbsg841
(dp1106
S'Catalytic'
p1107
S'active'
p1108
ssbasg843
I00
sbg844
(S'init_default'
p1109
F10000.0
I00
tp1110
Rp1111
(dp1112
g838
I00
sg849
F10000.0
sbtp1113
a(g0
(g818
g2
Ntp1114
Rp1115
(dp1116
g822
Nsg823
(lp1117
g0
(g825
g2
Ntp1118
Rp1119
(dp1120
g822
Nsg829
g0
(g830
g2
Ntp1121
Rp1122
(dp1123
g834
(dp1124
S'Catalytic'
p1125
(lp1126
g864
ag865
assg836
S'RASA3'
p1127
sg838
I00
sg839
(lp1128
g1125
asbsg841
(dp1129
g1107
g1108
ssbasg843
I00
sbg1111
tp1130
asg836
NsS'parameters'
p1131
g0
(cpysb.core
ComponentSet
p1132
g2
Ntp1133
Rp1134
(dp1135
S'_index_map'
p1136
(dp1137
S'kf_bh_bind_1'
p1138
I2
sS'kr_mg_bind_1'
p1139
I39
sg892
I92
sS'kr_lv_bind_1'
p1140
I25
sS'AKT_0'
p1141
I97
sS'kf_pry_bind_1'
p1142
I12
sS'kf_pry_bind_2'
p1143
I26
sS'kf_bm_act_1'
p1144
I77
sS'kf_rn_act_1'
p1145
I69
sS'kf_rn_act_2'
p1146
I85
sS'kr_bh_bind_1'
p1147
I3
sS'kf_ha_act_1'
p1148
I71
sS'kf_rk_act_1'
p1149
I74
sS'kf_rk_act_2'
p1150
I80
sS'kf_mm_act_3'
p1151
I84
sS'kf_mm_act_2'
p1152
I82
sS'kf_mm_act_1'
p1153
I68
sg1059
I95
sS'kf_mg_bind_1'
p1154
I38
sS'kf_sk_act_1'
p1155
I70
sS'kf_ge_bind_1'
p1156
I52
sS'kf_cc_bind_1'
p1157
I44
sS'kr_ii_bind_3'
p1158
I35
sS'kf_sh_act_1'
p1159
I76
sS'kr_ii_bind_1'
p1160
I7
sg915
I93
sS'kf_ga_bind_1'
p1161
I48
sS'kf_dk_act_1'
p1162
I78
sS'kr_rpam_bind_1'
p1163
I23
sS'kf_jr_phos_1'
p1164
I55
sS'kf_na_act_1'
p1165
I86
sS'kf_hb_act_1'
p1166
I64
sS'kf_pm_phos_1'
p1167
I58
sS'kf_ckrk_bind_1'
p1168
I14
sg870
I91
sS'kr_rp_bind_2'
p1169
I31
sS'kr_rp_bind_1'
p1170
I1
sS'kf_kr_act_1'
p1171
I75
sS'kf_rr_bind_1'
p1172
I20
sS'kr_ckrk_bind_1'
p1173
I15
sS'kr_mc_bind_1'
p1174
I43
sS'kr_ii_bind_2'
p1175
I11
sS'kr_gs_bind_1'
p1176
I47
sS'kf_ee_bind_2'
p1177
I50
sS'kf_ee_bind_1'
p1178
I32
sS'kr_rpb_bind_1'
p1179
I17
sS'kf_lv_bind_1'
p1180
I24
sS'kr_ga_bind_1'
p1181
I49
sS'kf_am_act_1'
p1182
I73
sS'kr_hb_bind_1'
p1183
I41
sS'kr_mh_bind_1'
p1184
I9
sS'kf_kb_act_1'
p1185
I79
sS'kf_ii_bind_3'
p1186
I34
sS'kf_ii_bind_2'
p1187
I10
sS'kf_ii_bind_1'
p1188
I6
sS'kf_pr_phos_1'
p1189
I54
sS'kf_pr_phos_2'
p1190
I57
sS'kr_rr_bind_1'
p1191
I21
sS'kr_pry_bind_1'
p1192
I13
sS'kf_rm_phos_1'
p1193
I60
sS'kr_kk_bind_1'
p1194
I37
sS'kr_pry_bind_2'
p1195
I27
sS'kr_sl_bind_1'
p1196
I5
sS'kf_rp_bind_2'
p1197
I30
sS'kf_rp_bind_1'
p1198
I0
sS'kf_gs_bind_1'
p1199
I46
sS'kf_rpam_bind_1'
p1200
I22
sS'kf_nb_act_1'
p1201
I63
sS'kf_rpb_bind_1'
p1202
I16
sg142
I88
sS'kf_gd_bind_1'
p1203
I28
sS'kr_cc_bind_1'
p1204
I45
sS'kf_es_act_1'
p1205
I66
sS'kf_sl_bind_1'
p1206
I4
sg1086
I96
sS'kf_mc_bind_1'
p1207
I42
sS'kf_kr_bind_1'
p1208
I18
sS'kf_ar_phos_1'
p1209
I59
sS'kf_dm_dephos_1'
p1210
I61
sS'kf_kk_bind_1'
p1211
I36
sS'kf_sr_phos_1'
p1212
I56
sS'kr_ge_bind_1'
p1213
I53
sS'kf_ka_act_1'
p1214
I83
sS'kr_gd_bind_1'
p1215
I29
sS'kf_rm_act_2'
p1216
I87
sS'kf_rm_act_1'
p1217
I81
sS'kf_mh_bind_1'
p1218
I8
sS'kr_ee_bind_2'
p1219
I51
sS'kr_ee_bind_1'
p1220
I33
sS'kf_hr_act_1'
p1221
I67
sS'kf_rh_act_1'
p1222
I72
sg972
I94
sS'kf_hb_bind_1'
p1223
I40
sS'kr_kr_bind_1'
p1224
I19
sg1109
I89
sg845
I90
sS'kf_sn_act_2'
p1225
I65
sS'kf_sn_act_1'
p1226
I62
ssS'_elements'
p1227
(lp1228
g844
(g1198
F1e-06
I00
tp1229
Rp1230
(dp1231
g838
I00
sg849
F1e-06
sbag844
(g1170
F1e-06
I00
tp1232
Rp1233
(dp1234
g838
I00
sg849
F1e-06
sbag844
(g1138
F1e-06
I00
tp1235
Rp1236
(dp1237
g838
I00
sg849
F1e-06
sbag844
(g1147
F1e-06
I00
tp1238
Rp1239
(dp1240
g838
I00
sg849
F1e-06
sbag844
(g1206
F1e-06
I00
tp1241
Rp1242
(dp1243
g838
I00
sg849
F1e-06
sbag844
(g1196
F1e-06
I00
tp1244
Rp1245
(dp1246
g838
I00
sg849
F1e-06
sbag844
(g1188
F1e-06
I00
tp1247
Rp1248
(dp1249
g838
I00
sg849
F1e-06
sbag844
(g1160
F1e-06
I00
tp1250
Rp1251
(dp1252
g838
I00
sg849
F1e-06
sbag844
(g1218
F1e-06
I00
tp1253
Rp1254
(dp1255
g838
I00
sg849
F1e-06
sbag844
(g1184
F1e-06
I00
tp1256
Rp1257
(dp1258
g838
I00
sg849
F1e-06
sbag844
(g1187
F1e-06
I00
tp1259
Rp1260
(dp1261
g838
I00
sg849
F1e-06
sbag844
(g1175
F1e-06
I00
tp1262
Rp1263
(dp1264
g838
I00
sg849
F1e-06
sbag844
(g1142
F1e-06
I00
tp1265
Rp1266
(dp1267
g838
I00
sg849
F1e-06
sbag844
(g1192
F1e-06
I00
tp1268
Rp1269
(dp1270
g838
I00
sg849
F1e-06
sbag844
(g1168
F1e-06
I00
tp1271
Rp1272
(dp1273
g838
I00
sg849
F1e-06
sbag844
(g1173
F1e-06
I00
tp1274
Rp1275
(dp1276
g838
I00
sg849
F1e-06
sbag844
(g1202
F1e-06
I00
tp1277
Rp1278
(dp1279
g838
I00
sg849
F1e-06
sbag844
(g1179
F1e-06
I00
tp1280
Rp1281
(dp1282
g838
I00
sg849
F1e-06
sbag844
(g1208
F1e-06
I00
tp1283
Rp1284
(dp1285
g838
I00
sg849
F1e-06
sbag844
(g1224
F1e-06
I00
tp1286
Rp1287
(dp1288
g838
I00
sg849
F1e-06
sbag844
(g1172
F1e-06
I00
tp1289
Rp1290
(dp1291
g838
I00
sg849
F1e-06
sbag844
(g1191
F1e-06
I00
tp1292
Rp1293
(dp1294
g838
I00
sg849
F1e-06
sbag844
(g1200
F1e-06
I00
tp1295
Rp1296
(dp1297
g838
I00
sg849
F1e-06
sbag844
(g1163
F1e-06
I00
tp1298
Rp1299
(dp1300
g838
I00
sg849
F1e-06
sbag844
(g1180
F1e-06
I00
tp1301
Rp1302
(dp1303
g838
I00
sg849
F1e-06
sbag844
(g1140
F1e-06
I00
tp1304
Rp1305
(dp1306
g838
I00
sg849
F1e-06
sbag844
(g1143
F1e-06
I00
tp1307
Rp1308
(dp1309
g838
I00
sg849
F1e-06
sbag844
(g1195
F1e-06
I00
tp1310
Rp1311
(dp1312
g838
I00
sg849
F1e-06
sbag844
(g1203
F1e-06
I00
tp1313
Rp1314
(dp1315
g838
I00
sg849
F1e-06
sbag844
(g1215
F1e-06
I00
tp1316
Rp1317
(dp1318
g838
I00
sg849
F1e-06
sbag844
(g1197
F1e-06
I00
tp1319
Rp1320
(dp1321
g838
I00
sg849
F1e-06
sbag844
(g1169
F1e-06
I00
tp1322
Rp1323
(dp1324
g838
I00
sg849
F1e-06
sbag844
(g1178
F1e-06
I00
tp1325
Rp1326
(dp1327
g838
I00
sg849
F1e-06
sbag844
(g1220
F1e-06
I00
tp1328
Rp1329
(dp1330
g838
I00
sg849
F1e-06
sbag844
(g1186
F1e-06
I00
tp1331
Rp1332
(dp1333
g838
I00
sg849
F1e-06
sbag844
(g1158
F1e-06
I00
tp1334
Rp1335
(dp1336
g838
I00
sg849
F1e-06
sbag844
(g1211
F1e-06
I00
tp1337
Rp1338
(dp1339
g838
I00
sg849
F1e-06
sbag844
(g1194
F1e-06
I00
tp1340
Rp1341
(dp1342
g838
I00
sg849
F1e-06
sbag844
(g1154
F1e-06
I00
tp1343
Rp1344
(dp1345
g838
I00
sg849
F1e-06
sbag844
(g1139
F1e-06
I00
tp1346
Rp1347
(dp1348
g838
I00
sg849
F1e-06
sbag844
(g1223
F1e-06
I00
tp1349
Rp1350
(dp1351
g838
I00
sg849
F1e-06
sbag844
(g1183
F1e-06
I00
tp1352
Rp1353
(dp1354
g838
I00
sg849
F1e-06
sbag844
(g1207
F1e-06
I00
tp1355
Rp1356
(dp1357
g838
I00
sg849
F1e-06
sbag844
(g1174
F1e-06
I00
tp1358
Rp1359
(dp1360
g838
I00
sg849
F1e-06
sbag844
(g1157
F1e-06
I00
tp1361
Rp1362
(dp1363
g838
I00
sg849
F1e-06
sbag844
(g1204
F1e-06
I00
tp1364
Rp1365
(dp1366
g838
I00
sg849
F1e-06
sbag844
(g1199
F1e-06
I00
tp1367
Rp1368
(dp1369
g838
I00
sg849
F1e-06
sbag844
(g1176
F1e-06
I00
tp1370
Rp1371
(dp1372
g838
I00
sg849
F1e-06
sbag844
(g1161
F1e-06
I00
tp1373
Rp1374
(dp1375
g838
I00
sg849
F1e-06
sbag844
(g1181
F1e-06
I00
tp1376
Rp1377
(dp1378
g838
I00
sg849
F1e-06
sbag844
(g1177
F1e-06
I00
tp1379
Rp1380
(dp1381
g838
I00
sg849
F1e-06
sbag844
(g1219
F1e-06
I00
tp1382
Rp1383
(dp1384
g838
I00
sg849
F1e-06
sbag844
(g1156
F1e-06
I00
tp1385
Rp1386
(dp1387
g838
I00
sg849
F1e-06
sbag844
(g1213
F1e-06
I00
tp1388
Rp1389
(dp1390
g838
I00
sg849
F1e-06
sbag844
(g1189
F1.0
I00
tp1391
Rp1392
(dp1393
g838
I00
sg849
F1.0
sbag844
(g1164
F1.0
I00
tp1394
Rp1395
(dp1396
g838
I00
sg849
F1.0
sbag844
(g1212
F1.0
I00
tp1397
Rp1398
(dp1399
g838
I00
sg849
F1.0
sbag844
(g1190
F1.0
I00
tp1400
Rp1401
(dp1402
g838
I00
sg849
F1.0
sbag844
(g1167
F1.0
I00
tp1403
Rp1404
(dp1405
g838
I00
sg849
F1.0
sbag844
(g1209
F1.0
I00
tp1406
Rp1407
(dp1408
g838
I00
sg849
F1.0
sbag844
(g1193
F1.0
I00
tp1409
Rp1410
(dp1411
g838
I00
sg849
F1.0
sbag844
(g1210
F1e-06
I00
tp1412
Rp1413
(dp1414
g838
I00
sg849
F1e-06
sbag844
(g1226
F1e-06
I00
tp1415
Rp1416
(dp1417
g838
I00
sg849
F1e-06
sbag844
(g1201
F1e-06
I00
tp1418
Rp1419
(dp1420
g838
I00
sg849
F1e-06
sbag844
(g1166
F1e-06
I00
tp1421
Rp1422
(dp1423
g838
I00
sg849
F1e-06
sbag844
(g1225
F1e-06
I00
tp1424
Rp1425
(dp1426
g838
I00
sg849
F1e-06
sbag844
(g1205
F1e-06
I00
tp1427
Rp1428
(dp1429
g838
I00
sg849
F1e-06
sbag844
(g1221
F1e-06
I00
tp1430
Rp1431
(dp1432
g838
I00
sg849
F1e-06
sbag844
(g1153
F1e-06
I00
tp1433
Rp1434
(dp1435
g838
I00
sg849
F1e-06
sbag844
(g1145
F1e-06
I00
tp1436
Rp1437
(dp1438
g838
I00
sg849
F1e-06
sbag844
(g1155
F1e-06
I00
tp1439
Rp1440
(dp1441
g838
I00
sg849
F1e-06
sbag844
(g1148
F1e-06
I00
tp1442
Rp1443
(dp1444
g838
I00
sg849
F1e-06
sbag844
(g1222
F1e-06
I00
tp1445
Rp1446
(dp1447
g838
I00
sg849
F1e-06
sbag844
(g1182
F1e-06
I00
tp1448
Rp1449
(dp1450
g838
I00
sg849
F1e-06
sbag844
(g1149
F1e-06
I00
tp1451
Rp1452
(dp1453
g838
I00
sg849
F1e-06
sbag844
(g1171
F1e-06
I00
tp1454
Rp1455
(dp1456
g838
I00
sg849
F1e-06
sbag844
(g1159
F1e-06
I00
tp1457
Rp1458
(dp1459
g838
I00
sg849
F1e-06
sbag844
(g1144
F1e-06
I00
tp1460
Rp1461
(dp1462
g838
I00
sg849
F1e-06
sbag844
(g1162
F1e-06
I00
tp1463
Rp1464
(dp1465
g838
I00
sg849
F1e-06
sbag844
(g1185
F1e-06
I00
tp1466
Rp1467
(dp1468
g838
I00
sg849
F1e-06
sbag844
(g1150
F1e-06
I00
tp1469
Rp1470
(dp1471
g838
I00
sg849
F1e-06
sbag844
(g1217
F1e-06
I00
tp1472
Rp1473
(dp1474
g838
I00
sg849
F1e-06
sbag844
(g1152
F1e-06
I00
tp1475
Rp1476
(dp1477
g838
I00
sg849
F1e-06
sbag844
(g1214
F1e-06
I00
tp1478
Rp1479
(dp1480
g838
I00
sg849
F1e-06
sbag844
(g1151
F1e-06
I00
tp1481
Rp1482
(dp1483
g838
I00
sg849
F1e-06
sbag844
(g1146
F1e-06
I00
tp1484
Rp1485
(dp1486
g838
I00
sg849
F1e-06
sbag844
(g1165
F1e-06
I00
tp1487
Rp1488
(dp1489
g838
I00
sg849
F1e-06
sbag844
(g1216
F1e-06
I00
tp1490
Rp1491
(dp1492
g838
I00
sg849
F1e-06
sbag844
(g142
F1e-06
I00
tp1493
Rp1494
(dp1495
g838
I00
sg849
F1e-06
sbag1111
ag847
ag872
ag894
ag917
ag974
ag1061
ag1088
ag844
(g1141
F905000.0
I00
tp1496
Rp1497
(dp1498
g838
I00
sg849
F905000.0
sbasS'_map'
p1499
(dp1500
g1138
g1236
sg1139
g1347
sg892
g894
sg1140
g1305
sg1141
g1497
sg1142
g1266
sg1143
g1308
sg1144
g1461
sg1145
g1437
sg1146
g1485
sg1147
g1239
sg1148
g1443
sg1149
g1452
sg1150
g1470
sg1151
g1482
sg1152
g1476
sg1153
g1434
sg1059
g1061
sg1154
g1344
sg1155
g1440
sg1156
g1386
sg1157
g1362
sg1158
g1335
sg1159
g1458
sg1160
g1251
sg915
g917
sg1161
g1374
sg1162
g1464
sg1163
g1299
sg1164
g1395
sg1165
g1488
sg1166
g1422
sg1167
g1404
sg1168
g1272
sg870
g872
sg1169
g1323
sg1170
g1233
sg1171
g1455
sg1172
g1290
sg1173
g1275
sg1174
g1359
sg1175
g1263
sg1176
g1371
sg1177
g1380
sg1178
g1326
sg1179
g1281
sg1180
g1302
sg1181
g1377
sg1182
g1449
sg1183
g1353
sg1184
g1257
sg1185
g1467
sg1186
g1332
sg1187
g1260
sg1188
g1248
sg1189
g1392
sg1190
g1401
sg1191
g1293
sg1192
g1269
sg1193
g1410
sg1194
g1341
sg1195
g1311
sg1196
g1245
sg1197
g1320
sg1198
g1230
sg1199
g1368
sg1200
g1296
sg1201
g1419
sg1202
g1278
sg142
g1494
sg1203
g1314
sg1204
g1365
sg1205
g1428
sg1206
g1242
sg1086
g1088
sg1207
g1356
sg1208
g1284
sg1209
g1407
sg1210
g1413
sg1211
g1338
sg1212
g1398
sg1213
g1389
sg1214
g1479
sg1215
g1317
sg1216
g1491
sg1217
g1473
sg1218
g1254
sg1219
g1383
sg1220
g1329
sg1221
g1431
sg1222
g1446
sg972
g974
sg1223
g1350
sg1224
g1287
sg1109
g1111
sg845
g847
sg1225
g1425
sg1226
g1416
ssbsS'rules'
p1501
g0
(g1132
g2
Ntp1502
Rp1503
(dp1504
g1136
(dp1505
S'MAP2K1_GIT1_bind'
p1506
I19
sS'EGFR_Kinase_activates_SOS1_Catalytic'
p1507
I39
sS'KRT8_RAF1_bind'
p1508
I9
sS'GRB2_ACP1_bind'
p1509
I24
sS'RASA3_Catalytic_activates_HRAS_GtpBound'
p1510
I45
sS'RET_phospho_MAPK1_Y187'
p1511
I33
sS'ESTRADIOL_ESR1_bind'
p1512
I16
sS'RASA2_Catalytic_activates_NRAS_GtpBound'
p1513
I58
sS'ARAF_Kinase_activates_MAP2K1_Kinase'
p1514
I46
sS'CFLAR_KRT8_RAF1_KRT18_bind'
p1515
I7
sS'RPS6KB2_PRKCE_BRAF_bind'
p1516
I8
sS'GRB2_SOS1_bind'
p1517
I23
sS'P2_FAMILY_phospho_MAP2K1_T25'
p1518
I31
sS'MAP3K3_Kinase_activates_MAP2K1_Kinase'
p1519
I41
sS'RASA3_Catalytic_activates_KRAS_GtpBound'
p1520
I53
sS'SOS1_Catalytic_activates_NRAS_GtpBound'
p1521
I35
sS'SLC9A3R2_LPAR2_bind'
p1522
I2
sS'PRKC_FAMILY_phospho_RAF1_S499'
p1523
I27
sS'SOS1_Catalytic_activates_KRAS_GtpBound'
p1524
I43
sS'HRAS_GtpBound_activates_BRAF_Kinase'
p1525
I37
sS'MAP3K1_Kinase_activates_MAP2K1_Kinase'
p1526
I55
sS'PRKA_FAMILY_phospho_RAF1_S43'
p1527
I30
sS'KRAS_GtpBound_activates_RAF1_Kinase'
p1528
I48
sS'HRAS_GtpBound_activates_RAF1_Kinase'
p1529
I40
sS'SOS_FAMILY_Catalytic_activates_NRAS_GtpBound'
p1530
I38
sS'ITGB1_ITGA5_bind'
p1531
I3
sS'ITGB4_ITGA6_bind'
p1532
I5
sS'RAF1_PEBP1_bind'
p1533
I15
sS'RASA4_Catalytic_activates_KRAS_GtpBound'
p1534
I47
sS'HRAS_BCL2_bind'
p1535
I20
sS'SOS1_Catalytic_activates_HRAS_GtpBound'
p1536
I49
sS'MAPK3_HSF1_bind'
p1537
I4
sS'SRC_phospho_RAF1_Y340'
p1538
I29
sS'RAF_FAMILY_Kinase_activates_MAP2K1_Kinase'
p1539
I60
sS'BRAF_HRAS_bind'
p1540
I1
sS'PRKCZ_RAF1_YWHAQ_bind'
p1541
I13
sS'NRAS_GtpBound_activates_ARAF_Kinase'
p1542
I59
sS'CREB1_CREBBP_bind'
p1543
I22
sS'KIT_KITLG_bind'
p1544
I18
sS'RAF1_RB1_bind'
p1545
I10
sS'RAF1_Kinase_activates_MAP2K1_Kinase'
p1546
I54
sS'GPER_ESTRADIOL_bind'
p1547
I26
sS'PRKCZ_RAF1_YWHAB_bind'
p1548
I6
sS'JAK1_phospho_RAF1_Y341'
p1549
I28
sS'ERBB2_EGFR_bind'
p1550
I25
sS'EGF_activates_EGFR'
p1551
I61
sS'RAF1_PAK2_bind'
p1552
I0
sS'LCP2_VAV1_bind'
p1553
I12
sS'MAP2K1_Kinase_activates_MAPK1_Kinase'
p1554
I57
sS'AKT_FAMILY_phospho_RAF1_S259'
p1555
I32
sS'HRAS_GtpBound_activates_ARAF_Kinase'
p1556
I44
sS'BRAF_Kinase_activates_MAP2K1_Kinase'
p1557
I50
sS'DUSP4_dephospho_MAPK1_T185'
p1558
I34
sS'MIF_CD74_bind'
p1559
I21
sS'KRAS_GtpBound_activates_ARAF_Kinase'
p1560
I56
sS'RAF1_P3579_ARRB2_MAPK1_bind'
p1561
I11
sS'NRAS_GtpBound_activates_BRAF_Kinase'
p1562
I36
sS'GRB2_DAB2_bind'
p1563
I14
sS'DAB2IP_Catalytic_activates_KRAS_GtpBound'
p1564
I51
sS'RASAL1_Catalytic_activates_NRAS_GtpBound'
p1565
I42
sS'ITGAV_ITGB3_bind'
p1566
I17
sS'KRAS_GtpBound_activates_BRAF_Kinase'
p1567
I52
ssg1227
(lp1568
g0
(cpysb.core
Rule
p1569
g2
Ntp1570
Rp1571
(dp1572
S'rate_forward'
p1573
g1230
sS'reactant_pattern'
p1574
g0
(cpysb.core
ReactionPattern
p1575
g2
Ntp1576
Rp1577
(dp1578
S'complex_patterns'
p1579
(lp1580
g0
(g818
g2
Ntp1581
Rp1582
(dp1583
g822
Nsg823
(lp1584
g0
(g825
g2
Ntp1585
Rp1586
(dp1587
g822
Nsg829
g1003
sg841
(dp1588
g1024
Nssbasg843
I00
sbag0
(g818
g2
Ntp1589
Rp1590
(dp1591
g822
Nsg823
(lp1592
g0
(g825
g2
Ntp1593
Rp1594
(dp1595
g822
Nsg829
g0
(g830
g2
Ntp1596
Rp1597
(dp1598
g834
(dp1599
sg836
g1024
sg838
I00
sg839
(lp1600
g1022
asbsg841
(dp1601
g1022
Nssbasg843
I00
sbasbsg836
g1552
sS'is_reversible'
p1602
I01
sS'rule_expression'
p1603
g0
(cpysb.core
RuleExpression
p1604
g2
Ntp1605
Rp1606
(dp1607
S'product_pattern'
p1608
g0
(g1575
g2
Ntp1609
Rp1610
(dp1611
g1579
(lp1612
g0
(g818
g2
Ntp1613
Rp1614
(dp1615
g822
Nsg823
(lp1616
g0
(g825
g2
Ntp1617
Rp1618
(dp1619
g822
Nsg829
g1003
sg841
(dp1620
g1024
I1
ssbag0
(g825
g2
Ntp1621
Rp1622
(dp1623
g822
Nsg829
g1597
sg841
(dp1624
g1022
I1
ssbasg843
I00
sbasbsg1574
g1577
sg1602
I01
sbsS'move_connected'
p1625
I00
sg838
I00
sg1608
g1610
sS'delete_molecules'
p1626
I00
sS'rate_reverse'
p1627
g1233
sbag0
(g1569
g2
Ntp1628
Rp1629
(dp1630
g1573
g1236
sg1574
g0
(g1575
g2
Ntp1631
Rp1632
(dp1633
g1579
(lp1634
g0
(g818
g2
Ntp1635
Rp1636
(dp1637
g822
Nsg823
(lp1638
g0
(g825
g2
Ntp1639
Rp1640
(dp1641
g822
Nsg829
g985
sg841
(dp1642
g910
Nssbasg843
I00
sbag0
(g818
g2
Ntp1643
Rp1644
(dp1645
g822
Nsg823
(lp1646
g0
(g825
g2
Ntp1647
Rp1648
(dp1649
g822
Nsg829
g905
sg841
(dp1650
g912
Nssbasg843
I00
sbasbsg836
g1540
sg1602
I01
sg1603
g0
(g1604
g2
Ntp1651
Rp1652
(dp1653
g1608
g0
(g1575
g2
Ntp1654
Rp1655
(dp1656
g1579
(lp1657
g0
(g818
g2
Ntp1658
Rp1659
(dp1660
g822
Nsg823
(lp1661
g0
(g825
g2
Ntp1662
Rp1663
(dp1664
g822
Nsg829
g985
sg841
(dp1665
g910
I1
ssbag0
(g825
g2
Ntp1666
Rp1667
(dp1668
g822
Nsg829
g905
sg841
(dp1669
g912
I1
ssbasg843
I00
sbasbsg1574
g1632
sg1602
I01
sbsg1625
I00
sg838
I00
sg1608
g1655
sg1626
I00
sg1627
g1239
sbag0
(g1569
g2
Ntp1670
Rp1671
(dp1672
g1573
g1242
sg1574
g0
(g1575
g2
Ntp1673
Rp1674
(dp1675
g1579
(lp1676
g0
(g818
g2
Ntp1677
Rp1678
(dp1679
g822
Nsg823
(lp1680
g0
(g825
g2
Ntp1681
Rp1682
(dp1683
g822
Nsg829
g0
(g830
g2
Ntp1684
Rp1685
(dp1686
g834
(dp1687
sg836
S'SLC9A3R2'
p1688
sg838
I00
sg839
(lp1689
S'LPAR2'
p1690
asbsg841
(dp1691
g1690
Nssbasg843
I00
sbag0
(g818
g2
Ntp1692
Rp1693
(dp1694
g822
Nsg823
(lp1695
g0
(g825
g2
Ntp1696
Rp1697
(dp1698
g822
Nsg829
g0
(g830
g2
Ntp1699
Rp1700
(dp1701
g834
(dp1702
sg836
g1690
sg838
I00
sg839
(lp1703
g1688
asbsg841
(dp1704
g1688
Nssbasg843
I00
sbasbsg836
g1522
sg1602
I01
sg1603
g0
(g1604
g2
Ntp1705
Rp1706
(dp1707
g1608
g0
(g1575
g2
Ntp1708
Rp1709
(dp1710
g1579
(lp1711
g0
(g818
g2
Ntp1712
Rp1713
(dp1714
g822
Nsg823
(lp1715
g0
(g825
g2
Ntp1716
Rp1717
(dp1718
g822
Nsg829
g1685
sg841
(dp1719
g1690
I1
ssbag0
(g825
g2
Ntp1720
Rp1721
(dp1722
g822
Nsg829
g1700
sg841
(dp1723
g1688
I1
ssbasg843
I00
sbasbsg1574
g1674
sg1602
I01
sbsg1625
I00
sg838
I00
sg1608
g1709
sg1626
I00
sg1627
g1245
sbag0
(g1569
g2
Ntp1724
Rp1725
(dp1726
g1573
g1248
sg1574
g0
(g1575
g2
Ntp1727
Rp1728
(dp1729
g1579
(lp1730
g0
(g818
g2
Ntp1731
Rp1732
(dp1733
g822
Nsg823
(lp1734
g0
(g825
g2
Ntp1735
Rp1736
(dp1737
g822
Nsg829
g0
(g830
g2
Ntp1738
Rp1739
(dp1740
g834
(dp1741
sg836
S'ITGB1'
p1742
sg838
I00
sg839
(lp1743
S'ITGA5'
p1744
asbsg841
(dp1745
g1744
Nssbasg843
I00
sbag0
(g818
g2
Ntp1746
Rp1747
(dp1748
g822
Nsg823
(lp1749
g0
(g825
g2
Ntp1750
Rp1751
(dp1752
g822
Nsg829
g0
(g830
g2
Ntp1753
Rp1754
(dp1755
g834
(dp1756
sg836
g1744
sg838
I00
sg839
(lp1757
g1742
asbsg841
(dp1758
g1742
Nssbasg843
I00
sbasbsg836
g1531
sg1602
I01
sg1603
g0
(g1604
g2
Ntp1759
Rp1760
(dp1761
g1608
g0
(g1575
g2
Ntp1762
Rp1763
(dp1764
g1579
(lp1765
g0
(g818
g2
Ntp1766
Rp1767
(dp1768
g822
Nsg823
(lp1769
g0
(g825
g2
Ntp1770
Rp1771
(dp1772
g822
Nsg829
g1739
sg841
(dp1773
g1744
I1
ssbag0
(g825
g2
Ntp1774
Rp1775
(dp1776
g822
Nsg829
g1754
sg841
(dp1777
g1742
I1
ssbasg843
I00
sbasbsg1574
g1728
sg1602
I01
sbsg1625
I00
sg838
I00
sg1608
g1763
sg1626
I00
sg1627
g1251
sbag0
(g1569
g2
Ntp1778
Rp1779
(dp1780
g1573
g1254
sg1574
g0
(g1575
g2
Ntp1781
Rp1782
(dp1783
g1579
(lp1784
g0
(g818
g2
Ntp1785
Rp1786
(dp1787
g822
Nsg823
(lp1788
g0
(g825
g2
Ntp1789
Rp1790
(dp1791
g822
Nsg829
g0
(g830
g2
Ntp1792
Rp1793
(dp1794
g834
(dp1795
sg836
S'MAPK3'
p1796
sg838
I00
sg839
(lp1797
S'HSF1'
p1798
asbsg841
(dp1799
g1798
Nssbasg843
I00
sbag0
(g818
g2
Ntp1800
Rp1801
(dp1802
g822
Nsg823
(lp1803
g0
(g825
g2
Ntp1804
Rp1805
(dp1806
g822
Nsg829
g0
(g830
g2
Ntp1807
Rp1808
(dp1809
g834
(dp1810
sg836
g1798
sg838
I00
sg839
(lp1811
g1796
asbsg841
(dp1812
g1796
Nssbasg843
I00
sbasbsg836
g1537
sg1602
I01
sg1603
g0
(g1604
g2
Ntp1813
Rp1814
(dp1815
g1608
g0
(g1575
g2
Ntp1816
Rp1817
(dp1818
g1579
(lp1819
g0
(g818
g2
Ntp1820
Rp1821
(dp1822
g822
Nsg823
(lp1823
g0
(g825
g2
Ntp1824
Rp1825
(dp1826
g822
Nsg829
g1793
sg841
(dp1827
g1798
I1
ssbag0
(g825
g2
Ntp1828
Rp1829
(dp1830
g822
Nsg829
g1808
sg841
(dp1831
g1796
I1
ssbasg843
I00
sbasbsg1574
g1782
sg1602
I01
sbsg1625
I00
sg838
I00
sg1608
g1817
sg1626
I00
sg1627
g1257
sbag0
(g1569
g2
Ntp1832
Rp1833
(dp1834
g1573
g1260
sg1574
g0
(g1575
g2
Ntp1835
Rp1836
(dp1837
g1579
(lp1838
g0
(g818
g2
Ntp1839
Rp1840
(dp1841
g822
Nsg823
(lp1842
g0
(g825
g2
Ntp1843
Rp1844
(dp1845
g822
Nsg829
g0
(g830
g2
Ntp1846
Rp1847
(dp1848
g834
(dp1849
sg836
S'ITGB4'
p1850
sg838
I00
sg839
(lp1851
S'ITGA6'
p1852
asbsg841
(dp1853
g1852
Nssbasg843
I00
sbag0
(g818
g2
Ntp1854
Rp1855
(dp1856
g822
Nsg823
(lp1857
g0
(g825
g2
Ntp1858
Rp1859
(dp1860
g822
Nsg829
g0
(g830
g2
Ntp1861
Rp1862
(dp1863
g834
(dp1864
sg836
g1852
sg838
I00
sg839
(lp1865
g1850
asbsg841
(dp1866
g1850
Nssbasg843
I00
sbasbsg836
g1532
sg1602
I01
sg1603
g0
(g1604
g2
Ntp1867
Rp1868
(dp1869
g1608
g0
(g1575
g2
Ntp1870
Rp1871
(dp1872
g1579
(lp1873
g0
(g818
g2
Ntp1874
Rp1875
(dp1876
g822
Nsg823
(lp1877
g0
(g825
g2
Ntp1878
Rp1879
(dp1880
g822
Nsg829
g1847
sg841
(dp1881
g1852
I1
ssbag0
(g825
g2
Ntp1882
Rp1883
(dp1884
g822
Nsg829
g1862
sg841
(dp1885
g1850
I1
ssbasg843
I00
sbasbsg1574
g1836
sg1602
I01
sbsg1625
I00
sg838
I00
sg1608
g1871
sg1626
I00
sg1627
g1263
sbag0
(g1569
g2
Ntp1886
Rp1887
(dp1888
g1573
g1266
sg1574
g0
(g1575
g2
Ntp1889
Rp1890
(dp1891
g1579
(lp1892
g0
(g818
g2
Ntp1893
Rp1894
(dp1895
g822
Nsg823
(lp1896
g0
(g825
g2
Ntp1897
Rp1898
(dp1899
g822
Nsg829
g0
(g830
g2
Ntp1900
Rp1901
(dp1902
g834
(dp1903
sg836
g1025
sg838
I00
sg839
(lp1904
S'RAF1'
p1905
ag1026
ag1034
asbsg841
(dp1906
g1026
Nsg1905
Nssbasg843
I00
sbag0
(g818
g2
Ntp1907
Rp1908
(dp1909
g822
Nsg823
(lp1910
g0
(g825
g2
Ntp1911
Rp1912
(dp1913
g822
Nsg829
g1003
sg841
(dp1914
g1026
Nsg1025
Nssbasg843
I00
sbag0
(g818
g2
Ntp1915
Rp1916
(dp1917
g822
Nsg823
(lp1918
g0
(g825
g2
Ntp1919
Rp1920
(dp1921
g822
Nsg829
g0
(g830
g2
Ntp1922
Rp1923
(dp1924
g834
(dp1925
sg836
g1026
sg838
I00
sg839
(lp1926
g1025
ag1905
asbsg841
(dp1927
g1025
Nsg1905
Nssbasg843
I00
sbasbsg836
g1548
sg1602
I01
sg1603
g0
(g1604
g2
Ntp1928
Rp1929
(dp1930
g1608
g0
(g1575
g2
Ntp1931
Rp1932
(dp1933
g1579
(lp1934
g0
(g818
g2
Ntp1935
Rp1936
(dp1937
g822
Nsg823
(lp1938
g0
(g825
g2
Ntp1939
Rp1940
(dp1941
g822
Nsg829
g1901
sg841
(dp1942
g1026
I2
sg1905
I1
ssbag0
(g825
g2
Ntp1943
Rp1944
(dp1945
g822
Nsg829
g1003
sg841
(dp1946
g1026
I3
sg1025
I1
ssbag0
(g825
g2
Ntp1947
Rp1948
(dp1949
g822
Nsg829
g1923
sg841
(dp1950
g1025
I2
sg1905
I3
ssbasg843
I00
sbasbsg1574
g1890
sg1602
I01
sbsg1625
I00
sg838
I00
sg1608
g1932
sg1626
I00
sg1627
g1269
sbag0
(g1569
g2
Ntp1951
Rp1952
(dp1953
g1573
g1272
sg1574
g0
(g1575
g2
Ntp1954
Rp1955
(dp1956
g1579
(lp1957
g0
(g818
g2
Ntp1958
Rp1959
(dp1960
g822
Nsg823
(lp1961
g0
(g825
g2
Ntp1962
Rp1963
(dp1964
g822
Nsg829
g0
(g830
g2
Ntp1965
Rp1966
(dp1967
g834
(dp1968
sg836
g1027
sg838
I00
sg839
(lp1969
g1028
aS'RAF1'
p1970
ag1029
asbsg841
(dp1971
g1028
Nsg1970
Nsg1029
Nssbasg843
I00
sbag0
(g818
g2
Ntp1972
Rp1973
(dp1974
g822
Nsg823
(lp1975
g0
(g825
g2
Ntp1976
Rp1977
(dp1978
g822
Nsg829
g0
(g830
g2
Ntp1979
Rp1980
(dp1981
g834
(dp1982
sg836
g1028
sg838
I00
sg839
(lp1983
g1027
ag1970
ag1029
asbsg841
(dp1984
g1027
Nsg1970
Nsg1029
Nssbasg843
I00
sbag0
(g818
g2
Ntp1985
Rp1986
(dp1987
g822
Nsg823
(lp1988
g0
(g825
g2
Ntp1989
Rp1990
(dp1991
g822
Nsg829
g1003
sg841
(dp1992
g1027
Nsg1028
Nsg1029
Nssbasg843
I00
sbag0
(g818
g2
Ntp1993
Rp1994
(dp1995
g822
Nsg823
(lp1996
g0
(g825
g2
Ntp1997
Rp1998
(dp1999
g822
Nsg829
g0
(g830
g2
Ntp2000
Rp2001
(dp2002
g834
(dp2003
sg836
g1029
sg838
I00
sg839
(lp2004
g1027
ag1028
ag1970
asbsg841
(dp2005
g1027
Nsg1028
Nsg1970
Nssbasg843
I00
sbasbsg836
g1515
sg1602
I01
sg1603
g0
(g1604
g2
Ntp2006
Rp2007
(dp2008
g1608
g0
(g1575
g2
Ntp2009
Rp2010
(dp2011
g1579
(lp2012
g0
(g818
g2
Ntp2013
Rp2014
(dp2015
g822
Nsg823
(lp2016
g0
(g825
g2
Ntp2017
Rp2018
(dp2019
g822
Nsg829
g1966
sg841
(dp2020
g1028
I1
sg1970
I2
sg1029
I3
ssbag0
(g825
g2
Ntp2021
Rp2022
(dp2023
g822
Nsg829
g1980
sg841
(dp2024
g1027
I1
sg1970
I4
sg1029
I5
ssbag0
(g825
g2
Ntp2025
Rp2026
(dp2027
g822
Nsg829
g1003
sg841
(dp2028
g1027
I2
sg1028
I4
sg1029
I6
ssbag0
(g825
g2
Ntp2029
Rp2030
(dp2031
g822
Nsg829
g2001
sg841
(dp2032
g1027
I3
sg1028
I5
sg1970
I6
ssbasg843
I00
sbasbsg1574
g1955
sg1602
I01
sbsg1625
I00
sg838
I00
sg1608
g2010
sg1626
I00
sg1627
g1275
sbag0
(g1569
g2
Ntp2033
Rp2034
(dp2035
g1573
g1278
sg1574
g0
(g1575
g2
Ntp2036
Rp2037
(dp2038
g1579
(lp2039
g0
(g818
g2
Ntp2040
Rp2041
(dp2042
g822
Nsg823
(lp2043
g0
(g825
g2
Ntp2044
Rp2045
(dp2046
g822
Nsg829
g0
(g830
g2
Ntp2047
Rp2048
(dp2049
g834
(dp2050
sg836
g991
sg838
I00
sg839
(lp2051
g992
aS'BRAF'
p2052
asbsg841
(dp2053
g992
Nsg2052
Nssbasg843
I00
sbag0
(g818
g2
Ntp2054
Rp2055
(dp2056
g822
Nsg823
(lp2057
g0
(g825
g2
Ntp2058
Rp2059
(dp2060
g822
Nsg829
g0
(g830
g2
Ntp2061
Rp2062
(dp2063
g834
(dp2064
sg836
g992
sg838
I00
sg839
(lp2065
g991
ag2052
asbsg841
(dp2066
g2052
Nsg991
Nssbasg843
I00
sbag0
(g818
g2
Ntp2067
Rp2068
(dp2069
g822
Nsg823
(lp2070
g0
(g825
g2
Ntp2071
Rp2072
(dp2073
g822
Nsg829
g985
sg841
(dp2074
g992
Nsg991
Nssbasg843
I00
sbasbsg836
g1516
sg1602
I01
sg1603
g0
(g1604
g2
Ntp2075
Rp2076
(dp2077
g1608
g0
(g1575
g2
Ntp2078
Rp2079
(dp2080
g1579
(lp2081
g0
(g818
g2
Ntp2082
Rp2083
(dp2084
g822
Nsg823
(lp2085
g0
(g825
g2
Ntp2086
Rp2087
(dp2088
g822
Nsg829
g2048
sg841
(dp2089
g992
I1
sg2052
I2
ssbag0
(g825
g2
Ntp2090
Rp2091
(dp2092
g822
Nsg829
g2062
sg841
(dp2093
g2052
I3
sg991
I1
ssbag0
(g825
g2
Ntp2094
Rp2095
(dp2096
g822
Nsg829
g985
sg841
(dp2097
g992
I3
sg991
I2
ssbasg843
I00
sbasbsg1574
g2037
sg1602
I01
sbsg1625
I00
sg838
I00
sg1608
g2079
sg1626
I00
sg1627
g1281
sbag0
(g1569
g2
Ntp2098
Rp2099
(dp2100
g1573
g1284
sg1574
g0
(g1575
g2
Ntp2101
Rp2102
(dp2103
g1579
(lp2104
g0
(g818
g2
Ntp2105
Rp2106
(dp2107
g822
Nsg823
(lp2108
g0
(g825
g2
Ntp2109
Rp2110
(dp2111
g822
Nsg829
g1980
sg841
(dp2112
S'RAF1'
p2113
Nssbasg843
I00
sbag0
(g818
g2
Ntp2114
Rp2115
(dp2116
g822
Nsg823
(lp2117
g0
(g825
g2
Ntp2118
Rp2119
(dp2120
g822
Nsg829
g1003
sg841
(dp2121
S'KRT8'
p2122
Nssbasg843
I00
sbasbsg836
g1508
sg1602
I01
sg1603
g0
(g1604
g2
Ntp2123
Rp2124
(dp2125
g1608
g0
(g1575
g2
Ntp2126
Rp2127
(dp2128
g1579
(lp2129
g0
(g818
g2
Ntp2130
Rp2131
(dp2132
g822
Nsg823
(lp2133
g0
(g825
g2
Ntp2134
Rp2135
(dp2136
g822
Nsg829
g1980
sg841
(dp2137
g2113
I1
ssbag0
(g825
g2
Ntp2138
Rp2139
(dp2140
g822
Nsg829
g1003
sg841
(dp2141
g2122
I1
ssbasg843
I00
sbasbsg1574
g2102
sg1602
I01
sbsg1625
I00
sg838
I00
sg1608
g2127
sg1626
I00
sg1627
g1287
sbag0
(g1569
g2
Ntp2142
Rp2143
(dp2144
g1573
g1290
sg1574
g0
(g1575
g2
Ntp2145
Rp2146
(dp2147
g1579
(lp2148
g0
(g818
g2
Ntp2149
Rp2150
(dp2151
g822
Nsg823
(lp2152
g0
(g825
g2
Ntp2153
Rp2154
(dp2155
g822
Nsg829
g1003
sg841
(dp2156
g1030
Nssbasg843
I00
sbag0
(g818
g2
Ntp2157
Rp2158
(dp2159
g822
Nsg823
(lp2160
g0
(g825
g2
Ntp2161
Rp2162
(dp2163
g822
Nsg829
g0
(g830
g2
Ntp2164
Rp2165
(dp2166
g834
(dp2167
sg836
g1030
sg838
I00
sg839
(lp2168
S'RAF1'
p2169
asbsg841
(dp2170
g2169
Nssbasg843
I00
sbasbsg836
g1545
sg1602
I01
sg1603
g0
(g1604
g2
Ntp2171
Rp2172
(dp2173
g1608
g0
(g1575
g2
Ntp2174
Rp2175
(dp2176
g1579
(lp2177
g0
(g818
g2
Ntp2178
Rp2179
(dp2180
g822
Nsg823
(lp2181
g0
(g825
g2
Ntp2182
Rp2183
(dp2184
g822
Nsg829
g1003
sg841
(dp2185
g1030
I1
ssbag0
(g825
g2
Ntp2186
Rp2187
(dp2188
g822
Nsg829
g2165
sg841
(dp2189
g2169
I1
ssbasg843
I00
sbasbsg1574
g2146
sg1602
I01
sbsg1625
I00
sg838
I00
sg1608
g2175
sg1626
I00
sg1627
g1293
sbag0
(g1569
g2
Ntp2190
Rp2191
(dp2192
g1573
g1296
sg1574
g0
(g1575
g2
Ntp2193
Rp2194
(dp2195
g1579
(lp2196
g0
(g818
g2
Ntp2197
Rp2198
(dp2199
g822
Nsg823
(lp2200
g0
(g825
g2
Ntp2201
Rp2202
(dp2203
g822
Nsg829
g1003
sg841
(dp2204
g1033
Nsg1032
Nsg1031
Nssbasg843
I00
sbag0
(g818
g2
Ntp2205
Rp2206
(dp2207
g822
Nsg823
(lp2208
g0
(g825
g2
Ntp2209
Rp2210
(dp2211
g822
Nsg829
g0
(g830
g2
Ntp2212
Rp2213
(dp2214
g834
(dp2215
sg836
g1031
sg838
I00
sg839
(lp2216
g1084
ag1032
ag1033
asbsg841
(dp2217
g1032
Nsg1033
Nsg1084
Nssbasg843
I00
sbag0
(g818
g2
Ntp2218
Rp2219
(dp2220
g822
Nsg823
(lp2221
g0
(g825
g2
Ntp2222
Rp2223
(dp2224
g822
Nsg829
g0
(g830
g2
Ntp2225
Rp2226
(dp2227
g834
(dp2228
sg836
g1032
sg838
I00
sg839
(lp2229
g1084
ag1031
ag1033
asbsg841
(dp2230
g1033
Nsg1084
Nsg1031
Nssbasg843
I00
sbag0
(g818
g2
Ntp2231
Rp2232
(dp2233
g822
Nsg823
(lp2234
g0
(g825
g2
Ntp2235
Rp2236
(dp2237
g822
Nsg829
g1072
sg841
(dp2238
g1032
Nsg1084
Nsg1031
Nssbasg843
I00
sbasbsg836
g1561
sg1602
I01
sg1603
g0
(g1604
g2
Ntp2239
Rp2240
(dp2241
g1608
g0
(g1575
g2
Ntp2242
Rp2243
(dp2244
g1579
(lp2245
g0
(g818
g2
Ntp2246
Rp2247
(dp2248
g822
Nsg823
(lp2249
g0
(g825
g2
Ntp2250
Rp2251
(dp2252
g822
Nsg829
g1003
sg841
(dp2253
g1033
I3
sg1032
I2
sg1031
I1
ssbag0
(g825
g2
Ntp2254
Rp2255
(dp2256
g822
Nsg829
g2213
sg841
(dp2257
g1032
I4
sg1033
I5
sg1084
I1
ssbag0
(g825
g2
Ntp2258
Rp2259
(dp2260
g822
Nsg829
g2226
sg841
(dp2261
g1033
I6
sg1084
I2
sg1031
I4
ssbag0
(g825
g2
Ntp2262
Rp2263
(dp2264
g822
Nsg829
g1072
sg841
(dp2265
g1032
I6
sg1084
I3
sg1031
I5
ssbasg843
I00
sbasbsg1574
g2194
sg1602
I01
sbsg1625
I00
sg838
I00
sg1608
g2243
sg1626
I00
sg1627
g1299
sbag0
(g1569
g2
Ntp2266
Rp2267
(dp2268
g1573
g1302
sg1574
g0
(g1575
g2
Ntp2269
Rp2270
(dp2271
g1579
(lp2272
g0
(g818
g2
Ntp2273
Rp2274
(dp2275
g822
Nsg823
(lp2276
g0
(g825
g2
Ntp2277
Rp2278
(dp2279
g822
Nsg829
g0
(g830
g2
Ntp2280
Rp2281
(dp2282
g834
(dp2283
sg836
S'LCP2'
p2284
sg838
I00
sg839
(lp2285
S'VAV1'
p2286
asbsg841
(dp2287
g2286
Nssbasg843
I00
sbag0
(g818
g2
Ntp2288
Rp2289
(dp2290
g822
Nsg823
(lp2291
g0
(g825
g2
Ntp2292
Rp2293
(dp2294
g822
Nsg829
g0
(g830
g2
Ntp2295
Rp2296
(dp2297
g834
(dp2298
sg836
g2286
sg838
I00
sg839
(lp2299
g2284
asbsg841
(dp2300
g2284
Nssbasg843
I00
sbasbsg836
g1553
sg1602
I01
sg1603
g0
(g1604
g2
Ntp2301
Rp2302
(dp2303
g1608
g0
(g1575
g2
Ntp2304
Rp2305
(dp2306
g1579
(lp2307
g0
(g818
g2
Ntp2308
Rp2309
(dp2310
g822
Nsg823
(lp2311
g0
(g825
g2
Ntp2312
Rp2313
(dp2314
g822
Nsg829
g2281
sg841
(dp2315
g2286
I1
ssbag0
(g825
g2
Ntp2316
Rp2317
(dp2318
g822
Nsg829
g2296
sg841
(dp2319
g2284
I1
ssbasg843
I00
sbasbsg1574
g2270
sg1602
I01
sbsg1625
I00
sg838
I00
sg1608
g2305
sg1626
I00
sg1627
g1305
sbag0
(g1569
g2
Ntp2320
Rp2321
(dp2322
g1573
g1308
sg1574
g0
(g1575
g2
Ntp2323
Rp2324
(dp2325
g1579
(lp2326
g0
(g818
g2
Ntp2327
Rp2328
(dp2329
g822
Nsg823
(lp2330
g0
(g825
g2
Ntp2331
Rp2332
(dp2333
g822
Nsg829
g1901
sg841
(dp2334
g1034
NsS'RAF1'
p2335
Nssbasg843
I00
sbag0
(g818
g2
Ntp2336
Rp2337
(dp2338
g822
Nsg823
(lp2339
g0
(g825
g2
Ntp2340
Rp2341
(dp2342
g822
Nsg829
g1003
sg841
(dp2343
S'PRKCZ'
p2344
Nsg1034
Nssbasg843
I00
sbag0
(g818
g2
Ntp2345
Rp2346
(dp2347
g822
Nsg823
(lp2348
g0
(g825
g2
Ntp2349
Rp2350
(dp2351
g822
Nsg829
g0
(g830
g2
Ntp2352
Rp2353
(dp2354
g834
(dp2355
sg836
g1034
sg838
I00
sg839
(lp2356
g2344
ag2335
asbsg841
(dp2357
g2344
Nsg2335
Nssbasg843
I00
sbasbsg836
g1541
sg1602
I01
sg1603
g0
(g1604
g2
Ntp2358
Rp2359
(dp2360
g1608
g0
(g1575
g2
Ntp2361
Rp2362
(dp2363
g1579
(lp2364
g0
(g818
g2
Ntp2365
Rp2366
(dp2367
g822
Nsg823
(lp2368
g0
(g825
g2
Ntp2369
Rp2370
(dp2371
g822
Nsg829
g1901
sg841
(dp2372
g1034
I2
sg2335
I1
ssbag0
(g825
g2
Ntp2373
Rp2374
(dp2375
g822
Nsg829
g1003
sg841
(dp2376
g2344
I1
sg1034
I3
ssbag0
(g825
g2
Ntp2377
Rp2378
(dp2379
g822
Nsg829
g2353
sg841
(dp2380
g2344
I2
sg2335
I3
ssbasg843
I00
sbasbsg1574
g2324
sg1602
I01
sbsg1625
I00
sg838
I00
sg1608
g2362
sg1626
I00
sg1627
g1311
sbag0
(g1569
g2
Ntp2381
Rp2382
(dp2383
g1573
g1314
sg1574
g0
(g1575
g2
Ntp2384
Rp2385
(dp2386
g1579
(lp2387
g0
(g818
g2
Ntp2388
Rp2389
(dp2390
g822
Nsg823
(lp2391
g0
(g825
g2
Ntp2392
Rp2393
(dp2394
g822
Nsg829
g0
(g830
g2
Ntp2395
Rp2396
(dp2397
g834
(dp2398
sg836
S'GRB2'
p2399
sg838
I00
sg839
(lp2400
S'DAB2'
p2401
ag888
aS'ACP1'
p2402
asbsg841
(dp2403
g2401
Nssbasg843
I00
sbag0
(g818
g2
Ntp2404
Rp2405
(dp2406
g822
Nsg823
(lp2407
g0
(g825
g2
Ntp2408
Rp2409
(dp2410
g822
Nsg829
g0
(g830
g2
Ntp2411
Rp2412
(dp2413
g834
(dp2414
sg836
g2401
sg838
I00
sg839
(lp2415
g2399
asbsg841
(dp2416
g2399
Nssbasg843
I00
sbasbsg836
g1563
sg1602
I01
sg1603
g0
(g1604
g2
Ntp2417
Rp2418
(dp2419
g1608
g0
(g1575
g2
Ntp2420
Rp2421
(dp2422
g1579
(lp2423
g0
(g818
g2
Ntp2424
Rp2425
(dp2426
g822
Nsg823
(lp2427
g0
(g825
g2
Ntp2428
Rp2429
(dp2430
g822
Nsg829
g2396
sg841
(dp2431
g2401
I1
ssbag0
(g825
g2
Ntp2432
Rp2433
(dp2434
g822
Nsg829
g2412
sg841
(dp2435
g2399
I1
ssbasg843
I00
sbasbsg1574
g2385
sg1602
I01
sbsg1625
I00
sg838
I00
sg1608
g2421
sg1626
I00
sg1627
g1317
sbag0
(g1569
g2
Ntp2436
Rp2437
(dp2438
g1573
g1320
sg1574
g0
(g1575
g2
Ntp2439
Rp2440
(dp2441
g1579
(lp2442
g0
(g818
g2
Ntp2443
Rp2444
(dp2445
g822
Nsg823
(lp2446
g0
(g825
g2
Ntp2447
Rp2448
(dp2449
g822
Nsg829
g1003
sg841
(dp2450
g1035
Nssbasg843
I00
sbag0
(g818
g2
Ntp2451
Rp2452
(dp2453
g822
Nsg823
(lp2454
g0
(g825
g2
Ntp2455
Rp2456
(dp2457
g822
Nsg829
g0
(g830
g2
Ntp2458
Rp2459
(dp2460
g834
(dp2461
sg836
g1035
sg838
I00
sg839
(lp2462
S'RAF1'
p2463
asbsg841
(dp2464
g2463
Nssbasg843
I00
sbasbsg836
g1533
sg1602
I01
sg1603
g0
(g1604
g2
Ntp2465
Rp2466
(dp2467
g1608
g0
(g1575
g2
Ntp2468
Rp2469
(dp2470
g1579
(lp2471
g0
(g818
g2
Ntp2472
Rp2473
(dp2474
g822
Nsg823
(lp2475
g0
(g825
g2
Ntp2476
Rp2477
(dp2478
g822
Nsg829
g1003
sg841
(dp2479
g1035
I1
ssbag0
(g825
g2
Ntp2480
Rp2481
(dp2482
g822
Nsg829
g2459
sg841
(dp2483
g2463
I1
ssbasg843
I00
sbasbsg1574
g2440
sg1602
I01
sbsg1625
I00
sg838
I00
sg1608
g2469
sg1626
I00
sg1627
g1323
sbag0
(g1569
g2
Ntp2484
Rp2485
(dp2486
g1573
g1326
sg1574
g0
(g1575
g2
Ntp2487
Rp2488
(dp2489
g1579
(lp2490
g0
(g818
g2
Ntp2491
Rp2492
(dp2493
g822
Nsg823
(lp2494
g0
(g825
g2
Ntp2495
Rp2496
(dp2497
g822
Nsg829
g0
(g830
g2
Ntp2498
Rp2499
(dp2500
g834
(dp2501
sg836
S'ESTRADIOL'
p2502
sg838
I00
sg839
(lp2503
S'ESR1'
p2504
aS'GPER'
p2505
asbsg841
(dp2506
g2504
Nssbasg843
I00
sbag0
(g818
g2
Ntp2507
Rp2508
(dp2509
g822
Nsg823
(lp2510
g0
(g825
g2
Ntp2511
Rp2512
(dp2513
g822
Nsg829
g0
(g830
g2
Ntp2514
Rp2515
(dp2516
g834
(dp2517
sg836
g2504
sg838
I00
sg839
(lp2518
g2502
asbsg841
(dp2519
g2502
Nssbasg843
I00
sbasbsg836
g1512
sg1602
I01
sg1603
g0
(g1604
g2
Ntp2520
Rp2521
(dp2522
g1608
g0
(g1575
g2
Ntp2523
Rp2524
(dp2525
g1579
(lp2526
g0
(g818
g2
Ntp2527
Rp2528
(dp2529
g822
Nsg823
(lp2530
g0
(g825
g2
Ntp2531
Rp2532
(dp2533
g822
Nsg829
g2499
sg841
(dp2534
g2504
I1
ssbag0
(g825
g2
Ntp2535
Rp2536
(dp2537
g822
Nsg829
g2515
sg841
(dp2538
g2502
I1
ssbasg843
I00
sbasbsg1574
g2488
sg1602
I01
sbsg1625
I00
sg838
I00
sg1608
g2524
sg1626
I00
sg1627
g1329
sbag0
(g1569
g2
Ntp2539
Rp2540
(dp2541
g1573
g1332
sg1574
g0
(g1575
g2
Ntp2542
Rp2543
(dp2544
g1579
(lp2545
g0
(g818
g2
Ntp2546
Rp2547
(dp2548
g822
Nsg823
(lp2549
g0
(g825
g2
Ntp2550
Rp2551
(dp2552
g822
Nsg829
g0
(g830
g2
Ntp2553
Rp2554
(dp2555
g834
(dp2556
sg836
S'ITGAV'
p2557
sg838
I00
sg839
(lp2558
S'ITGB3'
p2559
asbsg841
(dp2560
g2559
Nssbasg843
I00
sbag0
(g818
g2
Ntp2561
Rp2562
(dp2563
g822
Nsg823
(lp2564
g0
(g825
g2
Ntp2565
Rp2566
(dp2567
g822
Nsg829
g0
(g830
g2
Ntp2568
Rp2569
(dp2570
g834
(dp2571
sg836
g2559
sg838
I00
sg839
(lp2572
g2557
asbsg841
(dp2573
g2557
Nssbasg843
I00
sbasbsg836
g1566
sg1602
I01
sg1603
g0
(g1604
g2
Ntp2574
Rp2575
(dp2576
g1608
g0
(g1575
g2
Ntp2577
Rp2578
(dp2579
g1579
(lp2580
g0
(g818
g2
Ntp2581
Rp2582
(dp2583
g822
Nsg823
(lp2584
g0
(g825
g2
Ntp2585
Rp2586
(dp2587
g822
Nsg829
g2554
sg841
(dp2588
g2559
I1
ssbag0
(g825
g2
Ntp2589
Rp2590
(dp2591
g822
Nsg829
g2569
sg841
(dp2592
g2557
I1
ssbasg843
I00
sbasbsg1574
g2543
sg1602
I01
sbsg1625
I00
sg838
I00
sg1608
g2578
sg1626
I00
sg1627
g1335
sbag0
(g1569
g2
Ntp2593
Rp2594
(dp2595
g1573
g1338
sg1574
g0
(g1575
g2
Ntp2596
Rp2597
(dp2598
g1579
(lp2599
g0
(g818
g2
Ntp2600
Rp2601
(dp2602
g822
Nsg823
(lp2603
g0
(g825
g2
Ntp2604
Rp2605
(dp2606
g822
Nsg829
g0
(g830
g2
Ntp2607
Rp2608
(dp2609
g834
(dp2610
sg836
S'KIT'
p2611
sg838
I00
sg839
(lp2612
S'KITLG'
p2613
asbsg841
(dp2614
g2613
Nssbasg843
I00
sbag0
(g818
g2
Ntp2615
Rp2616
(dp2617
g822
Nsg823
(lp2618
g0
(g825
g2
Ntp2619
Rp2620
(dp2621
g822
Nsg829
g0
(g830
g2
Ntp2622
Rp2623
(dp2624
g834
(dp2625
sg836
g2613
sg838
I00
sg839
(lp2626
g2611
asbsg841
(dp2627
g2611
Nssbasg843
I00
sbasbsg836
g1544
sg1602
I01
sg1603
g0
(g1604
g2
Ntp2628
Rp2629
(dp2630
g1608
g0
(g1575
g2
Ntp2631
Rp2632
(dp2633
g1579
(lp2634
g0
(g818
g2
Ntp2635
Rp2636
(dp2637
g822
Nsg823
(lp2638
g0
(g825
g2
Ntp2639
Rp2640
(dp2641
g822
Nsg829
g2608
sg841
(dp2642
g2613
I1
ssbag0
(g825
g2
Ntp2643
Rp2644
(dp2645
g822
Nsg829
g2623
sg841
(dp2646
g2611
I1
ssbasg843
I00
sbasbsg1574
g2597
sg1602
I01
sbsg1625
I00
sg838
I00
sg1608
g2632
sg1626
I00
sg1627
g1341
sbag0
(g1569
g2
Ntp2647
Rp2648
(dp2649
g1573
g1344
sg1574
g0
(g1575
g2
Ntp2650
Rp2651
(dp2652
g1579
(lp2653
g0
(g818
g2
Ntp2654
Rp2655
(dp2656
g822
Nsg823
(lp2657
g0
(g825
g2
Ntp2658
Rp2659
(dp2660
g822
Nsg829
g1046
sg841
(dp2661
g1057
Nssbasg843
I00
sbag0
(g818
g2
Ntp2662
Rp2663
(dp2664
g822
Nsg823
(lp2665
g0
(g825
g2
Ntp2666
Rp2667
(dp2668
g822
Nsg829
g0
(g830
g2
Ntp2669
Rp2670
(dp2671
g834
(dp2672
sg836
g1057
sg838
I00
sg839
(lp2673
g1055
asbsg841
(dp2674
g1055
Nssbasg843
I00
sbasbsg836
g1506
sg1602
I01
sg1603
g0
(g1604
g2
Ntp2675
Rp2676
(dp2677
g1608
g0
(g1575
g2
Ntp2678
Rp2679
(dp2680
g1579
(lp2681
g0
(g818
g2
Ntp2682
Rp2683
(dp2684
g822
Nsg823
(lp2685
g0
(g825
g2
Ntp2686
Rp2687
(dp2688
g822
Nsg829
g1046
sg841
(dp2689
g1057
I1
ssbag0
(g825
g2
Ntp2690
Rp2691
(dp2692
g822
Nsg829
g2670
sg841
(dp2693
g1055
I1
ssbasg843
I00
sbasbsg1574
g2651
sg1602
I01
sbsg1625
I00
sg838
I00
sg1608
g2679
sg1626
I00
sg1627
g1347
sbag0
(g1569
g2
Ntp2694
Rp2695
(dp2696
g1573
g1350
sg1574
g0
(g1575
g2
Ntp2697
Rp2698
(dp2699
g1579
(lp2700
g0
(g818
g2
Ntp2701
Rp2702
(dp2703
g822
Nsg823
(lp2704
g0
(g825
g2
Ntp2705
Rp2706
(dp2707
g822
Nsg829
g905
sg841
(dp2708
g913
Nssbasg843
I00
sbag0
(g818
g2
Ntp2709
Rp2710
(dp2711
g822
Nsg823
(lp2712
g0
(g825
g2
Ntp2713
Rp2714
(dp2715
g822
Nsg829
g0
(g830
g2
Ntp2716
Rp2717
(dp2718
g834
(dp2719
sg836
g913
sg838
I00
sg839
(lp2720
S'HRAS'
p2721
asbsg841
(dp2722
g2721
Nssbasg843
I00
sbasbsg836
g1535
sg1602
I01
sg1603
g0
(g1604
g2
Ntp2723
Rp2724
(dp2725
g1608
g0
(g1575
g2
Ntp2726
Rp2727
(dp2728
g1579
(lp2729
g0
(g818
g2
Ntp2730
Rp2731
(dp2732
g822
Nsg823
(lp2733
g0
(g825
g2
Ntp2734
Rp2735
(dp2736
g822
Nsg829
g905
sg841
(dp2737
g913
I1
ssbag0
(g825
g2
Ntp2738
Rp2739
(dp2740
g822
Nsg829
g2717
sg841
(dp2741
g2721
I1
ssbasg843
I00
sbasbsg1574
g2698
sg1602
I01
sbsg1625
I00
sg838
I00
sg1608
g2727
sg1626
I00
sg1627
g1353
sbag0
(g1569
g2
Ntp2742
Rp2743
(dp2744
g1573
g1356
sg1574
g0
(g1575
g2
Ntp2745
Rp2746
(dp2747
g1579
(lp2748
g0
(g818
g2
Ntp2749
Rp2750
(dp2751
g822
Nsg823
(lp2752
g0
(g825
g2
Ntp2753
Rp2754
(dp2755
g822
Nsg829
g0
(g830
g2
Ntp2756
Rp2757
(dp2758
g834
(dp2759
sg836
S'MIF'
p2760
sg838
I00
sg839
(lp2761
S'CD74'
p2762
asbsg841
(dp2763
g2762
Nssbasg843
I00
sbag0
(g818
g2
Ntp2764
Rp2765
(dp2766
g822
Nsg823
(lp2767
g0
(g825
g2
Ntp2768
Rp2769
(dp2770
g822
Nsg829
g0
(g830
g2
Ntp2771
Rp2772
(dp2773
g834
(dp2774
sg836
g2762
sg838
I00
sg839
(lp2775
g2760
asbsg841
(dp2776
g2760
Nssbasg843
I00
sbasbsg836
g1559
sg1602
I01
sg1603
g0
(g1604
g2
Ntp2777
Rp2778
(dp2779
g1608
g0
(g1575
g2
Ntp2780
Rp2781
(dp2782
g1579
(lp2783
g0
(g818
g2
Ntp2784
Rp2785
(dp2786
g822
Nsg823
(lp2787
g0
(g825
g2
Ntp2788
Rp2789
(dp2790
g822
Nsg829
g2757
sg841
(dp2791
g2762
I1
ssbag0
(g825
g2
Ntp2792
Rp2793
(dp2794
g822
Nsg829
g2772
sg841
(dp2795
g2760
I1
ssbasg843
I00
sbasbsg1574
g2746
sg1602
I01
sbsg1625
I00
sg838
I00
sg1608
g2781
sg1626
I00
sg1627
g1359
sbag0
(g1569
g2
Ntp2796
Rp2797
(dp2798
g1573
g1362
sg1574
g0
(g1575
g2
Ntp2799
Rp2800
(dp2801
g1579
(lp2802
g0
(g818
g2
Ntp2803
Rp2804
(dp2805
g822
Nsg823
(lp2806
g0
(g825
g2
Ntp2807
Rp2808
(dp2809
g822
Nsg829
g0
(g830
g2
Ntp2810
Rp2811
(dp2812
g834
(dp2813
sg836
S'CREB1'
p2814
sg838
I00
sg839
(lp2815
S'CREBBP'
p2816
asbsg841
(dp2817
g2816
Nssbasg843
I00
sbag0
(g818
g2
Ntp2818
Rp2819
(dp2820
g822
Nsg823
(lp2821
g0
(g825
g2
Ntp2822
Rp2823
(dp2824
g822
Nsg829
g0
(g830
g2
Ntp2825
Rp2826
(dp2827
g834
(dp2828
sg836
g2816
sg838
I00
sg839
(lp2829
g2814
asbsg841
(dp2830
g2814
Nssbasg843
I00
sbasbsg836
g1543
sg1602
I01
sg1603
g0
(g1604
g2
Ntp2831
Rp2832
(dp2833
g1608
g0
(g1575
g2
Ntp2834
Rp2835
(dp2836
g1579
(lp2837
g0
(g818
g2
Ntp2838
Rp2839
(dp2840
g822
Nsg823
(lp2841
g0
(g825
g2
Ntp2842
Rp2843
(dp2844
g822
Nsg829
g2811
sg841
(dp2845
g2816
I1
ssbag0
(g825
g2
Ntp2846
Rp2847
(dp2848
g822
Nsg829
g2826
sg841
(dp2849
g2814
I1
ssbasg843
I00
sbasbsg1574
g2800
sg1602
I01
sbsg1625
I00
sg838
I00
sg1608
g2835
sg1626
I00
sg1627
g1365
sbag0
(g1569
g2
Ntp2850
Rp2851
(dp2852
g1573
g1368
sg1574
g0
(g1575
g2
Ntp2853
Rp2854
(dp2855
g1579
(lp2856
g0
(g818
g2
Ntp2857
Rp2858
(dp2859
g822
Nsg823
(lp2860
g0
(g825
g2
Ntp2861
Rp2862
(dp2863
g822
Nsg829
g2396
sg841
(dp2864
g888
Nssbasg843
I00
sbag0
(g818
g2
Ntp2865
Rp2866
(dp2867
g822
Nsg823
(lp2868
g0
(g825
g2
Ntp2869
Rp2870
(dp2871
g822
Nsg829
g883
sg841
(dp2872
g890
Nssbasg843
I00
sbasbsg836
g1517
sg1602
I01
sg1603
g0
(g1604
g2
Ntp2873
Rp2874
(dp2875
g1608
g0
(g1575
g2
Ntp2876
Rp2877
(dp2878
g1579
(lp2879
g0
(g818
g2
Ntp2880
Rp2881
(dp2882
g822
Nsg823
(lp2883
g0
(g825
g2
Ntp2884
Rp2885
(dp2886
g822
Nsg829
g2396
sg841
(dp2887
g888
I1
ssbag0
(g825
g2
Ntp2888
Rp2889
(dp2890
g822
Nsg829
g883
sg841
(dp2891
g890
I1
ssbasg843
I00
sbasbsg1574
g2854
sg1602
I01
sbsg1625
I00
sg838
I00
sg1608
g2877
sg1626
I00
sg1627
g1371
sbag0
(g1569
g2
Ntp2892
Rp2893
(dp2894
g1573
g1374
sg1574
g0
(g1575
g2
Ntp2895
Rp2896
(dp2897
g1579
(lp2898
g0
(g818
g2
Ntp2899
Rp2900
(dp2901
g822
Nsg823
(lp2902
g0
(g825
g2
Ntp2903
Rp2904
(dp2905
g822
Nsg829
g2396
sg841
(dp2906
g2402
Nssbasg843
I00
sbag0
(g818
g2
Ntp2907
Rp2908
(dp2909
g822
Nsg823
(lp2910
g0
(g825
g2
Ntp2911
Rp2912
(dp2913
g822
Nsg829
g0
(g830
g2
Ntp2914
Rp2915
(dp2916
g834
(dp2917
sg836
g2402
sg838
I00
sg839
(lp2918
S'GRB2'
p2919
asbsg841
(dp2920
g2919
Nssbasg843
I00
sbasbsg836
g1509
sg1602
I01
sg1603
g0
(g1604
g2
Ntp2921
Rp2922
(dp2923
g1608
g0
(g1575
g2
Ntp2924
Rp2925
(dp2926
g1579
(lp2927
g0
(g818
g2
Ntp2928
Rp2929
(dp2930
g822
Nsg823
(lp2931
g0
(g825
g2
Ntp2932
Rp2933
(dp2934
g822
Nsg829
g2396
sg841
(dp2935
g2402
I1
ssbag0
(g825
g2
Ntp2936
Rp2937
(dp2938
g822
Nsg829
g2915
sg841
(dp2939
g2919
I1
ssbasg843
I00
sbasbsg1574
g2896
sg1602
I01
sbsg1625
I00
sg838
I00
sg1608
g2925
sg1626
I00
sg1627
g1377
sbag0
(g1569
g2
Ntp2940
Rp2941
(dp2942
g1573
g1380
sg1574
g0
(g1575
g2
Ntp2943
Rp2944
(dp2945
g1579
(lp2946
g0
(g818
g2
Ntp2947
Rp2948
(dp2949
g822
Nsg823
(lp2950
g0
(g825
g2
Ntp2951
Rp2952
(dp2953
g822
Nsg829
g0
(g830
g2
Ntp2954
Rp2955
(dp2956
g834
(dp2957
sg836
g868
sg838
I00
sg839
(lp2958
g866
asbsg841
(dp2959
g866
Nssbasg843
I00
sbag0
(g818
g2
Ntp2960
Rp2961
(dp2962
g822
Nsg823
(lp2963
g0
(g825
g2
Ntp2964
Rp2965
(dp2966
g822
Nsg829
g859
sg841
(dp2967
g868
Nssbasg843
I00
sbasbsg836
g1550
sg1602
I01
sg1603
g0
(g1604
g2
Ntp2968
Rp2969
(dp2970
g1608
g0
(g1575
g2
Ntp2971
Rp2972
(dp2973
g1579
(lp2974
g0
(g818
g2
Ntp2975
Rp2976
(dp2977
g822
Nsg823
(lp2978
g0
(g825
g2
Ntp2979
Rp2980
(dp2981
g822
Nsg829
g2955
sg841
(dp2982
g866
I1
ssbag0
(g825
g2
Ntp2983
Rp2984
(dp2985
g822
Nsg829
g859
sg841
(dp2986
g868
I1
ssbasg843
I00
sbasbsg1574
g2944
sg1602
I01
sbsg1625
I00
sg838
I00
sg1608
g2972
sg1626
I00
sg1627
g1383
sbag0
(g1569
g2
Ntp2987
Rp2988
(dp2989
g1573
g1386
sg1574
g0
(g1575
g2
Ntp2990
Rp2991
(dp2992
g1579
(lp2993
g0
(g818
g2
Ntp2994
Rp2995
(dp2996
g822
Nsg823
(lp2997
g0
(g825
g2
Ntp2998
Rp2999
(dp3000
g822
Nsg829
g0
(g830
g2
Ntp3001
Rp3002
(dp3003
g834
(dp3004
sg836
g2505
sg838
I00
sg839
(lp3005
S'ESTRADIOL'
p3006
asbsg841
(dp3007
g3006
Nssbasg843
I00
sbag0
(g818
g2
Ntp3008
Rp3009
(dp3010
g822
Nsg823
(lp3011
g0
(g825
g2
Ntp3012
Rp3013
(dp3014
g822
Nsg829
g2499
sg841
(dp3015
g2505
Nssbasg843
I00
sbasbsg836
g1547
sg1602
I01
sg1603
g0
(g1604
g2
Ntp3016
Rp3017
(dp3018
g1608
g0
(g1575
g2
Ntp3019
Rp3020
(dp3021
g1579
(lp3022
g0
(g818
g2
Ntp3023
Rp3024
(dp3025
g822
Nsg823
(lp3026
g0
(g825
g2
Ntp3027
Rp3028
(dp3029
g822
Nsg829
g3002
sg841
(dp3030
g3006
I1
ssbag0
(g825
g2
Ntp3031
Rp3032
(dp3033
g822
Nsg829
g2499
sg841
(dp3034
g2505
I1
ssbasg843
I00
sbasbsg1574
g2991
sg1602
I01
sbsg1625
I00
sg838
I00
sg1608
g3020
sg1626
I00
sg1627
g1389
sbag0
(g1569
g2
Ntp3035
Rp3036
(dp3037
g1573
g1392
sg1574
g0
(g1575
g2
Ntp3038
Rp3039
(dp3040
g1579
(lp3041
g0
(g818
g2
Ntp3042
Rp3043
(dp3044
g822
Nsg823
(lp3045
g0
(g825
g2
Ntp3046
Rp3047
(dp3048
g822
Nsg829
g0
(g830
g2
Ntp3049
Rp3050
(dp3051
g834
(dp3052
sg836
S'PRKC_FAMILY'
p3053
sg838
I00
sg839
(lp3054
sbsg841
(dp3055
sbasg843
I00
sbag0
(g818
g2
Ntp3056
Rp3057
(dp3058
g822
Nsg823
(lp3059
g0
(g825
g2
Ntp3060
Rp3061
(dp3062
g822
Nsg829
g1003
sg841
(dp3063
S'S499'
p3064
g1008
ssbasg843
I00
sbasbsg836
g1523
sg1602
I00
sg1603
g0
(g1604
g2
Ntp3065
Rp3066
(dp3067
g1608
g0
(g1575
g2
Ntp3068
Rp3069
(dp3070
g1579
(lp3071
g0
(g818
g2
Ntp3072
Rp3073
(dp3074
g822
Nsg823
(lp3075
g3047
asg843
I00
sbag0
(g818
g2
Ntp3076
Rp3077
(dp3078
g822
Nsg823
(lp3079
g0
(g825
g2
Ntp3080
Rp3081
(dp3082
g822
Nsg829
g1003
sg841
(dp3083
g3064
g1009
ssbasg843
I00
sbasbsg1574
g3039
sg1602
I00
sbsg1625
I00
sg838
I00
sg1608
g3069
sg1626
I00
sg1627
Nsbag0
(g1569
g2
Ntp3084
Rp3085
(dp3086
g1573
g1395
sg1574
g0
(g1575
g2
Ntp3087
Rp3088
(dp3089
g1579
(lp3090
g0
(g818
g2
Ntp3091
Rp3092
(dp3093
g822
Nsg823
(lp3094
g0
(g825
g2
Ntp3095
Rp3096
(dp3097
g822
Nsg829
g0
(g830
g2
Ntp3098
Rp3099
(dp3100
g834
(dp3101
sg836
S'JAK1'
p3102
sg838
I00
sg839
(lp3103
sbsg841
(dp3104
sbasg843
I00
sbag0
(g818
g2
Ntp3105
Rp3106
(dp3107
g822
Nsg823
(lp3108
g0
(g825
g2
Ntp3109
Rp3110
(dp3111
g822
Nsg829
g1003
sg841
(dp3112
S'Y341'
p3113
g1008
ssbasg843
I00
sbasbsg836
g1549
sg1602
I00
sg1603
g0
(g1604
g2
Ntp3114
Rp3115
(dp3116
g1608
g0
(g1575
g2
Ntp3117
Rp3118
(dp3119
g1579
(lp3120
g0
(g818
g2
Ntp3121
Rp3122
(dp3123
g822
Nsg823
(lp3124
g3096
asg843
I00
sbag0
(g818
g2
Ntp3125
Rp3126
(dp3127
g822
Nsg823
(lp3128
g0
(g825
g2
Ntp3129
Rp3130
(dp3131
g822
Nsg829
g1003
sg841
(dp3132
g3113
g1009
ssbasg843
I00
sbasbsg1574
g3088
sg1602
I00
sbsg1625
I00
sg838
I00
sg1608
g3118
sg1626
I00
sg1627
Nsbag0
(g1569
g2
Ntp3133
Rp3134
(dp3135
g1573
g1398
sg1574
g0
(g1575
g2
Ntp3136
Rp3137
(dp3138
g1579
(lp3139
g0
(g818
g2
Ntp3140
Rp3141
(dp3142
g822
Nsg823
(lp3143
g0
(g825
g2
Ntp3144
Rp3145
(dp3146
g822
Nsg829
g0
(g830
g2
Ntp3147
Rp3148
(dp3149
g834
(dp3150
sg836
S'SRC'
p3151
sg838
I00
sg839
(lp3152
sbsg841
(dp3153
sbasg843
I00
sbag0
(g818
g2
Ntp3154
Rp3155
(dp3156
g822
Nsg823
(lp3157
g0
(g825
g2
Ntp3158
Rp3159
(dp3160
g822
Nsg829
g1003
sg841
(dp3161
S'Y340'
p3162
g1008
ssbasg843
I00
sbasbsg836
g1538
sg1602
I00
sg1603
g0
(g1604
g2
Ntp3163
Rp3164
(dp3165
g1608
g0
(g1575
g2
Ntp3166
Rp3167
(dp3168
g1579
(lp3169
g0
(g818
g2
Ntp3170
Rp3171
(dp3172
g822
Nsg823
(lp3173
g3145
asg843
I00
sbag0
(g818
g2
Ntp3174
Rp3175
(dp3176
g822
Nsg823
(lp3177
g0
(g825
g2
Ntp3178
Rp3179
(dp3180
g822
Nsg829
g1003
sg841
(dp3181
g3162
g1009
ssbasg843
I00
sbasbsg1574
g3137
sg1602
I00
sbsg1625
I00
sg838
I00
sg1608
g3167
sg1626
I00
sg1627
Nsbag0
(g1569
g2
Ntp3182
Rp3183
(dp3184
g1573
g1401
sg1574
g0
(g1575
g2
Ntp3185
Rp3186
(dp3187
g1579
(lp3188
g0
(g818
g2
Ntp3189
Rp3190
(dp3191
g822
Nsg823
(lp3192
g0
(g825
g2
Ntp3193
Rp3194
(dp3195
g822
Nsg829
g0
(g830
g2
Ntp3196
Rp3197
(dp3198
g834
(dp3199
sg836
S'PRKA_FAMILY'
p3200
sg838
I00
sg839
(lp3201
sbsg841
(dp3202
sbasg843
I00
sbag0
(g818
g2
Ntp3203
Rp3204
(dp3205
g822
Nsg823
(lp3206
g0
(g825
g2
Ntp3207
Rp3208
(dp3209
g822
Nsg829
g1003
sg841
(dp3210
S'S43'
p3211
g1008
ssbasg843
I00
sbasbsg836
g1527
sg1602
I00
sg1603
g0
(g1604
g2
Ntp3212
Rp3213
(dp3214
g1608
g0
(g1575
g2
Ntp3215
Rp3216
(dp3217
g1579
(lp3218
g0
(g818
g2
Ntp3219
Rp3220
(dp3221
g822
Nsg823
(lp3222
g3194
asg843
I00
sbag0
(g818
g2
Ntp3223
Rp3224
(dp3225
g822
Nsg823
(lp3226
g0
(g825
g2
Ntp3227
Rp3228
(dp3229
g822
Nsg829
g1003
sg841
(dp3230
g3211
g1009
ssbasg843
I00
sbasbsg1574
g3186
sg1602
I00
sbsg1625
I00
sg838
I00
sg1608
g3216
sg1626
I00
sg1627
Nsbag0
(g1569
g2
Ntp3231
Rp3232
(dp3233
g1573
g1404
sg1574
g0
(g1575
g2
Ntp3234
Rp3235
(dp3236
g1579
(lp3237
g0
(g818
g2
Ntp3238
Rp3239
(dp3240
g822
Nsg823
(lp3241
g0
(g825
g2
Ntp3242
Rp3243
(dp3244
g822
Nsg829
g0
(g830
g2
Ntp3245
Rp3246
(dp3247
g834
(dp3248
sg836
S'P2_FAMILY'
p3249
sg838
I00
sg839
(lp3250
sbsg841
(dp3251
sbasg843
I00
sbag0
(g818
g2
Ntp3252
Rp3253
(dp3254
g822
Nsg823
(lp3255
g0
(g825
g2
Ntp3256
Rp3257
(dp3258
g822
Nsg829
g1046
sg841
(dp3259
S'T25'
p3260
g1008
ssbasg843
I00
sbasbsg836
g1518
sg1602
I00
sg1603
g0
(g1604
g2
Ntp3261
Rp3262
(dp3263
g1608
g0
(g1575
g2
Ntp3264
Rp3265
(dp3266
g1579
(lp3267
g0
(g818
g2
Ntp3268
Rp3269
(dp3270
g822
Nsg823
(lp3271
g3243
asg843
I00
sbag0
(g818
g2
Ntp3272
Rp3273
(dp3274
g822
Nsg823
(lp3275
g0
(g825
g2
Ntp3276
Rp3277
(dp3278
g822
Nsg829
g1046
sg841
(dp3279
g3260
g1009
ssbasg843
I00
sbasbsg1574
g3235
sg1602
I00
sbsg1625
I00
sg838
I00
sg1608
g3265
sg1626
I00
sg1627
Nsbag0
(g1569
g2
Ntp3280
Rp3281
(dp3282
g1573
g1407
sg1574
g0
(g1575
g2
Ntp3283
Rp3284
(dp3285
g1579
(lp3286
g0
(g818
g2
Ntp3287
Rp3288
(dp3289
g822
Nsg823
(lp3290
g0
(g825
g2
Ntp3291
Rp3292
(dp3293
g822
Nsg829
g0
(g830
g2
Ntp3294
Rp3295
(dp3296
g834
(dp3297
sg836
S'AKT_FAMILY'
p3298
sg838
I00
sg839
(lp3299
sbsg841
(dp3300
sbasg843
I00
sbag0
(g818
g2
Ntp3301
Rp3302
(dp3303
g822
Nsg823
(lp3304
g0
(g825
g2
Ntp3305
Rp3306
(dp3307
g822
Nsg829
g1003
sg841
(dp3308
S'S259'
p3309
g1008
ssbasg843
I00
sbasbsg836
g1555
sg1602
I00
sg1603
g0
(g1604
g2
Ntp3310
Rp3311
(dp3312
g1608
g0
(g1575
g2
Ntp3313
Rp3314
(dp3315
g1579
(lp3316
g0
(g818
g2
Ntp3317
Rp3318
(dp3319
g822
Nsg823
(lp3320
g3292
asg843
I00
sbag0
(g818
g2
Ntp3321
Rp3322
(dp3323
g822
Nsg823
(lp3324
g0
(g825
g2
Ntp3325
Rp3326
(dp3327
g822
Nsg829
g1003
sg841
(dp3328
g3309
g1009
ssbasg843
I00
sbasbsg1574
g3284
sg1602
I00
sbsg1625
I00
sg838
I00
sg1608
g3314
sg1626
I00
sg1627
Nsbag0
(g1569
g2
Ntp3329
Rp3330
(dp3331
g1573
g1410
sg1574
g0
(g1575
g2
Ntp3332
Rp3333
(dp3334
g1579
(lp3335
g0
(g818
g2
Ntp3336
Rp3337
(dp3338
g822
Nsg823
(lp3339
g0
(g825
g2
Ntp3340
Rp3341
(dp3342
g822
Nsg829
g0
(g830
g2
Ntp3343
Rp3344
(dp3345
g834
(dp3346
sg836
S'RET'
p3347
sg838
I00
sg839
(lp3348
sbsg841
(dp3349
sbasg843
I00
sbag0
(g818
g2
Ntp3350
Rp3351
(dp3352
g822
Nsg823
(lp3353
g0
(g825
g2
Ntp3354
Rp3355
(dp3356
g822
Nsg829
g1072
sg841
(dp3357
S'Y187'
p3358
g1008
ssbasg843
I00
sbasbsg836
g1511
sg1602
I00
sg1603
g0
(g1604
g2
Ntp3359
Rp3360
(dp3361
g1608
g0
(g1575
g2
Ntp3362
Rp3363
(dp3364
g1579
(lp3365
g0
(g818
g2
Ntp3366
Rp3367
(dp3368
g822
Nsg823
(lp3369
g3341
asg843
I00
sbag0
(g818
g2
Ntp3370
Rp3371
(dp3372
g822
Nsg823
(lp3373
g0
(g825
g2
Ntp3374
Rp3375
(dp3376
g822
Nsg829
g1072
sg841
(dp3377
g3358
g1009
ssbasg843
I00
sbasbsg1574
g3333
sg1602
I00
sbsg1625
I00
sg838
I00
sg1608
g3363
sg1626
I00
sg1627
Nsbag0
(g1569
g2
Ntp3378
Rp3379
(dp3380
g1573
g1413
sg1574
g0
(g1575
g2
Ntp3381
Rp3382
(dp3383
g1579
(lp3384
g0
(g818
g2
Ntp3385
Rp3386
(dp3387
g822
Nsg823
(lp3388
g0
(g825
g2
Ntp3389
Rp3390
(dp3391
g822
Nsg829
g0
(g830
g2
Ntp3392
Rp3393
(dp3394
g834
(dp3395
sg836
S'DUSP4'
p3396
sg838
I00
sg839
(lp3397
sbsg841
(dp3398
sbasg843
I00
sbag0
(g818
g2
Ntp3399
Rp3400
(dp3401
g822
Nsg823
(lp3402
g0
(g825
g2
Ntp3403
Rp3404
(dp3405
g822
Nsg829
g1072
sg841
(dp3406
S'T185'
p3407
g1009
ssbasg843
I00
sbasbsg836
g1558
sg1602
I00
sg1603
g0
(g1604
g2
Ntp3408
Rp3409
(dp3410
g1608
g0
(g1575
g2
Ntp3411
Rp3412
(dp3413
g1579
(lp3414
g0
(g818
g2
Ntp3415
Rp3416
(dp3417
g822
Nsg823
(lp3418
g0
(g825
g2
Ntp3419
Rp3420
(dp3421
g822
Nsg829
g3393
sg841
(dp3422
sbasg843
I00
sbag0
(g818
g2
Ntp3423
Rp3424
(dp3425
g822
Nsg823
(lp3426
g0
(g825
g2
Ntp3427
Rp3428
(dp3429
g822
Nsg829
g1072
sg841
(dp3430
g3407
g1008
ssbasg843
I00
sbasbsg1574
g3382
sg1602
I00
sbsg1625
I00
sg838
I00
sg1608
g3412
sg1626
I00
sg1627
Nsbag0
(g1569
g2
Ntp3431
Rp3432
(dp3433
g1573
g1416
sg1574
g0
(g1575
g2
Ntp3434
Rp3435
(dp3436
g1579
(lp3437
g0
(g818
g2
Ntp3438
Rp3439
(dp3440
g822
Nsg823
(lp3441
g0
(g825
g2
Ntp3442
Rp3443
(dp3444
g822
Nsg829
g883
sg841
(dp3445
g886
g1108
ssbasg843
I00
sbag0
(g818
g2
Ntp3446
Rp3447
(dp3448
g822
Nsg823
(lp3449
g0
(g825
g2
Ntp3450
Rp3451
(dp3452
g822
Nsg829
g928
sg841
(dp3453
g931
S'inactive'
p3454
ssbasg843
I00
sbasbsg836
g1521
sg1602
I00
sg1603
g0
(g1604
g2
Ntp3455
Rp3456
(dp3457
g1608
g0
(g1575
g2
Ntp3458
Rp3459
(dp3460
g1579
(lp3461
g0
(g818
g2
Ntp3462
Rp3463
(dp3464
g822
Nsg823
(lp3465
g0
(g825
g2
Ntp3466
Rp3467
(dp3468
g822
Nsg829
g883
sg841
(dp3469
g886
g1108
ssbasg843
I00
sbag0
(g818
g2
Ntp3470
Rp3471
(dp3472
g822
Nsg823
(lp3473
g0
(g825
g2
Ntp3474
Rp3475
(dp3476
g822
Nsg829
g928
sg841
(dp3477
g931
g1108
ssbasg843
I00
sbasbsg1574
g3435
sg1602
I00
sbsg1625
I00
sg838
I00
sg1608
g3459
sg1626
I00
sg1627
Nsbag0
(g1569
g2
Ntp3478
Rp3479
(dp3480
g1573
g1419
sg1574
g0
(g1575
g2
Ntp3481
Rp3482
(dp3483
g1579
(lp3484
g0
(g818
g2
Ntp3485
Rp3486
(dp3487
g822
Nsg823
(lp3488
g0
(g825
g2
Ntp3489
Rp3490
(dp3491
g822
Nsg829
g928
sg841
(dp3492
S'GtpBound'
p3493
g1108
ssbasg843
I00
sbag0
(g818
g2
Ntp3494
Rp3495
(dp3496
g822
Nsg823
(lp3497
g0
(g825
g2
Ntp3498
Rp3499
(dp3500
g822
Nsg829
g985
sg841
(dp3501
g988
g3454
ssbasg843
I00
sbasbsg836
g1562
sg1602
I00
sg1603
g0
(g1604
g2
Ntp3502
Rp3503
(dp3504
g1608
g0
(g1575
g2
Ntp3505
Rp3506
(dp3507
g1579
(lp3508
g0
(g818
g2
Ntp3509
Rp3510
(dp3511
g822
Nsg823
(lp3512
g0
(g825
g2
Ntp3513
Rp3514
(dp3515
g822
Nsg829
g928
sg841
(dp3516
g3493
g1108
ssbasg843
I00
sbag0
(g818
g2
Ntp3517
Rp3518
(dp3519
g822
Nsg823
(lp3520
g0
(g825
g2
Ntp3521
Rp3522
(dp3523
g822
Nsg829
g985
sg841
(dp3524
g988
g1108
ssbasg843
I00
sbasbsg1574
g3482
sg1602
I00
sbsg1625
I00
sg838
I00
sg1608
g3506
sg1626
I00
sg1627
Nsbag0
(g1569
g2
Ntp3525
Rp3526
(dp3527
g1573
g1422
sg1574
g0
(g1575
g2
Ntp3528
Rp3529
(dp3530
g1579
(lp3531
g0
(g818
g2
Ntp3532
Rp3533
(dp3534
g822
Nsg823
(lp3535
g0
(g825
g2
Ntp3536
Rp3537
(dp3538
g822
Nsg829
g905
sg841
(dp3539
g908
g1108
ssbasg843
I00
sbag0
(g818
g2
Ntp3540
Rp3541
(dp3542
g822
Nsg823
(lp3543
g0
(g825
g2
Ntp3544
Rp3545
(dp3546
g822
Nsg829
g985
sg841
(dp3547
S'Kinase'
p3548
g3454
ssbasg843
I00
sbasbsg836
g1525
sg1602
I00
sg1603
g0
(g1604
g2
Ntp3549
Rp3550
(dp3551
g1608
g0
(g1575
g2
Ntp3552
Rp3553
(dp3554
g1579
(lp3555
g0
(g818
g2
Ntp3556
Rp3557
(dp3558
g822
Nsg823
(lp3559
g0
(g825
g2
Ntp3560
Rp3561
(dp3562
g822
Nsg829
g905
sg841
(dp3563
g908
g1108
ssbasg843
I00
sbag0
(g818
g2
Ntp3564
Rp3565
(dp3566
g822
Nsg823
(lp3567
g0
(g825
g2
Ntp3568
Rp3569
(dp3570
g822
Nsg829
g985
sg841
(dp3571
g3548
g1108
ssbasg843
I00
sbasbsg1574
g3529
sg1602
I00
sbsg1625
I00
sg838
I00
sg1608
g3553
sg1626
I00
sg1627
Nsbag0
(g1569
g2
Ntp3572
Rp3573
(dp3574
g1573
g1425
sg1574
g0
(g1575
g2
Ntp3575
Rp3576
(dp3577
g1579
(lp3578
g0
(g818
g2
Ntp3579
Rp3580
(dp3581
g822
Nsg823
(lp3582
g0
(g825
g2
Ntp3583
Rp3584
(dp3585
g822
Nsg829
g0
(g830
g2
Ntp3586
Rp3587
(dp3588
g834
(dp3589
S'Catalytic'
p3590
(lp3591
g864
ag865
assg836
S'SOS_FAMILY'
p3592
sg838
I00
sg839
(lp3593
g3590
asbsg841
(dp3594
g3590
g1108
ssbasg843
I00
sbag0
(g818
g2
Ntp3595
Rp3596
(dp3597
g822
Nsg823
(lp3598
g0
(g825
g2
Ntp3599
Rp3600
(dp3601
g822
Nsg829
g928
sg841
(dp3602
S'GtpBound'
p3603
g3454
ssbasg843
I00
sbasbsg836
g1530
sg1602
I00
sg1603
g0
(g1604
g2
Ntp3604
Rp3605
(dp3606
g1608
g0
(g1575
g2
Ntp3607
Rp3608
(dp3609
g1579
(lp3610
g0
(g818
g2
Ntp3611
Rp3612
(dp3613
g822
Nsg823
(lp3614
g0
(g825
g2
Ntp3615
Rp3616
(dp3617
g822
Nsg829
g3587
sg841
(dp3618
g3590
g1108
ssbasg843
I00
sbag0
(g818
g2
Ntp3619
Rp3620
(dp3621
g822
Nsg823
(lp3622
g0
(g825
g2
Ntp3623
Rp3624
(dp3625
g822
Nsg829
g928
sg841
(dp3626
g3603
g1108
ssbasg843
I00
sbasbsg1574
g3576
sg1602
I00
sbsg1625
I00
sg838
I00
sg1608
g3608
sg1626
I00
sg1627
Nsbag0
(g1569
g2
Ntp3627
Rp3628
(dp3629
g1573
g1428
sg1574
g0
(g1575
g2
Ntp3630
Rp3631
(dp3632
g1579
(lp3633
g0
(g818
g2
Ntp3634
Rp3635
(dp3636
g822
Nsg823
(lp3637
g0
(g825
g2
Ntp3638
Rp3639
(dp3640
g822
Nsg829
g859
sg841
(dp3641
g862
g1108
ssbasg843
I00
sbag0
(g818
g2
Ntp3642
Rp3643
(dp3644
g822
Nsg823
(lp3645
g0
(g825
g2
Ntp3646
Rp3647
(dp3648
g822
Nsg829
g883
sg841
(dp3649
S'Catalytic'
p3650
g3454
ssbasg843
I00
sbasbsg836
g1507
sg1602
I00
sg1603
g0
(g1604
g2
Ntp3651
Rp3652
(dp3653
g1608
g0
(g1575
g2
Ntp3654
Rp3655
(dp3656
g1579
(lp3657
g0
(g818
g2
Ntp3658
Rp3659
(dp3660
g822
Nsg823
(lp3661
g0
(g825
g2
Ntp3662
Rp3663
(dp3664
g822
Nsg829
g859
sg841
(dp3665
g862
g1108
ssbasg843
I00
sbag0
(g818
g2
Ntp3666
Rp3667
(dp3668
g822
Nsg823
(lp3669
g0
(g825
g2
Ntp3670
Rp3671
(dp3672
g822
Nsg829
g883
sg841
(dp3673
g3650
g1108
ssbasg843
I00
sbasbsg1574
g3631
sg1602
I00
sbsg1625
I00
sg838
I00
sg1608
g3655
sg1626
I00
sg1627
Nsbag0
(g1569
g2
Ntp3674
Rp3675
(dp3676
g1573
g1431
sg1574
g0
(g1575
g2
Ntp3677
Rp3678
(dp3679
g1579
(lp3680
g0
(g818
g2
Ntp3681
Rp3682
(dp3683
g822
Nsg823
(lp3684
g0
(g825
g2
Ntp3685
Rp3686
(dp3687
g822
Nsg829
g905
sg841
(dp3688
S'GtpBound'
p3689
g1108
ssbasg843
I00
sbag0
(g818
g2
Ntp3690
Rp3691
(dp3692
g822
Nsg823
(lp3693
g0
(g825
g2
Ntp3694
Rp3695
(dp3696
g822
Nsg829
g1003
sg841
(dp3697
g1016
g3454
ssbasg843
I00
sbasbsg836
g1529
sg1602
I00
sg1603
g0
(g1604
g2
Ntp3698
Rp3699
(dp3700
g1608
g0
(g1575
g2
Ntp3701
Rp3702
(dp3703
g1579
(lp3704
g0
(g818
g2
Ntp3705
Rp3706
(dp3707
g822
Nsg823
(lp3708
g0
(g825
g2
Ntp3709
Rp3710
(dp3711
g822
Nsg829
g905
sg841
(dp3712
g3689
g1108
ssbasg843
I00
sbag0
(g818
g2
Ntp3713
Rp3714
(dp3715
g822
Nsg823
(lp3716
g0
(g825
g2
Ntp3717
Rp3718
(dp3719
g822
Nsg829
g1003
sg841
(dp3720
g1016
g1108
ssbasg843
I00
sbasbsg1574
g3678
sg1602
I00
sbsg1625
I00
sg838
I00
sg1608
g3702
sg1626
I00
sg1627
Nsbag0
(g1569
g2
Ntp3721
Rp3722
(dp3723
g1573
g1434
sg1574
g0
(g1575
g2
Ntp3724
Rp3725
(dp3726
g1579
(lp3727
g0
(g818
g2
Ntp3728
Rp3729
(dp3730
g822
Nsg823
(lp3731
g0
(g825
g2
Ntp3732
Rp3733
(dp3734
g822
Nsg829
g0
(g830
g2
Ntp3735
Rp3736
(dp3737
g834
(dp3738
S'Kinase'
p3739
(lp3740
g864
ag865
assg836
S'MAP3K3'
p3741
sg838
I00
sg839
(lp3742
g3739
asbsg841
(dp3743
g3739
g1108
ssbasg843
I00
sbag0
(g818
g2
Ntp3744
Rp3745
(dp3746
g822
Nsg823
(lp3747
g0
(g825
g2
Ntp3748
Rp3749
(dp3750
g822
Nsg829
g1046
sg841
(dp3751
g1053
g3454
ssbasg843
I00
sbasbsg836
g1519
sg1602
I00
sg1603
g0
(g1604
g2
Ntp3752
Rp3753
(dp3754
g1608
g0
(g1575
g2
Ntp3755
Rp3756
(dp3757
g1579
(lp3758
g0
(g818
g2
Ntp3759
Rp3760
(dp3761
g822
Nsg823
(lp3762
g0
(g825
g2
Ntp3763
Rp3764
(dp3765
g822
Nsg829
g3736
sg841
(dp3766
g3739
g1108
ssbasg843
I00
sbag0
(g818
g2
Ntp3767
Rp3768
(dp3769
g822
Nsg823
(lp3770
g0
(g825
g2
Ntp3771
Rp3772
(dp3773
g822
Nsg829
g1046
sg841
(dp3774
g1053
g1108
ssbasg843
I00
sbasbsg1574
g3725
sg1602
I00
sbsg1625
I00
sg838
I00
sg1608
g3756
sg1626
I00
sg1627
Nsbag0
(g1569
g2
Ntp3775
Rp3776
(dp3777
g1573
g1437
sg1574
g0
(g1575
g2
Ntp3778
Rp3779
(dp3780
g1579
(lp3781
g0
(g818
g2
Ntp3782
Rp3783
(dp3784
g822
Nsg823
(lp3785
g0
(g825
g2
Ntp3786
Rp3787
(dp3788
g822
Nsg829
g0
(g830
g2
Ntp3789
Rp3790
(dp3791
g834
(dp3792
S'Catalytic'
p3793
(lp3794
g864
ag865
assg836
S'RASAL1'
p3795
sg838
I00
sg839
(lp3796
g3793
asbsg841
(dp3797
g3793
g1108
ssbasg843
I00
sbag0
(g818
g2
Ntp3798
Rp3799
(dp3800
g822
Nsg823
(lp3801
g0
(g825
g2
Ntp3802
Rp3803
(dp3804
g822
Nsg829
g928
sg841
(dp3805
S'GtpBound'
p3806
g3454
ssbasg843
I00
sbasbsg836
g1565
sg1602
I00
sg1603
g0
(g1604
g2
Ntp3807
Rp3808
(dp3809
g1608
g0
(g1575
g2
Ntp3810
Rp3811
(dp3812
g1579
(lp3813
g0
(g818
g2
Ntp3814
Rp3815
(dp3816
g822
Nsg823
(lp3817
g0
(g825
g2
Ntp3818
Rp3819
(dp3820
g822
Nsg829
g3790
sg841
(dp3821
g3793
g1108
ssbasg843
I00
sbag0
(g818
g2
Ntp3822
Rp3823
(dp3824
g822
Nsg823
(lp3825
g0
(g825
g2
Ntp3826
Rp3827
(dp3828
g822
Nsg829
g928
sg841
(dp3829
g3806
g1108
ssbasg843
I00
sbasbsg1574
g3779
sg1602
I00
sbsg1625
I00
sg838
I00
sg1608
g3811
sg1626
I00
sg1627
Nsbag0
(g1569
g2
Ntp3830
Rp3831
(dp3832
g1573
g1440
sg1574
g0
(g1575
g2
Ntp3833
Rp3834
(dp3835
g1579
(lp3836
g0
(g818
g2
Ntp3837
Rp3838
(dp3839
g822
Nsg823
(lp3840
g0
(g825
g2
Ntp3841
Rp3842
(dp3843
g822
Nsg829
g883
sg841
(dp3844
S'Catalytic'
p3845
g1108
ssbasg843
I00
sbag0
(g818
g2
Ntp3846
Rp3847
(dp3848
g822
Nsg823
(lp3849
g0
(g825
g2
Ntp3850
Rp3851
(dp3852
g822
Nsg829
g947
sg841
(dp3853
g950
g3454
ssbasg843
I00
sbasbsg836
g1524
sg1602
I00
sg1603
g0
(g1604
g2
Ntp3854
Rp3855
(dp3856
g1608
g0
(g1575
g2
Ntp3857
Rp3858
(dp3859
g1579
(lp3860
g0
(g818
g2
Ntp3861
Rp3862
(dp3863
g822
Nsg823
(lp3864
g0
(g825
g2
Ntp3865
Rp3866
(dp3867
g822
Nsg829
g883
sg841
(dp3868
g3845
g1108
ssbasg843
I00
sbag0
(g818
g2
Ntp3869
Rp3870
(dp3871
g822
Nsg823
(lp3872
g0
(g825
g2
Ntp3873
Rp3874
(dp3875
g822
Nsg829
g947
sg841
(dp3876
g950
g1108
ssbasg843
I00
sbasbsg1574
g3834
sg1602
I00
sbsg1625
I00
sg838
I00
sg1608
g3858
sg1626
I00
sg1627
Nsbag0
(g1569
g2
Ntp3877
Rp3878
(dp3879
g1573
g1443
sg1574
g0
(g1575
g2
Ntp3880
Rp3881
(dp3882
g1579
(lp3883
g0
(g818
g2
Ntp3884
Rp3885
(dp3886
g822
Nsg823
(lp3887
g0
(g825
g2
Ntp3888
Rp3889
(dp3890
g822
Nsg829
g905
sg841
(dp3891
S'GtpBound'
p3892
g1108
ssbasg843
I00
sbag0
(g818
g2
Ntp3893
Rp3894
(dp3895
g822
Nsg823
(lp3896
g0
(g825
g2
Ntp3897
Rp3898
(dp3899
g822
Nsg829
g964
sg841
(dp3900
g967
g3454
ssbasg843
I00
sbasbsg836
g1556
sg1602
I00
sg1603
g0
(g1604
g2
Ntp3901
Rp3902
(dp3903
g1608
g0
(g1575
g2
Ntp3904
Rp3905
(dp3906
g1579
(lp3907
g0
(g818
g2
Ntp3908
Rp3909
(dp3910
g822
Nsg823
(lp3911
g0
(g825
g2
Ntp3912
Rp3913
(dp3914
g822
Nsg829
g905
sg841
(dp3915
g3892
g1108
ssbasg843
I00
sbag0
(g818
g2
Ntp3916
Rp3917
(dp3918
g822
Nsg823
(lp3919
g0
(g825
g2
Ntp3920
Rp3921
(dp3922
g822
Nsg829
g964
sg841
(dp3923
g967
g1108
ssbasg843
I00
sbasbsg1574
g3881
sg1602
I00
sbsg1625
I00
sg838
I00
sg1608
g3905
sg1626
I00
sg1627
Nsbag0
(g1569
g2
Ntp3924
Rp3925
(dp3926
g1573
g1446
sg1574
g0
(g1575
g2
Ntp3927
Rp3928
(dp3929
g1579
(lp3930
g0
(g818
g2
Ntp3931
Rp3932
(dp3933
g822
Nsg823
(lp3934
g0
(g825
g2
Ntp3935
Rp3936
(dp3937
g822
Nsg829
g1122
sg841
(dp3938
g1125
g1108
ssbasg843
I00
sbag0
(g818
g2
Ntp3939
Rp3940
(dp3941
g822
Nsg823
(lp3942
g0
(g825
g2
Ntp3943
Rp3944
(dp3945
g822
Nsg829
g905
sg841
(dp3946
S'GtpBound'
p3947
g3454
ssbasg843
I00
sbasbsg836
g1510
sg1602
I00
sg1603
g0
(g1604
g2
Ntp3948
Rp3949
(dp3950
g1608
g0
(g1575
g2
Ntp3951
Rp3952
(dp3953
g1579
(lp3954
g0
(g818
g2
Ntp3955
Rp3956
(dp3957
g822
Nsg823
(lp3958
g0
(g825
g2
Ntp3959
Rp3960
(dp3961
g822
Nsg829
g1122
sg841
(dp3962
g1125
g1108
ssbasg843
I00
sbag0
(g818
g2
Ntp3963
Rp3964
(dp3965
g822
Nsg823
(lp3966
g0
(g825
g2
Ntp3967
Rp3968
(dp3969
g822
Nsg829
g905
sg841
(dp3970
g3947
g1108
ssbasg843
I00
sbasbsg1574
g3928
sg1602
I00
sbsg1625
I00
sg838
I00
sg1608
g3952
sg1626
I00
sg1627
Nsbag0
(g1569
g2
Ntp3971
Rp3972
(dp3973
g1573
g1449
sg1574
g0
(g1575
g2
Ntp3974
Rp3975
(dp3976
g1579
(lp3977
g0
(g818
g2
Ntp3978
Rp3979
(dp3980
g822
Nsg823
(lp3981
g0
(g825
g2
Ntp3982
Rp3983
(dp3984
g822
Nsg829
g964
sg841
(dp3985
S'Kinase'
p3986
g1108
ssbasg843
I00
sbag0
(g818
g2
Ntp3987
Rp3988
(dp3989
g822
Nsg823
(lp3990
g0
(g825
g2
Ntp3991
Rp3992
(dp3993
g822
Nsg829
g1046
sg841
(dp3994
S'Kinase'
p3995
g3454
ssbasg843
I00
sbasbsg836
g1514
sg1602
I00
sg1603
g0
(g1604
g2
Ntp3996
Rp3997
(dp3998
g1608
g0
(g1575
g2
Ntp3999
Rp4000
(dp4001
g1579
(lp4002
g0
(g818
g2
Ntp4003
Rp4004
(dp4005
g822
Nsg823
(lp4006
g0
(g825
g2
Ntp4007
Rp4008
(dp4009
g822
Nsg829
g964
sg841
(dp4010
g3986
g1108
ssbasg843
I00
sbag0
(g818
g2
Ntp4011
Rp4012
(dp4013
g822
Nsg823
(lp4014
g0
(g825
g2
Ntp4015
Rp4016
(dp4017
g822
Nsg829
g1046
sg841
(dp4018
g3995
g1108
ssbasg843
I00
sbasbsg1574
g3975
sg1602
I00
sbsg1625
I00
sg838
I00
sg1608
g4000
sg1626
I00
sg1627
Nsbag0
(g1569
g2
Ntp4019
Rp4020
(dp4021
g1573
g1452
sg1574
g0
(g1575
g2
Ntp4022
Rp4023
(dp4024
g1579
(lp4025
g0
(g818
g2
Ntp4026
Rp4027
(dp4028
g822
Nsg823
(lp4029
g0
(g825
g2
Ntp4030
Rp4031
(dp4032
g822
Nsg829
g0
(g830
g2
Ntp4033
Rp4034
(dp4035
g834
(dp4036
S'Catalytic'
p4037
(lp4038
g864
ag865
assg836
S'RASA4'
p4039
sg838
I00
sg839
(lp4040
g4037
asbsg841
(dp4041
g4037
g1108
ssbasg843
I00
sbag0
(g818
g2
Ntp4042
Rp4043
(dp4044
g822
Nsg823
(lp4045
g0
(g825
g2
Ntp4046
Rp4047
(dp4048
g822
Nsg829
g947
sg841
(dp4049
S'GtpBound'
p4050
g3454
ssbasg843
I00
sbasbsg836
g1534
sg1602
I00
sg1603
g0
(g1604
g2
Ntp4051
Rp4052
(dp4053
g1608
g0
(g1575
g2
Ntp4054
Rp4055
(dp4056
g1579
(lp4057
g0
(g818
g2
Ntp4058
Rp4059
(dp4060
g822
Nsg823
(lp4061
g0
(g825
g2
Ntp4062
Rp4063
(dp4064
g822
Nsg829
g4034
sg841
(dp4065
g4037
g1108
ssbasg843
I00
sbag0
(g818
g2
Ntp4066
Rp4067
(dp4068
g822
Nsg823
(lp4069
g0
(g825
g2
Ntp4070
Rp4071
(dp4072
g822
Nsg829
g947
sg841
(dp4073
g4050
g1108
ssbasg843
I00
sbasbsg1574
g4023
sg1602
I00
sbsg1625
I00
sg838
I00
sg1608
g4055
sg1626
I00
sg1627
Nsbag0
(g1569
g2
Ntp4074
Rp4075
(dp4076
g1573
g1455
sg1574
g0
(g1575
g2
Ntp4077
Rp4078
(dp4079
g1579
(lp4080
g0
(g818
g2
Ntp4081
Rp4082
(dp4083
g822
Nsg823
(lp4084
g0
(g825
g2
Ntp4085
Rp4086
(dp4087
g822
Nsg829
g947
sg841
(dp4088
S'GtpBound'
p4089
g1108
ssbasg843
I00
sbag0
(g818
g2
Ntp4090
Rp4091
(dp4092
g822
Nsg823
(lp4093
g0
(g825
g2
Ntp4094
Rp4095
(dp4096
g822
Nsg829
g1003
sg841
(dp4097
S'Kinase'
p4098
g3454
ssbasg843
I00
sbasbsg836
g1528
sg1602
I00
sg1603
g0
(g1604
g2
Ntp4099
Rp4100
(dp4101
g1608
g0
(g1575
g2
Ntp4102
Rp4103
(dp4104
g1579
(lp4105
g0
(g818
g2
Ntp4106
Rp4107
(dp4108
g822
Nsg823
(lp4109
g0
(g825
g2
Ntp4110
Rp4111
(dp4112
g822
Nsg829
g947
sg841
(dp4113
g4089
g1108
ssbasg843
I00
sbag0
(g818
g2
Ntp4114
Rp4115
(dp4116
g822
Nsg823
(lp4117
g0
(g825
g2
Ntp4118
Rp4119
(dp4120
g822
Nsg829
g1003
sg841
(dp4121
g4098
g1108
ssbasg843
I00
sbasbsg1574
g4078
sg1602
I00
sbsg1625
I00
sg838
I00
sg1608
g4103
sg1626
I00
sg1627
Nsbag0
(g1569
g2
Ntp4122
Rp4123
(dp4124
g1573
g1458
sg1574
g0
(g1575
g2
Ntp4125
Rp4126
(dp4127
g1579
(lp4128
g0
(g818
g2
Ntp4129
Rp4130
(dp4131
g822
Nsg823
(lp4132
g0
(g825
g2
Ntp4133
Rp4134
(dp4135
g822
Nsg829
g883
sg841
(dp4136
S'Catalytic'
p4137
g1108
ssbasg843
I00
sbag0
(g818
g2
Ntp4138
Rp4139
(dp4140
g822
Nsg823
(lp4141
g0
(g825
g2
Ntp4142
Rp4143
(dp4144
g822
Nsg829
g905
sg841
(dp4145
S'GtpBound'
p4146
g3454
ssbasg843
I00
sbasbsg836
g1536
sg1602
I00
sg1603
g0
(g1604
g2
Ntp4147
Rp4148
(dp4149
g1608
g0
(g1575
g2
Ntp4150
Rp4151
(dp4152
g1579
(lp4153
g0
(g818
g2
Ntp4154
Rp4155
(dp4156
g822
Nsg823
(lp4157
g0
(g825
g2
Ntp4158
Rp4159
(dp4160
g822
Nsg829
g883
sg841
(dp4161
g4137
g1108
ssbasg843
I00
sbag0
(g818
g2
Ntp4162
Rp4163
(dp4164
g822
Nsg823
(lp4165
g0
(g825
g2
Ntp4166
Rp4167
(dp4168
g822
Nsg829
g905
sg841
(dp4169
g4146
g1108
ssbasg843
I00
sbasbsg1574
g4126
sg1602
I00
sbsg1625
I00
sg838
I00
sg1608
g4151
sg1626
I00
sg1627
Nsbag0
(g1569
g2
Ntp4170
Rp4171
(dp4172
g1573
g1461
sg1574
g0
(g1575
g2
Ntp4173
Rp4174
(dp4175
g1579
(lp4176
g0
(g818
g2
Ntp4177
Rp4178
(dp4179
g822
Nsg823
(lp4180
g0
(g825
g2
Ntp4181
Rp4182
(dp4183
g822
Nsg829
g985
sg841
(dp4184
S'Kinase'
p4185
g1108
ssbasg843
I00
sbag0
(g818
g2
Ntp4186
Rp4187
(dp4188
g822
Nsg823
(lp4189
g0
(g825
g2
Ntp4190
Rp4191
(dp4192
g822
Nsg829
g1046
sg841
(dp4193
S'Kinase'
p4194
g3454
ssbasg843
I00
sbasbsg836
g1557
sg1602
I00
sg1603
g0
(g1604
g2
Ntp4195
Rp4196
(dp4197
g1608
g0
(g1575
g2
Ntp4198
Rp4199
(dp4200
g1579
(lp4201
g0
(g818
g2
Ntp4202
Rp4203
(dp4204
g822
Nsg823
(lp4205
g0
(g825
g2
Ntp4206
Rp4207
(dp4208
g822
Nsg829
g985
sg841
(dp4209
g4185
g1108
ssbasg843
I00
sbag0
(g818
g2
Ntp4210
Rp4211
(dp4212
g822
Nsg823
(lp4213
g0
(g825
g2
Ntp4214
Rp4215
(dp4216
g822
Nsg829
g1046
sg841
(dp4217
g4194
g1108
ssbasg843
I00
sbasbsg1574
g4174
sg1602
I00
sbsg1625
I00
sg838
I00
sg1608
g4199
sg1626
I00
sg1627
Nsbag0
(g1569
g2
Ntp4218
Rp4219
(dp4220
g1573
g1464
sg1574
g0
(g1575
g2
Ntp4221
Rp4222
(dp4223
g1579
(lp4224
g0
(g818
g2
Ntp4225
Rp4226
(dp4227
g822
Nsg823
(lp4228
g0
(g825
g2
Ntp4229
Rp4230
(dp4231
g822
Nsg829
g0
(g830
g2
Ntp4232
Rp4233
(dp4234
g834
(dp4235
S'Catalytic'
p4236
(lp4237
g864
ag865
assg836
S'DAB2IP'
p4238
sg838
I00
sg839
(lp4239
g4236
asbsg841
(dp4240
g4236
g1108
ssbasg843
I00
sbag0
(g818
g2
Ntp4241
Rp4242
(dp4243
g822
Nsg823
(lp4244
g0
(g825
g2
Ntp4245
Rp4246
(dp4247
g822
Nsg829
g947
sg841
(dp4248
S'GtpBound'
p4249
g3454
ssbasg843
I00
sbasbsg836
g1564
sg1602
I00
sg1603
g0
(g1604
g2
Ntp4250
Rp4251
(dp4252
g1608
g0
(g1575
g2
Ntp4253
Rp4254
(dp4255
g1579
(lp4256
g0
(g818
g2
Ntp4257
Rp4258
(dp4259
g822
Nsg823
(lp4260
g0
(g825
g2
Ntp4261
Rp4262
(dp4263
g822
Nsg829
g4233
sg841
(dp4264
g4236
g1108
ssbasg843
I00
sbag0
(g818
g2
Ntp4265
Rp4266
(dp4267
g822
Nsg823
(lp4268
g0
(g825
g2
Ntp4269
Rp4270
(dp4271
g822
Nsg829
g947
sg841
(dp4272
g4249
g1108
ssbasg843
I00
sbasbsg1574
g4222
sg1602
I00
sbsg1625
I00
sg838
I00
sg1608
g4254
sg1626
I00
sg1627
Nsbag0
(g1569
g2
Ntp4273
Rp4274
(dp4275
g1573
g1467
sg1574
g0
(g1575
g2
Ntp4276
Rp4277
(dp4278
g1579
(lp4279
g0
(g818
g2
Ntp4280
Rp4281
(dp4282
g822
Nsg823
(lp4283
g0
(g825
g2
Ntp4284
Rp4285
(dp4286
g822
Nsg829
g947
sg841
(dp4287
S'GtpBound'
p4288
g1108
ssbasg843
I00
sbag0
(g818
g2
Ntp4289
Rp4290
(dp4291
g822
Nsg823
(lp4292
g0
(g825
g2
Ntp4293
Rp4294
(dp4295
g822
Nsg829
g985
sg841
(dp4296
S'Kinase'
p4297
g3454
ssbasg843
I00
sbasbsg836
g1567
sg1602
I00
sg1603
g0
(g1604
g2
Ntp4298
Rp4299
(dp4300
g1608
g0
(g1575
g2
Ntp4301
Rp4302
(dp4303
g1579
(lp4304
g0
(g818
g2
Ntp4305
Rp4306
(dp4307
g822
Nsg823
(lp4308
g0
(g825
g2
Ntp4309
Rp4310
(dp4311
g822
Nsg829
g947
sg841
(dp4312
g4288
g1108
ssbasg843
I00
sbag0
(g818
g2
Ntp4313
Rp4314
(dp4315
g822
Nsg823
(lp4316
g0
(g825
g2
Ntp4317
Rp4318
(dp4319
g822
Nsg829
g985
sg841
(dp4320
g4297
g1108
ssbasg843
I00
sbasbsg1574
g4277
sg1602
I00
sbsg1625
I00
sg838
I00
sg1608
g4302
sg1626
I00
sg1627
Nsbag0
(g1569
g2
Ntp4321
Rp4322
(dp4323
g1573
g1470
sg1574
g0
(g1575
g2
Ntp4324
Rp4325
(dp4326
g1579
(lp4327
g0
(g818
g2
Ntp4328
Rp4329
(dp4330
g822
Nsg823
(lp4331
g0
(g825
g2
Ntp4332
Rp4333
(dp4334
g822
Nsg829
g1122
sg841
(dp4335
S'Catalytic'
p4336
g1108
ssbasg843
I00
sbag0
(g818
g2
Ntp4337
Rp4338
(dp4339
g822
Nsg823
(lp4340
g0
(g825
g2
Ntp4341
Rp4342
(dp4343
g822
Nsg829
g947
sg841
(dp4344
S'GtpBound'
p4345
g3454
ssbasg843
I00
sbasbsg836
g1520
sg1602
I00
sg1603
g0
(g1604
g2
Ntp4346
Rp4347
(dp4348
g1608
g0
(g1575
g2
Ntp4349
Rp4350
(dp4351
g1579
(lp4352
g0
(g818
g2
Ntp4353
Rp4354
(dp4355
g822
Nsg823
(lp4356
g0
(g825
g2
Ntp4357
Rp4358
(dp4359
g822
Nsg829
g1122
sg841
(dp4360
g4336
g1108
ssbasg843
I00
sbag0
(g818
g2
Ntp4361
Rp4362
(dp4363
g822
Nsg823
(lp4364
g0
(g825
g2
Ntp4365
Rp4366
(dp4367
g822
Nsg829
g947
sg841
(dp4368
g4345
g1108
ssbasg843
I00
sbasbsg1574
g4325
sg1602
I00
sbsg1625
I00
sg838
I00
sg1608
g4350
sg1626
I00
sg1627
Nsbag0
(g1569
g2
Ntp4369
Rp4370
(dp4371
g1573
g1473
sg1574
g0
(g1575
g2
Ntp4372
Rp4373
(dp4374
g1579
(lp4375
g0
(g818
g2
Ntp4376
Rp4377
(dp4378
g822
Nsg823
(lp4379
g0
(g825
g2
Ntp4380
Rp4381
(dp4382
g822
Nsg829
g1003
sg841
(dp4383
S'Kinase'
p4384
g1108
ssbasg843
I00
sbag0
(g818
g2
Ntp4385
Rp4386
(dp4387
g822
Nsg823
(lp4388
g0
(g825
g2
Ntp4389
Rp4390
(dp4391
g822
Nsg829
g1046
sg841
(dp4392
S'Kinase'
p4393
g3454
ssbasg843
I00
sbasbsg836
g1546
sg1602
I00
sg1603
g0
(g1604
g2
Ntp4394
Rp4395
(dp4396
g1608
g0
(g1575
g2
Ntp4397
Rp4398
(dp4399
g1579
(lp4400
g0
(g818
g2
Ntp4401
Rp4402
(dp4403
g822
Nsg823
(lp4404
g0
(g825
g2
Ntp4405
Rp4406
(dp4407
g822
Nsg829
g1003
sg841
(dp4408
g4384
g1108
ssbasg843
I00
sbag0
(g818
g2
Ntp4409
Rp4410
(dp4411
g822
Nsg823
(lp4412
g0
(g825
g2
Ntp4413
Rp4414
(dp4415
g822
Nsg829
g1046
sg841
(dp4416
g4393
g1108
ssbasg843
I00
sbasbsg1574
g4373
sg1602
I00
sbsg1625
I00
sg838
I00
sg1608
g4398
sg1626
I00
sg1627
Nsbag0
(g1569
g2
Ntp4417
Rp4418
(dp4419
g1573
g1476
sg1574
g0
(g1575
g2
Ntp4420
Rp4421
(dp4422
g1579
(lp4423
g0
(g818
g2
Ntp4424
Rp4425
(dp4426
g822
Nsg823
(lp4427
g0
(g825
g2
Ntp4428
Rp4429
(dp4430
g822
Nsg829
g0
(g830
g2
Ntp4431
Rp4432
(dp4433
g834
(dp4434
S'Kinase'
p4435
(lp4436
g864
ag865
assg836
S'MAP3K1'
p4437
sg838
I00
sg839
(lp4438
g4435
asbsg841
(dp4439
g4435
g1108
ssbasg843
I00
sbag0
(g818
g2
Ntp4440
Rp4441
(dp4442
g822
Nsg823
(lp4443
g0
(g825
g2
Ntp4444
Rp4445
(dp4446
g822
Nsg829
g1046
sg841
(dp4447
S'Kinase'
p4448
g3454
ssbasg843
I00
sbasbsg836
g1526
sg1602
I00
sg1603
g0
(g1604
g2
Ntp4449
Rp4450
(dp4451
g1608
g0
(g1575
g2
Ntp4452
Rp4453
(dp4454
g1579
(lp4455
g0
(g818
g2
Ntp4456
Rp4457
(dp4458
g822
Nsg823
(lp4459
g0
(g825
g2
Ntp4460
Rp4461
(dp4462
g822
Nsg829
g4432
sg841
(dp4463
g4435
g1108
ssbasg843
I00
sbag0
(g818
g2
Ntp4464
Rp4465
(dp4466
g822
Nsg823
(lp4467
g0
(g825
g2
Ntp4468
Rp4469
(dp4470
g822
Nsg829
g1046
sg841
(dp4471
g4448
g1108
ssbasg843
I00
sbasbsg1574
g4421
sg1602
I00
sbsg1625
I00
sg838
I00
sg1608
g4453
sg1626
I00
sg1627
Nsbag0
(g1569
g2
Ntp4472
Rp4473
(dp4474
g1573
g1479
sg1574
g0
(g1575
g2
Ntp4475
Rp4476
(dp4477
g1579
(lp4478
g0
(g818
g2
Ntp4479
Rp4480
(dp4481
g822
Nsg823
(lp4482
g0
(g825
g2
Ntp4483
Rp4484
(dp4485
g822
Nsg829
g947
sg841
(dp4486
S'GtpBound'
p4487
g1108
ssbasg843
I00
sbag0
(g818
g2
Ntp4488
Rp4489
(dp4490
g822
Nsg823
(lp4491
g0
(g825
g2
Ntp4492
Rp4493
(dp4494
g822
Nsg829
g964
sg841
(dp4495
S'Kinase'
p4496
g3454
ssbasg843
I00
sbasbsg836
g1560
sg1602
I00
sg1603
g0
(g1604
g2
Ntp4497
Rp4498
(dp4499
g1608
g0
(g1575
g2
Ntp4500
Rp4501
(dp4502
g1579
(lp4503
g0
(g818
g2
Ntp4504
Rp4505
(dp4506
g822
Nsg823
(lp4507
g0
(g825
g2
Ntp4508
Rp4509
(dp4510
g822
Nsg829
g947
sg841
(dp4511
g4487
g1108
ssbasg843
I00
sbag0
(g818
g2
Ntp4512
Rp4513
(dp4514
g822
Nsg823
(lp4515
g0
(g825
g2
Ntp4516
Rp4517
(dp4518
g822
Nsg829
g964
sg841
(dp4519
g4496
g1108
ssbasg843
I00
sbasbsg1574
g4476
sg1602
I00
sbsg1625
I00
sg838
I00
sg1608
g4501
sg1626
I00
sg1627
Nsbag0
(g1569
g2
Ntp4520
Rp4521
(dp4522
g1573
g1482
sg1574
g0
(g1575
g2
Ntp4523
Rp4524
(dp4525
g1579
(lp4526
g0
(g818
g2
Ntp4527
Rp4528
(dp4529
g822
Nsg823
(lp4530
g0
(g825
g2
Ntp4531
Rp4532
(dp4533
g822
Nsg829
g1046
sg841
(dp4534
S'Kinase'
p4535
g1108
ssbasg843
I00
sbag0
(g818
g2
Ntp4536
Rp4537
(dp4538
g822
Nsg823
(lp4539
g0
(g825
g2
Ntp4540
Rp4541
(dp4542
g822
Nsg829
g1072
sg841
(dp4543
g1081
g3454
ssbasg843
I00
sbasbsg836
g1554
sg1602
I00
sg1603
g0
(g1604
g2
Ntp4544
Rp4545
(dp4546
g1608
g0
(g1575
g2
Ntp4547
Rp4548
(dp4549
g1579
(lp4550
g0
(g818
g2
Ntp4551
Rp4552
(dp4553
g822
Nsg823
(lp4554
g0
(g825
g2
Ntp4555
Rp4556
(dp4557
g822
Nsg829
g1046
sg841
(dp4558
g4535
g1108
ssbasg843
I00
sbag0
(g818
g2
Ntp4559
Rp4560
(dp4561
g822
Nsg823
(lp4562
g0
(g825
g2
Ntp4563
Rp4564
(dp4565
g822
Nsg829
g1072
sg841
(dp4566
g1081
g1108
ssbasg843
I00
sbasbsg1574
g4524
sg1602
I00
sbsg1625
I00
sg838
I00
sg1608
g4548
sg1626
I00
sg1627
Nsbag0
(g1569
g2
Ntp4567
Rp4568
(dp4569
g1573
g1485
sg1574
g0
(g1575
g2
Ntp4570
Rp4571
(dp4572
g1579
(lp4573
g0
(g818
g2
Ntp4574
Rp4575
(dp4576
g822
Nsg823
(lp4577
g0
(g825
g2
Ntp4578
Rp4579
(dp4580
g822
Nsg829
g1099
sg841
(dp4581
g1102
g1108
ssbasg843
I00
sbag0
(g818
g2
Ntp4582
Rp4583
(dp4584
g822
Nsg823
(lp4585
g0
(g825
g2
Ntp4586
Rp4587
(dp4588
g822
Nsg829
g928
sg841
(dp4589
S'GtpBound'
p4590
g3454
ssbasg843
I00
sbasbsg836
g1513
sg1602
I00
sg1603
g0
(g1604
g2
Ntp4591
Rp4592
(dp4593
g1608
g0
(g1575
g2
Ntp4594
Rp4595
(dp4596
g1579
(lp4597
g0
(g818
g2
Ntp4598
Rp4599
(dp4600
g822
Nsg823
(lp4601
g0
(g825
g2
Ntp4602
Rp4603
(dp4604
g822
Nsg829
g1099
sg841
(dp4605
g1102
g1108
ssbasg843
I00
sbag0
(g818
g2
Ntp4606
Rp4607
(dp4608
g822
Nsg823
(lp4609
g0
(g825
g2
Ntp4610
Rp4611
(dp4612
g822
Nsg829
g928
sg841
(dp4613
g4590
g1108
ssbasg843
I00
sbasbsg1574
g4571
sg1602
I00
sbsg1625
I00
sg838
I00
sg1608
g4595
sg1626
I00
sg1627
Nsbag0
(g1569
g2
Ntp4614
Rp4615
(dp4616
g1573
g1488
sg1574
g0
(g1575
g2
Ntp4617
Rp4618
(dp4619
g1579
(lp4620
g0
(g818
g2
Ntp4621
Rp4622
(dp4623
g822
Nsg823
(lp4624
g0
(g825
g2
Ntp4625
Rp4626
(dp4627
g822
Nsg829
g928
sg841
(dp4628
S'GtpBound'
p4629
g1108
ssbasg843
I00
sbag0
(g818
g2
Ntp4630
Rp4631
(dp4632
g822
Nsg823
(lp4633
g0
(g825
g2
Ntp4634
Rp4635
(dp4636
g822
Nsg829
g964
sg841
(dp4637
S'Kinase'
p4638
g3454
ssbasg843
I00
sbasbsg836
g1542
sg1602
I00
sg1603
g0
(g1604
g2
Ntp4639
Rp4640
(dp4641
g1608
g0
(g1575
g2
Ntp4642
Rp4643
(dp4644
g1579
(lp4645
g0
(g818
g2
Ntp4646
Rp4647
(dp4648
g822
Nsg823
(lp4649
g0
(g825
g2
Ntp4650
Rp4651
(dp4652
g822
Nsg829
g928
sg841
(dp4653
g4629
g1108
ssbasg843
I00
sbag0
(g818
g2
Ntp4654
Rp4655
(dp4656
g822
Nsg823
(lp4657
g0
(g825
g2
Ntp4658
Rp4659
(dp4660
g822
Nsg829
g964
sg841
(dp4661
g4638
g1108
ssbasg843
I00
sbasbsg1574
g4618
sg1602
I00
sbsg1625
I00
sg838
I00
sg1608
g4643
sg1626
I00
sg1627
Nsbag0
(g1569
g2
Ntp4662
Rp4663
(dp4664
g1573
g1491
sg1574
g0
(g1575
g2
Ntp4665
Rp4666
(dp4667
g1579
(lp4668
g0
(g818
g2
Ntp4669
Rp4670
(dp4671
g822
Nsg823
(lp4672
g0
(g825
g2
Ntp4673
Rp4674
(dp4675
g822
Nsg829
g0
(g830
g2
Ntp4676
Rp4677
(dp4678
g834
(dp4679
S'Kinase'
p4680
(lp4681
g864
ag865
assg836
S'RAF_FAMILY'
p4682
sg838
I00
sg839
(lp4683
g4680
asbsg841
(dp4684
g4680
g1108
ssbasg843
I00
sbag0
(g818
g2
Ntp4685
Rp4686
(dp4687
g822
Nsg823
(lp4688
g0
(g825
g2
Ntp4689
Rp4690
(dp4691
g822
Nsg829
g1046
sg841
(dp4692
S'Kinase'
p4693
g3454
ssbasg843
I00
sbasbsg836
g1539
sg1602
I00
sg1603
g0
(g1604
g2
Ntp4694
Rp4695
(dp4696
g1608
g0
(g1575
g2
Ntp4697
Rp4698
(dp4699
g1579
(lp4700
g0
(g818
g2
Ntp4701
Rp4702
(dp4703
g822
Nsg823
(lp4704
g0
(g825
g2
Ntp4705
Rp4706
(dp4707
g822
Nsg829
g4677
sg841
(dp4708
g4680
g1108
ssbasg843
I00
sbag0
(g818
g2
Ntp4709
Rp4710
(dp4711
g822
Nsg823
(lp4712
g0
(g825
g2
Ntp4713
Rp4714
(dp4715
g822
Nsg829
g1046
sg841
(dp4716
g4693
g1108
ssbasg843
I00
sbasbsg1574
g4666
sg1602
I00
sbsg1625
I00
sg838
I00
sg1608
g4698
sg1626
I00
sg1627
Nsbag0
(g1569
g2
Ntp4717
Rp4718
(dp4719
g1573
g1494
sg1574
g0
(g1575
g2
Ntp4720
Rp4721
(dp4722
g1579
(lp4723
g0
(g818
g2
Ntp4724
Rp4725
(dp4726
g822
Nsg823
(lp4727
g0
(g825
g2
Ntp4728
Rp4729
(dp4730
g822
Nsg829
g832
sg841
(dp4731
sbasg843
I00
sbag0
(g818
g2
Ntp4732
Rp4733
(dp4734
g822
Nsg823
(lp4735
g0
(g825
g2
Ntp4736
Rp4737
(dp4738
g822
Nsg829
g859
sg841
(dp4739
S'Kinase'
p4740
g3454
ssbasg843
I00
sbasbsg836
g1551
sg1602
I00
sg1603
g0
(g1604
g2
Ntp4741
Rp4742
(dp4743
g1608
g0
(g1575
g2
Ntp4744
Rp4745
(dp4746
g1579
(lp4747
g0
(g818
g2
Ntp4748
Rp4749
(dp4750
g822
Nsg823
(lp4751
g0
(g825
g2
Ntp4752
Rp4753
(dp4754
g822
Nsg829
g832
sg841
(dp4755
sbasg843
I00
sbag0
(g818
g2
Ntp4756
Rp4757
(dp4758
g822
Nsg823
(lp4759
g0
(g825
g2
Ntp4760
Rp4761
(dp4762
g822
Nsg829
g859
sg841
(dp4763
g4740
g1108
ssbasg843
I00
sbasbsg1574
g4721
sg1602
I00
sbsg1625
I00
sg838
I00
sg1608
g4745
sg1626
I00
sg1627
Nsbasg1499
(dp4764
g1506
g2648
sg1507
g3628
sg1508
g2099
sg1509
g2893
sg1510
g3925
sg1511
g3330
sg1512
g2485
sg1513
g4568
sg1514
g3972
sg1515
g1952
sg1516
g2034
sg1517
g2851
sg1518
g3232
sg1519
g3722
sg1520
g4322
sg1521
g3432
sg1522
g1671
sg1523
g3036
sg1524
g3831
sg1525
g3526
sg1526
g4418
sg1527
g3183
sg1528
g4075
sg1529
g3675
sg1530
g3573
sg1531
g1725
sg1532
g1833
sg1533
g2437
sg1534
g4020
sg1535
g2695
sg1536
g4123
sg1537
g1779
sg1538
g3134
sg1539
g4663
sg1540
g1629
sg1541
g2321
sg1542
g4615
sg1543
g2797
sg1544
g2594
sg1545
g2143
sg1546
g4370
sg1547
g2988
sg1548
g1887
sg1549
g3085
sg1550
g2941
sg1551
g4718
sg1552
g1571
sg1553
g2267
sg1554
g4521
sg1555
g3281
sg1556
g3878
sg1557
g4171
sg1558
g3379
sg1559
g2743
sg1560
g4473
sg1561
g2191
sg1562
g3479
sg1563
g2382
sg1564
g4219
sg1565
g3776
sg1566
g2540
sg1567
g4274
ssbsS'diffusivities'
p4765
(lp4766
sS'odes'
p4767
(lp4768
csympy.core.numbers
Zero
p4769
(tRp4770
(dp4771
bag14
(csympy.core.numbers
NegativeOne
p4772
(tRp4773
(dp4774
bg130
g137
g144
tp4775
Rp4776
(dp4777
bag14
(g4773
g259
g266
g273
tp4778
Rp4779
(dp4780
bacsympy.core.add
Add
p4781
(g192
g471
g14
(g4773
g54
g18
g61
tp4782
Rp4783
(dp4784
bg14
(g4773
g424
g18
g36
tp4785
Rp4786
(dp4787
bg14
(g4773
g481
g18
g630
tp4788
Rp4789
(dp4790
bg14
(g4773
g18
g29
g36
tp4791
Rp4792
(dp4793
btp4794
Rp4795
(dp4796
bag4781
(g14
(g4773
g100
g107
g114
tp4797
Rp4798
(dp4799
bg14
(g4773
g481
g107
g488
tp4800
Rp4801
(dp4802
btp4803
Rp4804
(dp4805
bag4781
(g14
(g4773
g54
g77
g84
tp4806
Rp4807
(dp4808
bg14
(g4773
g481
g77
g566
tp4809
Rp4810
(dp4811
btp4812
Rp4813
(dp4814
bag4781
(g14
(g4773
g160
g312
g319
tp4815
Rp4816
(dp4817
bg14
(g4773
g344
g312
g392
tp4818
Rp4819
(dp4820
bg14
(g4773
g202
g312
g408
tp4821
Rp4822
(dp4823
bg14
(g4773
g449
g312
g319
tp4824
Rp4825
(dp4826
bg14
(g4773
g721
g312
g319
tp4827
Rp4828
(dp4829
btp4830
Rp4831
(dp4832
bag4781
(g192
g455
g14
(g4773
g160
g29
g36
tp4833
Rp4834
(dp4835
bg14
(g4773
g160
g29
g234
tp4836
Rp4837
(dp4838
bg14
(g4773
g344
g29
g367
tp4839
Rp4840
(dp4841
bg14
(g4773
g202
g29
g209
tp4842
Rp4843
(dp4844
bg14
(g4773
g449
g29
g234
tp4845
Rp4846
(dp4847
bg14
(g4773
g721
g29
g234
tp4848
Rp4849
(dp4850
bg14
(g4773
g18
g29
g36
tp4851
Rp4852
(dp4853
btp4854
Rp4855
(dp4856
bag4781
(g14
(g4773
g160
g289
g296
tp4857
Rp4858
(dp4859
bg14
(g4773
g344
g289
g351
tp4860
Rp4861
(dp4862
bg14
(g4773
g449
g289
g296
tp4863
Rp4864
(dp4865
bg14
(g4773
g721
g289
g296
tp4866
Rp4867
(dp4868
btp4869
Rp4870
(dp4871
bag4781
(g14
(g4773
g424
g607
g664
tp4872
Rp4873
(dp4874
bg14
(g4773
g465
g607
g664
tp4875
Rp4876
(dp4877
bg14
(g4773
g698
g607
g705
tp4878
Rp4879
(dp4880
bg14
(g4773
g600
g607
g614
tp4881
Rp4882
(dp4883
bg14
(g4773
g721
g607
g664
tp4884
Rp4885
(dp4886
btp4887
Rp4888
(dp4889
bag14
(g4773
g791
g798
g805
tp4890
Rp4891
(dp4892
bag4770
ag4770
ag4781
(g14
(g4773
g176
g186
tp4893
Rp4894
(dp4895
bg42
g14
(g4773
g54
g176
g61
tp4896
Rp4897
(dp4898
bg14
(g4773
g176
g160
g234
tp4899
Rp4900
(dp4901
bg14
(g4773
g176
g344
g367
tp4902
Rp4903
(dp4904
bg14
(g4773
g176
g202
g209
tp4905
Rp4906
(dp4907
bg14
(g4773
g176
g449
g234
tp4908
Rp4909
(dp4910
bg14
(g4773
g176
g481
g630
tp4911
Rp4912
(dp4913
bg14
(g4773
g176
g721
g234
tp4914
Rp4915
(dp4916
btp4917
Rp4918
(dp4919
bag4781
(g455
g727
g67
g636
g14
(g4773
g160
g424
g36
tp4920
Rp4921
(dp4922
bg14
(g4773
g160
g29
g36
tp4923
Rp4924
(dp4925
btp4926
Rp4927
(dp4928
bag4781
(g90
g572
tp4929
Rp4930
(dp4931
bag4781
(g120
g494
tp4932
Rp4933
(dp4934
bag150
ag4781
(g14
(g4773
g449
g186
tp4935
Rp4936
(dp4937
bg14
(g4773
g234
g544
tp4938
Rp4939
(dp4940
bg334
g645
g166
g14
(g4773
g160
g449
g234
tp4941
Rp4942
(dp4943
bg14
(g4773
g344
g449
g367
tp4944
Rp4945
(dp4946
bg14
(g4773
g202
g449
g209
tp4947
Rp4948
(dp4949
bg14
(g4773
g449
g721
g234
tp4950
Rp4951
(dp4952
btp4953
Rp4954
(dp4955
bag4781
(g471
g727
g240
g373
g215
g521
g736
g14
(g4773
g160
g424
g36
tp4956
Rp4957
(dp4958
bg14
(g4773
g424
g18
g36
tp4959
Rp4960
(dp4961
btp4962
Rp4963
(dp4964
bag4781
(g14
(g4773
g465
g186
tp4965
Rp4966
(dp4967
bg249
g382
g224
g530
g745
g430
g14
(g4773
g54
g465
g61
tp4968
Rp4969
(dp4970
bg14
(g4773
g465
g481
g630
tp4971
Rp4972
(dp4973
btp4974
Rp4975
(dp4976
bag279
ag4781
(g302
g357
g556
g763
tp4977
Rp4978
(dp4979
bag4781
(g325
g398
g414
g581
g772
tp4980
Rp4981
(dp4982
bag4781
(g547
g14
(g4773
g721
g186
tp4983
Rp4984
(dp4985
bg590
g512
g439
g688
g503
g14
(g449
g721
g234
tp4986
Rp4987
(dp4988
bg654
tp4989
Rp4990
(dp4991
bag4781
(g670
g679
g711
g620
g781
tp4992
Rp4993
(dp4994
bag811
asg838
I01
sS'compartments'
p4995
g0
(g1132
g2
Ntp4996
Rp4997
(dp4998
g1136
(dp4999
sg1227
(lp5000
sg1499
(dp5001
sbsS'monomers'
p5002
g0
(g1132
g2
Ntp5003
Rp5004
(dp5005
g1136
(dp5006
g1798
I0
sg2762
I1
sg1034
I26
sg2402
I3
sg2505
I4
sg3053
I27
sg910
I6
sg866
I7
sg1744
I8
sg1852
I9
sg2760
I10
sg1055
I12
sg1032
I13
sg1030
I28
sg2502
I15
sg3795
I16
sg2401
I17
sg1028
I18
sg1022
I19
sg1027
I30
sg3592
I20
sg1850
I41
sg1035
I23
sg1796
I24
sg1688
I25
sg4437
I2
sg935
I5
sg3200
I14
sg991
I29
sg4682
I11
sg1033
I31
sg3102
I32
sg1026
I33
sg3396
I34
sg952
I51
sg837
I67
sg1057
I40
sg1742
I37
sg3151
I38
sg2559
I39
sg3298
I21
sg992
I43
sg4238
I42
sg2814
I44
sg1031
I60
sg1025
I45
sg3347
I46
sg4039
I47
sg2284
I48
sg2613
I49
sg1024
I65
sg1104
I50
sg1127
I35
sg3249
I52
sg888
I53
sg2504
I54
sg2286
I55
sg868
I56
sg2557
I57
sg2611
I58
sg2399
I59
sg912
I36
sg3741
I61
sg1690
I62
sg969
I63
sg1029
I66
sg2816
I22
sg913
I64
ssg1227
(lp5007
g1808
ag2772
ag4432
ag2915
ag3002
ag928
ag905
ag859
ag1754
ag1862
ag2757
ag4677
ag1046
ag2226
ag3197
ag2499
ag3790
ag2412
ag1980
ag1003
ag3587
ag3295
ag2826
ag2459
ag1793
ag1685
ag2353
ag3050
ag2165
ag2048
ag1966
ag1072
ag3099
ag1923
ag3393
ag1122
ag985
ag1739
ag3148
ag2569
ag2670
ag1847
ag4233
ag2062
ag2811
ag1901
ag3344
ag4034
ag2281
ag2623
ag1099
ag947
ag3246
ag883
ag2515
ag2296
ag2955
ag2554
ag2608
ag2396
ag2213
ag3736
ag1700
ag964
ag2717
ag1597
ag2001
ag832
asg1499
(dp5008
g1798
g1808
sg2762
g2772
sg1034
g2353
sg2402
g2915
sg2505
g3002
sg3053
g3050
sg910
g905
sg866
g859
sg1744
g1754
sg1852
g1862
sg2760
g2757
sg1055
g1046
sg1032
g2226
sg1030
g2165
sg2502
g2499
sg3795
g3790
sg2401
g2412
sg1028
g1980
sg1022
g1003
sg1027
g1966
sg3592
g3587
sg1850
g1847
sg1035
g2459
sg1796
g1793
sg1688
g1685
sg4437
g4432
sg935
g928
sg3200
g3197
sg991
g2048
sg4682
g4677
sg1033
g1072
sg3102
g3099
sg1026
g1923
sg3396
g3393
sg952
g947
sg837
g832
sg1057
g2670
sg1742
g1739
sg3151
g3148
sg2559
g2569
sg3298
g3295
sg992
g2062
sg4238
g4233
sg2814
g2811
sg1031
g2213
sg1025
g1901
sg3347
g3344
sg4039
g4034
sg2284
g2281
sg2613
g2623
sg1024
g1597
sg1104
g1099
sg1127
g1122
sg3249
g3246
sg888
g883
sg2504
g2515
sg2286
g2296
sg868
g2955
sg2557
g2554
sg2611
g2608
sg2399
g2396
sg912
g985
sg3741
g3736
sg1690
g1700
sg969
g964
sg1029
g2001
sg2816
g2826
sg913
g2717
ssbsS'base'
p5009
NsS'annotations'
p5010
(lp5011
sS'reactions_bidirectional'
p5012
(lp5013
(dp5014
g9
g10
sg44
(g45
tp5015
sg13
g4781
(g14
(g4773
g176
g186
tp5016
Rp5017
(dp5018
bg42
tp5019
Rp5020
(dp5021
bsS'reversible'
p5022
I01
sg11
g12
sa(dp5023
g9
g50
sg44
g70
sg13
g67
sg5022
I00
sg11
g51
sa(dp5024
g9
g73
sg44
g93
sg13
g90
sg5022
I00
sg11
g74
sa(dp5025
g9
g96
sg44
g123
sg13
g120
sg5022
I00
sg11
g97
sa(dp5026
g9
g126
sg44
g153
sg13
g150
sg5022
I00
sg11
g127
sa(dp5027
g9
g156
sg44
(g168
tp5028
sg13
g4781
(g14
(g4773
g449
g186
tp5029
Rp5030
(dp5031
bg166
tp5032
Rp5033
(dp5034
bsg5022
I01
sg11
g157
sa(dp5035
g9
g198
sg44
g218
sg13
g215
sg5022
I00
sg11
g199
sa(dp5036
g9
g221
sg44
g227
sg13
g224
sg5022
I00
sg11
g222
sa(dp5037
g9
g230
sg44
g243
sg13
g240
sg5022
I00
sg11
g231
sa(dp5038
g9
g246
sg44
g252
sg13
g249
sg5022
I00
sg11
g247
sa(dp5039
g9
g255
sg44
g282
sg13
g279
sg5022
I00
sg11
g256
sa(dp5040
g9
g285
sg44
g305
sg13
g302
sg5022
I00
sg11
g286
sa(dp5041
g9
g308
sg44
g328
sg13
g325
sg5022
I00
sg11
g309
sa(dp5042
g9
g331
sg44
g337
sg13
g334
sg5022
I00
sg11
g332
sa(dp5043
g9
g340
sg44
g360
sg13
g357
sg5022
I00
sg11
g341
sa(dp5044
g9
g363
sg44
g376
sg13
g373
sg5022
I00
sg11
g364
sa(dp5045
g9
g379
sg44
g385
sg13
g382
sg5022
I00
sg11
g380
sa(dp5046
g9
g388
sg44
g401
sg13
g398
sg5022
I00
sg11
g389
sa(dp5047
g9
g404
sg44
g417
sg13
g414
sg5022
I00
sg11
g405
sa(dp5048
g9
g420
sg44
(g432
tp5049
sg13
g4781
(g14
(g4773
g465
g186
tp5050
Rp5051
(dp5052
bg430
tp5053
Rp5054
(dp5055
bsg5022
I01
sg11
g421
sa(dp5056
g9
g436
sg44
(g441
tp5057
sg13
g4781
(g14
(g4773
g721
g186
tp5058
Rp5059
(dp5060
bg439
tp5061
Rp5062
(dp5063
bsg5022
I01
sg11
g437
sa(dp5064
g9
g477
sg44
g497
sg13
g494
sg5022
I00
sg11
g478
sa(dp5065
g9
g500
sg44
g506
sg13
g503
sg5022
I00
sg11
g501
sa(dp5066
g9
g509
sg44
g515
sg13
g512
sg5022
I00
sg11
g510
sa(dp5067
g9
g518
sg44
g524
sg13
g521
sg5022
I00
sg11
g519
sa(dp5068
g9
g527
sg44
g533
sg13
g530
sg5022
I00
sg11
g528
sa(dp5069
g9
g536
sg44
g550
sg13
g547
sg5022
I00
sg11
g537
sa(dp5070
g9
g553
sg44
g559
sg13
g556
sg5022
I00
sg11
g554
sa(dp5071
g9
g562
sg44
g575
sg13
g572
sg5022
I00
sg11
g563
sa(dp5072
g9
g578
sg44
g584
sg13
g581
sg5022
I00
sg11
g579
sa(dp5073
g9
g587
sg44
g593
sg13
g590
sg5022
I00
sg11
g588
sa(dp5074
g9
g596
sg44
g623
sg13
g620
sg5022
I00
sg11
g597
sa(dp5075
g9
g626
sg44
g639
sg13
g636
sg5022
I00
sg11
g627
sa(dp5076
g9
g642
sg44
g648
sg13
g645
sg5022
I00
sg11
g643
sa(dp5077
g9
g651
sg44
g657
sg13
g654
sg5022
I00
sg11
g652
sa(dp5078
g9
g660
sg44
g673
sg13
g670
sg5022
I00
sg11
g661
sa(dp5079
g9
g676
sg44
g682
sg13
g679
sg5022
I00
sg11
g677
sa(dp5080
g9
g685
sg44
g691
sg13
g688
sg5022
I00
sg11
g686
sa(dp5081
g9
g694
sg44
g714
sg13
g711
sg5022
I00
sg11
g695
sa(dp5082
g9
g733
sg44
g739
sg13
g736
sg5022
I00
sg11
g734
sa(dp5083
g9
g742
sg44
g748
sg13
g745
sg5022
I00
sg11
g743
sa(dp5084
g9
g751
sg44
g757
sg13
g754
sg5022
I00
sg11
g752
sa(dp5085
g9
g760
sg44
g766
sg13
g763
sg5022
I00
sg11
g761
sa(dp5086
g9
g769
sg44
g775
sg13
g772
sg5022
I00
sg11
g770
sa(dp5087
g9
g778
sg44
g784
sg13
g781
sg5022
I00
sg11
g779
sa(dp5088
g9
g787
sg44
g814
sg13
g811
sg5022
I00
sg11
g788
sasS'observables'
p5089
g0
(g1132
g2
Ntp5090
Rp5091
(dp5092
g1136
(dp5093
S'MEKact'
p5094
I1
sS'ERKact'
p5095
I0
ssg1227
(lp5096
cpysb.core
Observable
p5097
(g5095
g0
(g1575
g2
Ntp5098
Rp5099
(dp5100
g1579
(lp5101
g0
(g818
g2
Ntp5102
Rp5103
(dp5104
g822
Nsg823
(lp5105
g0
(g825
g2
Ntp5106
Rp5107
(dp5108
g822
Nsg829
g1072
sg841
(dp5109
g4740
g1108
ssbasg843
I00
sbasbS'molecules'
p5110
I00
tp5111
Rp5112
(dp5113
S'coefficients'
p5114
(lp5115
I1
asS'reaction_pattern'
p5116
g5099
sS'match'
p5117
g5110
sg838
I00
sS'species'
p5118
(lp5119
I26
asbag5097
(g5094
g0
(g1575
g2
Ntp5120
Rp5121
(dp5122
g1579
(lp5123
g0
(g818
g2
Ntp5124
Rp5125
(dp5126
g822
Nsg823
(lp5127
g0
(g825
g2
Ntp5128
Rp5129
(dp5130
g822
Nsg829
g1046
sg841
(dp5131
g4740
g1108
ssbasg843
I00
sbasbg5110
I00
tp5132
Rp5133
(dp5134
g5114
(lp5135
I1
asg5116
g5121
sg5117
g5110
sg838
I00
sg5118
(lp5136
I25
asbasg1499
(dp5137
g5094
g5133
sg5095
g5112
ssbsS'expressions'
p5138
g0
(g1132
g2
Ntp5139
Rp5140
(dp5141
g1136
(dp5142
sg1227
(lp5143
sg1499
(dp5144
sbsg5118
(lp5145
g0
(g818
g2
Ntp5146
Rp5147
(dp5148
g822
Nsg823
(lp5149
g0
(g825
g2
Ntp5150
Rp5151
(dp5152
g822
Nsg829
g832
sg841
(dp5153
sbasg843
I00
sbag0
(g818
g2
Ntp5154
Rp5155
(dp5156
g822
Nsg823
(lp5157
g0
(g825
g2
Ntp5158
Rp5159
(dp5160
g822
Nsg829
g859
sg841
(dp5161
S'ERBB2'
p5162
NsS'Kinase'
p5163
S'inactive'
p5164
ssbasg843
I00
sbag0
(g818
g2
Ntp5165
Rp5166
(dp5167
g822
Nsg823
(lp5168
g0
(g825
g2
Ntp5169
Rp5170
(dp5171
g822
Nsg829
g883
sg841
(dp5172
S'GRB2'
p5173
NsS'Catalytic'
p5174
S'inactive'
p5175
ssbasg843
I00
sbag0
(g818
g2
Ntp5176
Rp5177
(dp5178
g822
Nsg823
(lp5179
g0
(g825
g2
Ntp5180
Rp5181
(dp5182
g822
Nsg829
g905
sg841
(dp5183
S'BRAF'
p5184
NsS'GtpBound'
p5185
S'inactive'
p5186
sS'BCL2'
p5187
Nssbasg843
I00
sbag0
(g818
g2
Ntp5188
Rp5189
(dp5190
g822
Nsg823
(lp5191
g0
(g825
g2
Ntp5192
Rp5193
(dp5194
g822
Nsg829
g928
sg841
(dp5195
S'GtpBound'
p5196
S'inactive'
p5197
ssbasg843
I00
sbag0
(g818
g2
Ntp5198
Rp5199
(dp5200
g822
Nsg823
(lp5201
g0
(g825
g2
Ntp5202
Rp5203
(dp5204
g822
Nsg829
g947
sg841
(dp5205
S'GtpBound'
p5206
S'inactive'
p5207
ssbasg843
I00
sbag0
(g818
g2
Ntp5208
Rp5209
(dp5210
g822
Nsg823
(lp5211
g0
(g825
g2
Ntp5212
Rp5213
(dp5214
g822
Nsg829
g964
sg841
(dp5215
S'Kinase'
p5216
S'inactive'
p5217
ssbasg843
I00
sbag0
(g818
g2
Ntp5218
Rp5219
(dp5220
g822
Nsg823
(lp5221
g0
(g825
g2
Ntp5222
Rp5223
(dp5224
g822
Nsg829
g985
sg841
(dp5225
S'HRAS'
p5226
NsS'PRKCE'
p5227
NsS'Kinase'
p5228
S'inactive'
p5229
sS'RPS6KB2'
p5230
Nssbasg843
I00
sbag0
(g818
g2
Ntp5231
Rp5232
(dp5233
g822
Nsg823
(lp5234
g0
(g825
g2
Ntp5235
Rp5236
(dp5237
g822
Nsg829
g1003
sg841
(dp5238
S'Y340'
p5239
g1008
sS'PEBP1'
p5240
NsS'YWHAQ'
p5241
NsS'PRKCZ'
p5242
NsS'S259'
p5243
g1008
sS'S499'
p5244
g1008
sS'Kinase'
p5245
S'inactive'
p5246
sS'RB1'
p5247
NsS'CFLAR'
p5248
NsS'MAPK1'
p5249
NsS'ARRB2'
p5250
NsS'P3579'
p5251
NsS'S43'
p5252
g1008
sS'YWHAB'
p5253
NsS'Y341'
p5254
g1008
sS'S339'
p5255
g1008
sS'KRT8'
p5256
NsS'PAK2'
p5257
NsS'KRT18'
p5258
Nssbasg843
I00
sbag0
(g818
g2
Ntp5259
Rp5260
(dp5261
g822
Nsg823
(lp5262
g0
(g825
g2
Ntp5263
Rp5264
(dp5265
g822
Nsg829
g1046
sg841
(dp5266
S'S'
p5267
g1008
sS'T25'
p5268
g1008
sS'GIT1'
p5269
NsS'Kinase'
p5270
S'inactive'
p5271
ssbasg843
I00
sbag0
(g818
g2
Ntp5272
Rp5273
(dp5274
g822
Nsg823
(lp5275
g0
(g825
g2
Ntp5276
Rp5277
(dp5278
g822
Nsg829
g1072
sg841
(dp5279
S'T185'
p5280
g1008
sS'Kinase'
p5281
S'inactive'
p5282
sS'Y187'
p5283
g1008
sS'ARRB2'
p5284
NsS'P3579'
p5285
NsS'Y'
p5286
g1008
sS'RAF1'
p5287
Nssbasg843
I00
sbag0
(g818
g2
Ntp5288
Rp5289
(dp5290
g822
Nsg823
(lp5291
g0
(g825
g2
Ntp5292
Rp5293
(dp5294
g822
Nsg829
g1099
sg841
(dp5295
S'Catalytic'
p5296
S'active'
p5297
ssbasg843
I00
sbag0
(g818
g2
Ntp5298
Rp5299
(dp5300
g822
Nsg823
(lp5301
g0
(g825
g2
Ntp5302
Rp5303
(dp5304
g822
Nsg829
g1122
sg841
(dp5305
S'Catalytic'
p5306
S'active'
p5307
ssbasg843
I00
sbag0
(g818
g2
Ntp5308
Rp5309
(dp5310
g822
Nsg823
(lp5311
g0
(g825
g2
Ntp5312
Rp5313
(dp5314
g822
Nsg829
g985
sg841
(dp5315
S'HRAS'
p5316
I1
sS'PRKCE'
p5317
NsS'Kinase'
p5318
S'inactive'
p5319
sS'RPS6KB2'
p5320
Nssbag0
(g825
g2
Ntp5321
Rp5322
(dp5323
g822
Nsg829
g905
sg841
(dp5324
S'BRAF'
p5325
I1
sS'GtpBound'
p5326
S'inactive'
p5327
sS'BCL2'
p5328
Nssbasg843
I00
sbag0
(g818
g2
Ntp5329
Rp5330
(dp5331
g822
Nsg823
(lp5332
g0
(g825
g2
Ntp5333
Rp5334
(dp5335
g822
Nsg829
g905
sg841
(dp5336
S'BRAF'
p5337
NsS'GtpBound'
p5338
S'active'
p5339
sS'BCL2'
p5340
Nssbasg843
I00
sbag0
(g818
g2
Ntp5341
Rp5342
(dp5343
g822
Nsg823
(lp5344
g0
(g825
g2
Ntp5345
Rp5346
(dp5347
g822
Nsg829
g947
sg841
(dp5348
S'GtpBound'
p5349
S'active'
p5350
ssbasg843
I00
sbag0
(g818
g2
Ntp5351
Rp5352
(dp5353
g822
Nsg823
(lp5354
g0
(g825
g2
Ntp5355
Rp5356
(dp5357
g822
Nsg829
g928
sg841
(dp5358
S'GtpBound'
p5359
S'active'
p5360
ssbasg843
I00
sbag0
(g818
g2
Ntp5361
Rp5362
(dp5363
g822
Nsg823
(lp5364
g0
(g825
g2
Ntp5365
Rp5366
(dp5367
g822
Nsg829
g859
sg841
(dp5368
S'ERBB2'
p5369
NsS'Kinase'
p5370
S'active'
p5371
ssbasg843
I00
sbag0
(g818
g2
Ntp5372
Rp5373
(dp5374
g822
Nsg823
(lp5375
g0
(g825
g2
Ntp5376
Rp5377
(dp5378
g822
Nsg829
g985
sg841
(dp5379
S'HRAS'
p5380
I1
sS'PRKCE'
p5381
NsS'Kinase'
p5382
S'inactive'
p5383
sS'RPS6KB2'
p5384
Nssbag0
(g825
g2
Ntp5385
Rp5386
(dp5387
g822
Nsg829
g905
sg841
(dp5388
S'BRAF'
p5389
I1
sS'GtpBound'
p5390
S'active'
p5391
sS'BCL2'
p5392
Nssbasg843
I00
sbag0
(g818
g2
Ntp5393
Rp5394
(dp5395
g822
Nsg823
(lp5396
g0
(g825
g2
Ntp5397
Rp5398
(dp5399
g822
Nsg829
g985
sg841
(dp5400
S'HRAS'
p5401
NsS'PRKCE'
p5402
NsS'Kinase'
p5403
S'active'
p5404
sS'RPS6KB2'
p5405
Nssbasg843
I00
sbag0
(g818
g2
Ntp5406
Rp5407
(dp5408
g822
Nsg823
(lp5409
g0
(g825
g2
Ntp5410
Rp5411
(dp5412
g822
Nsg829
g985
sg841
(dp5413
S'HRAS'
p5414
I1
sS'PRKCE'
p5415
NsS'Kinase'
p5416
S'active'
p5417
sS'RPS6KB2'
p5418
Nssbag0
(g825
g2
Ntp5419
Rp5420
(dp5421
g822
Nsg829
g905
sg841
(dp5422
S'BRAF'
p5423
I1
sS'GtpBound'
p5424
S'inactive'
p5425
sS'BCL2'
p5426
Nssbasg843
I00
sbag0
(g818
g2
Ntp5427
Rp5428
(dp5429
g822
Nsg823
(lp5430
g0
(g825
g2
Ntp5431
Rp5432
(dp5433
g822
Nsg829
g883
sg841
(dp5434
S'GRB2'
p5435
NsS'Catalytic'
p5436
S'active'
p5437
ssbasg843
I00
sbag0
(g818
g2
Ntp5438
Rp5439
(dp5440
g822
Nsg823
(lp5441
g0
(g825
g2
Ntp5442
Rp5443
(dp5444
g822
Nsg829
g1003
sg841
(dp5445
S'Y340'
p5446
g1008
sS'PEBP1'
p5447
NsS'YWHAQ'
p5448
NsS'PRKCZ'
p5449
NsS'S259'
p5450
g1008
sS'S499'
p5451
g1008
sS'Kinase'
p5452
S'active'
p5453
sS'RB1'
p5454
NsS'CFLAR'
p5455
NsS'MAPK1'
p5456
NsS'ARRB2'
p5457
NsS'P3579'
p5458
NsS'S43'
p5459
g1008
sS'YWHAB'
p5460
NsS'Y341'
p5461
g1008
sS'S339'
p5462
g1008
sS'KRT8'
p5463
NsS'PAK2'
p5464
NsS'KRT18'
p5465
Nssbasg843
I00
sbag0
(g818
g2
Ntp5466
Rp5467
(dp5468
g822
Nsg823
(lp5469
g0
(g825
g2
Ntp5470
Rp5471
(dp5472
g822
Nsg829
g964
sg841
(dp5473
S'Kinase'
p5474
S'active'
p5475
ssbasg843
I00
sbag0
(g818
g2
Ntp5476
Rp5477
(dp5478
g822
Nsg823
(lp5479
g0
(g825
g2
Ntp5480
Rp5481
(dp5482
g822
Nsg829
g985
sg841
(dp5483
S'HRAS'
p5484
I1
sS'PRKCE'
p5485
NsS'Kinase'
p5486
S'active'
p5487
sS'RPS6KB2'
p5488
Nssbag0
(g825
g2
Ntp5489
Rp5490
(dp5491
g822
Nsg829
g905
sg841
(dp5492
S'BRAF'
p5493
I1
sS'GtpBound'
p5494
S'active'
p5495
sS'BCL2'
p5496
Nssbasg843
I00
sbag0
(g818
g2
Ntp5497
Rp5498
(dp5499
g822
Nsg823
(lp5500
g0
(g825
g2
Ntp5501
Rp5502
(dp5503
g822
Nsg829
g1046
sg841
(dp5504
g5267
g1008
sS'T25'
p5505
g1008
sS'GIT1'
p5506
NsS'Kinase'
p5507
S'active'
p5508
ssbasg843
I00
sbag0
(g818
g2
Ntp5509
Rp5510
(dp5511
g822
Nsg823
(lp5512
g0
(g825
g2
Ntp5513
Rp5514
(dp5515
g822
Nsg829
g1072
sg841
(dp5516
S'T185'
p5517
g1008
sS'Kinase'
p5518
S'active'
p5519
sS'Y187'
p5520
g1008
sS'ARRB2'
p5521
NsS'P3579'
p5522
Nsg5286
g1008
sS'RAF1'
p5523
Nssbasg843
I00
sbasb.