ccopy_reg
_reconstructor
p0
(cpysb.core
Model
p1
c__builtin__
object
p2
Ntp3
Rp4
(dp5
S'reactions'
p6
(lp7
sS'initial_conditions'
p8
(lp9
(g0
(cpysb.core
ComplexPattern
p10
g2
Ntp11
Rp12
(dp13
S'compartment'
p14
NsS'monomer_patterns'
p15
(lp16
g0
(cpysb.core
MonomerPattern
p17
g2
Ntp18
Rp19
(dp20
g14
NsS'monomer'
p21
g0
(cpysb.core
Monomer
p22
g2
Ntp23
Rp24
(dp25
S'site_states'
p26
(dp27
sS'name'
p28
S'EGF'
p29
sS'_export'
p30
I00
sS'sites'
p31
(lp32
sbsS'site_conditions'
p33
(dp34
sbasS'match_once'
p35
I00
sbg0
(cpysb.core
Parameter
p36
g2
Ntp37
Rp38
(dp39
g30
I00
sS'value'
p40
F10000.0
sbtp41
a(g0
(g10
g2
Ntp42
Rp43
(dp44
g14
Nsg15
(lp45
g0
(g17
g2
Ntp46
Rp47
(dp48
g14
Nsg21
g0
(g22
g2
Ntp49
Rp50
(dp51
g26
(dp52
S'Kinase'
p53
(lp54
S'inactive'
p55
aS'active'
p56
assg28
S'EGFR'
p57
sg30
I00
sg31
(lp58
S'ERBB2'
p59
ag53
asbsg33
(dp60
g59
Nsg53
g55
ssbasg35
I00
sbg38
tp61
a(g0
(g10
g2
Ntp62
Rp63
(dp64
g14
Nsg15
(lp65
g0
(g17
g2
Ntp66
Rp67
(dp68
g14
Nsg21
g0
(g22
g2
Ntp69
Rp70
(dp71
g26
(dp72
S'Catalytic'
p73
(lp74
S'inactive'
p75
aS'active'
p76
assg28
S'SOS1'
p77
sg30
I00
sg31
(lp78
S'GRB2'
p79
ag73
asbsg33
(dp80
g79
Nsg73
g75
ssbasg35
I00
sbg38
tp81
a(g0
(g10
g2
Ntp82
Rp83
(dp84
g14
Nsg15
(lp85
g0
(g17
g2
Ntp86
Rp87
(dp88
g14
Nsg21
g0
(g22
g2
Ntp89
Rp90
(dp91
g26
(dp92
S'GtpBound'
p93
(lp94
g55
ag56
assg28
S'HRAS'
p95
sg30
I00
sg31
(lp96
S'BRAF'
p97
aS'BCL2'
p98
ag93
asbsg33
(dp99
g98
Nsg97
Nsg93
g55
ssbasg35
I00
sbg38
tp100
a(g0
(g10
g2
Ntp101
Rp102
(dp103
g14
Nsg15
(lp104
g0
(g17
g2
Ntp105
Rp106
(dp107
g14
Nsg21
g0
(g22
g2
Ntp108
Rp109
(dp110
g26
(dp111
S'GtpBound'
p112
(lp113
g55
ag56
assg28
S'NRAS'
p114
sg30
I00
sg31
(lp115
g112
asbsg33
(dp116
g112
g55
ssbasg35
I00
sbg38
tp117
a(g0
(g10
g2
Ntp118
Rp119
(dp120
g14
Nsg15
(lp121
g0
(g17
g2
Ntp122
Rp123
(dp124
g14
Nsg21
g0
(g22
g2
Ntp125
Rp126
(dp127
g26
(dp128
S'GtpBound'
p129
(lp130
S'inactive'
p131
aS'active'
p132
assg28
S'KRAS'
p133
sg30
I00
sg31
(lp134
g129
asbsg33
(dp135
g129
g131
ssbasg35
I00
sbg38
tp136
a(g0
(g10
g2
Ntp137
Rp138
(dp139
g14
Nsg15
(lp140
g0
(g17
g2
Ntp141
Rp142
(dp143
g14
Nsg21
g0
(g22
g2
Ntp144
Rp145
(dp146
g26
(dp147
S'Kinase'
p148
(lp149
S'inactive'
p150
aS'active'
p151
assg28
S'ARAF'
p152
sg30
I00
sg31
(lp153
g148
asbsg33
(dp154
g148
g150
ssbasg35
I00
sbg38
tp155
a(g0
(g10
g2
Ntp156
Rp157
(dp158
g14
Nsg15
(lp159
g0
(g17
g2
Ntp160
Rp161
(dp162
g14
Nsg21
g0
(g22
g2
Ntp163
Rp164
(dp165
g26
(dp166
S'Kinase'
p167
(lp168
g150
ag151
assg28
g97
sg30
I00
sg31
(lp169
g95
aS'PRKCE'
p170
aS'RPS6KB2'
p171
ag167
asbsg33
(dp172
g95
Nsg170
Nsg167
g150
sg171
Nssbasg35
I00
sbg38
tp173
a(g0
(g10
g2
Ntp174
Rp175
(dp176
g14
Nsg15
(lp177
g0
(g17
g2
Ntp178
Rp179
(dp180
g14
Nsg21
g0
(g22
g2
Ntp181
Rp182
(dp183
g26
(dp184
S'Y340'
p185
(lp186
S'u'
p187
aS'p'
p188
asS'Y341'
p189
(lp190
g187
ag188
asS'S259'
p191
(lp192
g187
ag188
asS'S499'
p193
(lp194
g187
ag188
asS'Kinase'
p195
(lp196
S'inactive'
p197
aS'active'
p198
asS'S43'
p199
(lp200
g187
ag188
asS'S339'
p201
(lp202
g187
ag188
assg28
S'RAF1'
p203
sg30
I00
sg31
(lp204
S'PAK2'
p205
aS'YWHAB'
p206
aS'PRKCZ'
p207
aS'KRT18'
p208
aS'CFLAR'
p209
aS'KRT8'
p210
aS'RB1'
p211
aS'P3579'
p212
aS'ARRB2'
p213
aS'MAPK1'
p214
aS'YWHAQ'
p215
aS'PEBP1'
p216
ag189
ag199
ag185
ag193
ag191
ag201
ag195
asbsg33
(dp217
g191
g187
sg189
g187
sg195
g197
sg207
Nsg213
Nsg199
g187
sg210
Nsg185
g187
sg216
Nsg193
g187
sg215
Nsg211
Nsg209
Nsg214
Nsg212
Nsg206
Nsg201
g187
sg205
Nsg208
Nssbasg35
I00
sbg38
tp218
a(g0
(g10
g2
Ntp219
Rp220
(dp221
g14
Nsg15
(lp222
g0
(g17
g2
Ntp223
Rp224
(dp225
g14
Nsg21
g0
(g22
g2
Ntp226
Rp227
(dp228
g26
(dp229
S'S'
p230
(lp231
g187
ag188
asS'T25'
p232
(lp233
g187
ag188
asg195
(lp234
g197
ag198
assg28
S'MAP2K1'
p235
sg30
I00
sg31
(lp236
S'GIT1'
p237
ag232
ag230
ag195
asbsg33
(dp238
g230
g187
sg232
g187
sg237
Nsg195
g197
ssbasg35
I00
sbg38
tp239
a(g0
(g10
g2
Ntp240
Rp241
(dp242
g14
Nsg15
(lp243
g0
(g17
g2
Ntp244
Rp245
(dp246
g14
Nsg21
g0
(g22
g2
Ntp247
Rp248
(dp249
g26
(dp250
S'Y'
p251
(lp252
g187
ag188
asS'Y187'
p253
(lp254
g187
ag188
asS'T185'
p255
(lp256
g187
ag188
asg195
(lp257
g197
ag198
assg28
g214
sg30
I00
sg31
(lp258
g212
ag213
aS'RAF1'
p259
ag253
ag255
ag251
ag195
asbsg33
(dp260
g253
g187
sg213
Nsg212
Nsg251
g187
sg259
Nsg255
g187
sg195
g197
ssbasg35
I00
sbg38
tp261
a(g0
(g10
g2
Ntp262
Rp263
(dp264
g14
Nsg15
(lp265
g0
(g17
g2
Ntp266
Rp267
(dp268
g14
Nsg21
g0
(g22
g2
Ntp269
Rp270
(dp271
g26
(dp272
S'Catalytic'
p273
(lp274
S'inactive'
p275
aS'active'
p276
assg28
S'RASA2'
p277
sg30
I00
sg31
(lp278
g273
asbsg33
(dp279
S'Catalytic'
p280
S'active'
p281
ssbasg35
I00
sbg38
tp282
a(g0
(g10
g2
Ntp283
Rp284
(dp285
g14
Nsg15
(lp286
g0
(g17
g2
Ntp287
Rp288
(dp289
g14
Nsg21
g0
(g22
g2
Ntp290
Rp291
(dp292
g26
(dp293
S'Catalytic'
p294
(lp295
g75
ag76
assg28
S'RASA3'
p296
sg30
I00
sg31
(lp297
g294
asbsg33
(dp298
g280
g281
ssbasg35
I00
sbg38
tp299
asg28
NsS'parameters'
p300
g0
(cpysb.core
ComponentSet
p301
g2
Ntp302
Rp303
(dp304
S'_index_map'
p305
(dp306
S'MAPK1_0'
p307
I15
sS'RAS_0'
p308
I12
sS'EGFR_0'
p309
I10
sS'AKT_0'
p310
I16
sS'MAP2K1_0'
p311
I14
sS'SOS_0'
p312
I11
sS'kf_bind'
p313
I0
sS'kf_gef'
p314
I5
sS'init_default'
p315
I8
sS'kf_gap'
p316
I6
sS'default_ic'
p317
I7
sS'kf_phospho'
p318
I1
sS'RAF_0'
p319
I13
sS'kf_dephospho'
p320
I2
sS'EGF_0'
p321
I9
sS'kf_activation'
p322
I3
sS'kf_one_step_activate'
p323
I4
ssS'_elements'
p324
(lp325
g0
(g36
g2
Ntp326
Rp327
(dp328
g30
I00
sg40
F1e-06
sbag0
(g36
g2
Ntp329
Rp330
(dp331
g30
I00
sg40
F1e-06
sbag0
(g36
g2
Ntp332
Rp333
(dp334
g30
I00
sg40
F1e-06
sbag0
(g36
g2
Ntp335
Rp336
(dp337
g30
I00
sg40
F1e-06
sbag0
(g36
g2
Ntp338
Rp339
(dp340
g30
I00
sg40
F1e-06
sbag0
(g36
g2
Ntp341
Rp342
(dp343
g30
I00
sg40
F1e-06
sbag0
(g36
g2
Ntp344
Rp345
(dp346
g30
I00
sg40
F1e-06
sbag0
(g36
g2
Ntp347
Rp348
(dp349
g30
I00
sg40
F100.0
sbag0
(g36
g2
Ntp350
Rp351
(dp352
g30
I00
sg40
F10000.0
sbag38
ag0
(g36
g2
Ntp353
Rp354
(dp355
g30
I00
sg40
F70000.0
sbag0
(g36
g2
Ntp356
Rp357
(dp358
g30
I00
sg40
F5000000.0
sbag0
(g36
g2
Ntp359
Rp360
(dp361
g30
I00
sg40
F58000.0
sbag0
(g36
g2
Ntp362
Rp363
(dp364
g30
I00
sg40
F40000.0
sbag0
(g36
g2
Ntp365
Rp366
(dp367
g30
I00
sg40
F3020000.0
sbag0
(g36
g2
Ntp368
Rp369
(dp370
g30
I00
sg40
F695000.0
sbag0
(g36
g2
Ntp371
Rp372
(dp373
g30
I00
sg40
F905000.0
sbasS'_map'
p374
(dp375
g307
g369
sg308
g360
sg309
g354
sg310
g372
sg311
g366
sg312
g357
sg313
g327
sg314
g342
sg315
g351
sg316
g345
sg317
g348
sg318
g330
sg319
g363
sg320
g333
sg321
g38
sg322
g336
sg323
g339
ssbsS'rules'
p376
g0
(g301
g2
Ntp377
Rp378
(dp379
g305
(dp380
S'EGFR_Kinase_activates_SOS1_Catalytic'
p381
I54
sS'RASA3_activates_HRAS'
p382
I48
sS'PRKCE_RPS6KB2_BRAF_bind'
p383
I8
sS'GRB2_ACP1_bind'
p384
I25
sS'NRAS_GtpBound_activates_ARAF_Kinase'
p385
I62
sS'RAF1_YWHAB_PRKCZ_bind'
p386
I6
sS'HRAS_GtpBound_activates_ARAF_Kinase'
p387
I61
sS'SOS1_GRB2_bind'
p388
I24
sS'KRAS_GtpBound_activates_BRAF_Kinase'
p389
I56
sS'BCL2_HRAS_bind'
p390
I27
sS'RASA2_inactivates_NRAS'
p391
I63
sS'P3579_ARRB2_RAF1_MAPK1_bind'
p392
I11
sS'MAP3K3_Kinase_activates_MAP2K1_Kinase'
p393
I51
sS'RASA3_inactivates_KRAS'
p394
I49
sS'SLC9A3R2_LPAR2_bind'
p395
I2
sS'PRKC_FAMILY_phospho_RAF1_S499'
p396
I33
sS'HRAS_GtpBound_activates_BRAF_Kinase'
p397
I46
sS'MAP3K1_Kinase_activates_MAP2K1_Kinase'
p398
I57
sS'PRKA_FAMILY_phospho_RAF1_S43'
p399
I31
sS'KRAS_GtpBound_activates_RAF1_Kinase'
p400
I43
sS'CREBBP_CREB1_bind'
p401
I23
sS'RASA4_inactivates_KRAS'
p402
I42
sS'HRAS_GtpBound_activates_RAF1_Kinase'
p403
I44
sS'RASAL1_inactivates_NRAS'
p404
I53
sS'ITGB4_ITGA6_bind'
p405
I5
sS'SOS_FAMILY_activates_NRAS'
p406
I41
sS'RAF1_S339p_DirectlyIncreases_Kinase'
p407
I37
sS'RET_phospho_MAPK1_Y187'
p408
I30
sS'SRC_phospho_RAF1_Y340'
p409
I32
sS'KITLG_KIT_bind'
p410
I18
sS'DAB2IP_inactivates_KRAS'
p411
I58
sS'MAP2K1_Sp_DirectlyIncreases_Kinase'
p412
I38
sS'BRAF_Kinase_activates_MAP2K1_Kinase'
p413
I59
sS'SOS1_activates_NRAS'
p414
I55
sS'PRKCZ_RAF1_bind'
p415
I21
sS'RB1_RAF1_bind'
p416
I10
sS'HRAS_BRAF_bind'
p417
I1
sS'DUSP4_dephospho_MAPK1_T185'
p418
I35
sS'RAF_FAMILY_Kinase_activates_MAP2K1_Kinase'
p419
I50
sS'SOS1_activates_KRAS'
p420
I52
sS'P2_FAMILY_phospho_MAP2K1_T25'
p421
I29
sS'RAF1_Kinase_activates_MAP2K1_Kinase'
p422
I64
sS'HSF1_MAPK3_bind'
p423
I4
sS'GPER_ESTRADIOL_bind'
p424
I20
sS'KRT18_CFLAR_KRT8_RAF1_bind'
p425
I7
sS'EGF_activates_EGFR'
p426
I65
sS'JAK1_phospho_RAF1_Y341'
p427
I28
sS'ERBB2_EGFR_bind'
p428
I26
sS'ESR1_ESTRADIOL_bind'
p429
I17
sS'RAF1_PAK2_bind'
p430
I0
sS'MAP2K1_Kinase_activates_MAPK1_Kinase'
p431
I40
sS'GIT1_MAP2K1_bind'
p432
I19
sS'AKT_FAMILY_phospho_RAF1_S259'
p433
I34
sS'SOS1_activates_HRAS'
p434
I45
sS'VAV1_LCP2_bind'
p435
I12
sS'PRKCZ_YWHAQ_RAF1_bind'
p436
I13
sS'RAF1_KRT8_bind'
p437
I9
sS'MIF_CD74_bind'
p438
I22
sS'PEBP1_RAF1_bind'
p439
I15
sS'KRAS_GtpBound_activates_ARAF_Kinase'
p440
I47
sS'ITGA5_ITGB1_bind'
p441
I3
sS'MAPK1_Yp_DirectlyIncreases_Kinase'
p442
I36
sS'NRAS_GtpBound_activates_BRAF_Kinase'
p443
I39
sS'GRB2_DAB2_bind'
p444
I14
sS'ITGAV_ITGB3_bind'
p445
I16
sS'ARAF_Kinase_activates_MAP2K1_Kinase'
p446
I60
ssg324
(lp447
g0
(cpysb.core
Rule
p448
g2
Ntp449
Rp450
(dp451
S'rate_forward'
p452
g327
sS'reactant_pattern'
p453
g0
(cpysb.core
ReactionPattern
p454
g2
Ntp455
Rp456
(dp457
S'complex_patterns'
p458
(lp459
g0
(g10
g2
Ntp460
Rp461
(dp462
g14
Nsg15
(lp463
g0
(g17
g2
Ntp464
Rp465
(dp466
g14
Nsg21
g182
sg33
(dp467
g205
Nssbasg35
I00
sbag0
(g10
g2
Ntp468
Rp469
(dp470
g14
Nsg15
(lp471
g0
(g17
g2
Ntp472
Rp473
(dp474
g14
Nsg21
g0
(g22
g2
Ntp475
Rp476
(dp477
g26
(dp478
sg28
g205
sg30
I00
sg31
(lp479
g203
asbsg33
(dp480
g203
Nssbasg35
I00
sbasbsg28
g430
sS'is_reversible'
p481
I01
sS'rule_expression'
p482
g0
(cpysb.core
RuleExpression
p483
g2
Ntp484
Rp485
(dp486
S'product_pattern'
p487
g0
(g454
g2
Ntp488
Rp489
(dp490
g458
(lp491
g0
(g10
g2
Ntp492
Rp493
(dp494
g14
Nsg15
(lp495
g0
(g17
g2
Ntp496
Rp497
(dp498
g14
Nsg21
g182
sg33
(dp499
g205
I1
ssbag0
(g17
g2
Ntp500
Rp501
(dp502
g14
Nsg21
g476
sg33
(dp503
g203
I1
ssbasg35
I00
sbasbsg453
g456
sg481
I01
sbsS'move_connected'
p504
I00
sg30
I00
sg487
g489
sS'delete_molecules'
p505
I00
sS'rate_reverse'
p506
g327
sbag0
(g448
g2
Ntp507
Rp508
(dp509
g452
g327
sg453
g0
(g454
g2
Ntp510
Rp511
(dp512
g458
(lp513
g0
(g10
g2
Ntp514
Rp515
(dp516
g14
Nsg15
(lp517
g0
(g17
g2
Ntp518
Rp519
(dp520
g14
Nsg21
g90
sg33
(dp521
g97
Nssbasg35
I00
sbag0
(g10
g2
Ntp522
Rp523
(dp524
g14
Nsg15
(lp525
g0
(g17
g2
Ntp526
Rp527
(dp528
g14
Nsg21
g164
sg33
(dp529
g95
Nssbasg35
I00
sbasbsg28
g417
sg481
I01
sg482
g0
(g483
g2
Ntp530
Rp531
(dp532
g487
g0
(g454
g2
Ntp533
Rp534
(dp535
g458
(lp536
g0
(g10
g2
Ntp537
Rp538
(dp539
g14
Nsg15
(lp540
g0
(g17
g2
Ntp541
Rp542
(dp543
g14
Nsg21
g90
sg33
(dp544
g97
I1
ssbag0
(g17
g2
Ntp545
Rp546
(dp547
g14
Nsg21
g164
sg33
(dp548
g95
I1
ssbasg35
I00
sbasbsg453
g511
sg481
I01
sbsg504
I00
sg30
I00
sg487
g534
sg505
I00
sg506
g327
sbag0
(g448
g2
Ntp549
Rp550
(dp551
g452
g327
sg453
g0
(g454
g2
Ntp552
Rp553
(dp554
g458
(lp555
g0
(g10
g2
Ntp556
Rp557
(dp558
g14
Nsg15
(lp559
g0
(g17
g2
Ntp560
Rp561
(dp562
g14
Nsg21
g0
(g22
g2
Ntp563
Rp564
(dp565
g26
(dp566
sg28
S'SLC9A3R2'
p567
sg30
I00
sg31
(lp568
S'LPAR2'
p569
asbsg33
(dp570
g569
Nssbasg35
I00
sbag0
(g10
g2
Ntp571
Rp572
(dp573
g14
Nsg15
(lp574
g0
(g17
g2
Ntp575
Rp576
(dp577
g14
Nsg21
g0
(g22
g2
Ntp578
Rp579
(dp580
g26
(dp581
sg28
g569
sg30
I00
sg31
(lp582
g567
asbsg33
(dp583
g567
Nssbasg35
I00
sbasbsg28
g395
sg481
I01
sg482
g0
(g483
g2
Ntp584
Rp585
(dp586
g487
g0
(g454
g2
Ntp587
Rp588
(dp589
g458
(lp590
g0
(g10
g2
Ntp591
Rp592
(dp593
g14
Nsg15
(lp594
g0
(g17
g2
Ntp595
Rp596
(dp597
g14
Nsg21
g564
sg33
(dp598
g569
I1
ssbag0
(g17
g2
Ntp599
Rp600
(dp601
g14
Nsg21
g579
sg33
(dp602
g567
I1
ssbasg35
I00
sbasbsg453
g553
sg481
I01
sbsg504
I00
sg30
I00
sg487
g588
sg505
I00
sg506
g327
sbag0
(g448
g2
Ntp603
Rp604
(dp605
g452
g327
sg453
g0
(g454
g2
Ntp606
Rp607
(dp608
g458
(lp609
g0
(g10
g2
Ntp610
Rp611
(dp612
g14
Nsg15
(lp613
g0
(g17
g2
Ntp614
Rp615
(dp616
g14
Nsg21
g0
(g22
g2
Ntp617
Rp618
(dp619
g26
(dp620
sg28
S'ITGA5'
p621
sg30
I00
sg31
(lp622
S'ITGB1'
p623
asbsg33
(dp624
g623
Nssbasg35
I00
sbag0
(g10
g2
Ntp625
Rp626
(dp627
g14
Nsg15
(lp628
g0
(g17
g2
Ntp629
Rp630
(dp631
g14
Nsg21
g0
(g22
g2
Ntp632
Rp633
(dp634
g26
(dp635
sg28
g623
sg30
I00
sg31
(lp636
g621
asbsg33
(dp637
g621
Nssbasg35
I00
sbasbsg28
g441
sg481
I01
sg482
g0
(g483
g2
Ntp638
Rp639
(dp640
g487
g0
(g454
g2
Ntp641
Rp642
(dp643
g458
(lp644
g0
(g10
g2
Ntp645
Rp646
(dp647
g14
Nsg15
(lp648
g0
(g17
g2
Ntp649
Rp650
(dp651
g14
Nsg21
g618
sg33
(dp652
g623
I1
ssbag0
(g17
g2
Ntp653
Rp654
(dp655
g14
Nsg21
g633
sg33
(dp656
g621
I1
ssbasg35
I00
sbasbsg453
g607
sg481
I01
sbsg504
I00
sg30
I00
sg487
g642
sg505
I00
sg506
g327
sbag0
(g448
g2
Ntp657
Rp658
(dp659
g452
g327
sg453
g0
(g454
g2
Ntp660
Rp661
(dp662
g458
(lp663
g0
(g10
g2
Ntp664
Rp665
(dp666
g14
Nsg15
(lp667
g0
(g17
g2
Ntp668
Rp669
(dp670
g14
Nsg21
g0
(g22
g2
Ntp671
Rp672
(dp673
g26
(dp674
sg28
S'HSF1'
p675
sg30
I00
sg31
(lp676
S'MAPK3'
p677
asbsg33
(dp678
g677
Nssbasg35
I00
sbag0
(g10
g2
Ntp679
Rp680
(dp681
g14
Nsg15
(lp682
g0
(g17
g2
Ntp683
Rp684
(dp685
g14
Nsg21
g0
(g22
g2
Ntp686
Rp687
(dp688
g26
(dp689
sg28
g677
sg30
I00
sg31
(lp690
g675
asbsg33
(dp691
g675
Nssbasg35
I00
sbasbsg28
g423
sg481
I01
sg482
g0
(g483
g2
Ntp692
Rp693
(dp694
g487
g0
(g454
g2
Ntp695
Rp696
(dp697
g458
(lp698
g0
(g10
g2
Ntp699
Rp700
(dp701
g14
Nsg15
(lp702
g0
(g17
g2
Ntp703
Rp704
(dp705
g14
Nsg21
g672
sg33
(dp706
g677
I1
ssbag0
(g17
g2
Ntp707
Rp708
(dp709
g14
Nsg21
g687
sg33
(dp710
g675
I1
ssbasg35
I00
sbasbsg453
g661
sg481
I01
sbsg504
I00
sg30
I00
sg487
g696
sg505
I00
sg506
g327
sbag0
(g448
g2
Ntp711
Rp712
(dp713
g452
g327
sg453
g0
(g454
g2
Ntp714
Rp715
(dp716
g458
(lp717
g0
(g10
g2
Ntp718
Rp719
(dp720
g14
Nsg15
(lp721
g0
(g17
g2
Ntp722
Rp723
(dp724
g14
Nsg21
g0
(g22
g2
Ntp725
Rp726
(dp727
g26
(dp728
sg28
S'ITGB4'
p729
sg30
I00
sg31
(lp730
S'ITGA6'
p731
asbsg33
(dp732
g731
Nssbasg35
I00
sbag0
(g10
g2
Ntp733
Rp734
(dp735
g14
Nsg15
(lp736
g0
(g17
g2
Ntp737
Rp738
(dp739
g14
Nsg21
g0
(g22
g2
Ntp740
Rp741
(dp742
g26
(dp743
sg28
g731
sg30
I00
sg31
(lp744
g729
asbsg33
(dp745
g729
Nssbasg35
I00
sbasbsg28
g405
sg481
I01
sg482
g0
(g483
g2
Ntp746
Rp747
(dp748
g487
g0
(g454
g2
Ntp749
Rp750
(dp751
g458
(lp752
g0
(g10
g2
Ntp753
Rp754
(dp755
g14
Nsg15
(lp756
g0
(g17
g2
Ntp757
Rp758
(dp759
g14
Nsg21
g726
sg33
(dp760
g731
I1
ssbag0
(g17
g2
Ntp761
Rp762
(dp763
g14
Nsg21
g741
sg33
(dp764
g729
I1
ssbasg35
I00
sbasbsg453
g715
sg481
I01
sbsg504
I00
sg30
I00
sg487
g750
sg505
I00
sg506
g327
sbag0
(g448
g2
Ntp765
Rp766
(dp767
g452
g327
sg453
g0
(g454
g2
Ntp768
Rp769
(dp770
g458
(lp771
g0
(g10
g2
Ntp772
Rp773
(dp774
g14
Nsg15
(lp775
g0
(g17
g2
Ntp776
Rp777
(dp778
g14
Nsg21
g182
sg33
(dp779
g206
Nsg207
Nssbasg35
I00
sbag0
(g10
g2
Ntp780
Rp781
(dp782
g14
Nsg15
(lp783
g0
(g17
g2
Ntp784
Rp785
(dp786
g14
Nsg21
g0
(g22
g2
Ntp787
Rp788
(dp789
g26
(dp790
sg28
g206
sg30
I00
sg31
(lp791
S'RAF1'
p792
ag207
asbsg33
(dp793
g207
Nsg792
Nssbasg35
I00
sbag0
(g10
g2
Ntp794
Rp795
(dp796
g14
Nsg15
(lp797
g0
(g17
g2
Ntp798
Rp799
(dp800
g14
Nsg21
g0
(g22
g2
Ntp801
Rp802
(dp803
g26
(dp804
sg28
g207
sg30
I00
sg31
(lp805
g792
ag206
ag215
asbsg33
(dp806
g206
Nsg792
Nssbasg35
I00
sbasbsg28
g386
sg481
I01
sg482
g0
(g483
g2
Ntp807
Rp808
(dp809
g487
g0
(g454
g2
Ntp810
Rp811
(dp812
g458
(lp813
g0
(g10
g2
Ntp814
Rp815
(dp816
g14
Nsg15
(lp817
g0
(g17
g2
Ntp818
Rp819
(dp820
g14
Nsg21
g182
sg33
(dp821
g206
I1
sg207
I2
ssbag0
(g17
g2
Ntp822
Rp823
(dp824
g14
Nsg21
g788
sg33
(dp825
g207
I3
sg792
I1
ssbag0
(g17
g2
Ntp826
Rp827
(dp828
g14
Nsg21
g802
sg33
(dp829
g206
I3
sg792
I2
ssbasg35
I00
sbasbsg453
g769
sg481
I01
sbsg504
I00
sg30
I00
sg487
g811
sg505
I00
sg506
g327
sbag0
(g448
g2
Ntp830
Rp831
(dp832
g452
g327
sg453
g0
(g454
g2
Ntp833
Rp834
(dp835
g458
(lp836
g0
(g10
g2
Ntp837
Rp838
(dp839
g14
Nsg15
(lp840
g0
(g17
g2
Ntp841
Rp842
(dp843
g14
Nsg21
g0
(g22
g2
Ntp844
Rp845
(dp846
g26
(dp847
sg28
g208
sg30
I00
sg31
(lp848
g209
ag210
aS'RAF1'
p849
asbsg33
(dp850
g209
Nsg210
Nsg849
Nssbasg35
I00
sbag0
(g10
g2
Ntp851
Rp852
(dp853
g14
Nsg15
(lp854
g0
(g17
g2
Ntp855
Rp856
(dp857
g14
Nsg21
g0
(g22
g2
Ntp858
Rp859
(dp860
g26
(dp861
sg28
g209
sg30
I00
sg31
(lp862
g208
ag210
ag849
asbsg33
(dp863
g210
Nsg849
Nsg208
Nssbasg35
I00
sbag0
(g10
g2
Ntp864
Rp865
(dp866
g14
Nsg15
(lp867
g0
(g17
g2
Ntp868
Rp869
(dp870
g14
Nsg21
g0
(g22
g2
Ntp871
Rp872
(dp873
g26
(dp874
sg28
g210
sg30
I00
sg31
(lp875
g208
ag209
ag849
asbsg33
(dp876
g209
Nsg849
Nsg208
Nssbasg35
I00
sbag0
(g10
g2
Ntp877
Rp878
(dp879
g14
Nsg15
(lp880
g0
(g17
g2
Ntp881
Rp882
(dp883
g14
Nsg21
g182
sg33
(dp884
g209
Nsg210
Nsg208
Nssbasg35
I00
sbasbsg28
g425
sg481
I01
sg482
g0
(g483
g2
Ntp885
Rp886
(dp887
g487
g0
(g454
g2
Ntp888
Rp889
(dp890
g458
(lp891
g0
(g10
g2
Ntp892
Rp893
(dp894
g14
Nsg15
(lp895
g0
(g17
g2
Ntp896
Rp897
(dp898
g14
Nsg21
g845
sg33
(dp899
g209
I1
sg210
I2
sg849
I3
ssbag0
(g17
g2
Ntp900
Rp901
(dp902
g14
Nsg21
g859
sg33
(dp903
g210
I4
sg849
I5
sg208
I1
ssbag0
(g17
g2
Ntp904
Rp905
(dp906
g14
Nsg21
g872
sg33
(dp907
g209
I4
sg849
I6
sg208
I2
ssbag0
(g17
g2
Ntp908
Rp909
(dp910
g14
Nsg21
g182
sg33
(dp911
g209
I5
sg210
I6
sg208
I3
ssbasg35
I00
sbasbsg453
g834
sg481
I01
sbsg504
I00
sg30
I00
sg487
g889
sg505
I00
sg506
g327
sbag0
(g448
g2
Ntp912
Rp913
(dp914
g452
g327
sg453
g0
(g454
g2
Ntp915
Rp916
(dp917
g458
(lp918
g0
(g10
g2
Ntp919
Rp920
(dp921
g14
Nsg15
(lp922
g0
(g17
g2
Ntp923
Rp924
(dp925
g14
Nsg21
g0
(g22
g2
Ntp926
Rp927
(dp928
g26
(dp929
sg28
g170
sg30
I00
sg31
(lp930
g171
aS'BRAF'
p931
asbsg33
(dp932
g931
Nsg171
Nssbasg35
I00
sbag0
(g10
g2
Ntp933
Rp934
(dp935
g14
Nsg15
(lp936
g0
(g17
g2
Ntp937
Rp938
(dp939
g14
Nsg21
g0
(g22
g2
Ntp940
Rp941
(dp942
g26
(dp943
sg28
g171
sg30
I00
sg31
(lp944
g170
ag931
asbsg33
(dp945
g170
Nsg931
Nssbasg35
I00
sbag0
(g10
g2
Ntp946
Rp947
(dp948
g14
Nsg15
(lp949
g0
(g17
g2
Ntp950
Rp951
(dp952
g14
Nsg21
g164
sg33
(dp953
g170
Nsg171
Nssbasg35
I00
sbasbsg28
g383
sg481
I01
sg482
g0
(g483
g2
Ntp954
Rp955
(dp956
g487
g0
(g454
g2
Ntp957
Rp958
(dp959
g458
(lp960
g0
(g10
g2
Ntp961
Rp962
(dp963
g14
Nsg15
(lp964
g0
(g17
g2
Ntp965
Rp966
(dp967
g14
Nsg21
g927
sg33
(dp968
g931
I2
sg171
I1
ssbag0
(g17
g2
Ntp969
Rp970
(dp971
g14
Nsg21
g941
sg33
(dp972
g170
I1
sg931
I3
ssbag0
(g17
g2
Ntp973
Rp974
(dp975
g14
Nsg21
g164
sg33
(dp976
g170
I2
sg171
I3
ssbasg35
I00
sbasbsg453
g916
sg481
I01
sbsg504
I00
sg30
I00
sg487
g958
sg505
I00
sg506
g327
sbag0
(g448
g2
Ntp977
Rp978
(dp979
g452
g327
sg453
g0
(g454
g2
Ntp980
Rp981
(dp982
g458
(lp983
g0
(g10
g2
Ntp984
Rp985
(dp986
g14
Nsg15
(lp987
g0
(g17
g2
Ntp988
Rp989
(dp990
g14
Nsg21
g182
sg33
(dp991
S'KRT8'
p992
Nssbasg35
I00
sbag0
(g10
g2
Ntp993
Rp994
(dp995
g14
Nsg15
(lp996
g0
(g17
g2
Ntp997
Rp998
(dp999
g14
Nsg21
g872
sg33
(dp1000
S'RAF1'
p1001
Nssbasg35
I00
sbasbsg28
g437
sg481
I01
sg482
g0
(g483
g2
Ntp1002
Rp1003
(dp1004
g487
g0
(g454
g2
Ntp1005
Rp1006
(dp1007
g458
(lp1008
g0
(g10
g2
Ntp1009
Rp1010
(dp1011
g14
Nsg15
(lp1012
g0
(g17
g2
Ntp1013
Rp1014
(dp1015
g14
Nsg21
g182
sg33
(dp1016
g992
I1
ssbag0
(g17
g2
Ntp1017
Rp1018
(dp1019
g14
Nsg21
g872
sg33
(dp1020
g1001
I1
ssbasg35
I00
sbasbsg453
g981
sg481
I01
sbsg504
I00
sg30
I00
sg487
g1006
sg505
I00
sg506
g327
sbag0
(g448
g2
Ntp1021
Rp1022
(dp1023
g452
g327
sg453
g0
(g454
g2
Ntp1024
Rp1025
(dp1026
g458
(lp1027
g0
(g10
g2
Ntp1028
Rp1029
(dp1030
g14
Nsg15
(lp1031
g0
(g17
g2
Ntp1032
Rp1033
(dp1034
g14
Nsg21
g0
(g22
g2
Ntp1035
Rp1036
(dp1037
g26
(dp1038
sg28
g211
sg30
I00
sg31
(lp1039
S'RAF1'
p1040
asbsg33
(dp1041
g1040
Nssbasg35
I00
sbag0
(g10
g2
Ntp1042
Rp1043
(dp1044
g14
Nsg15
(lp1045
g0
(g17
g2
Ntp1046
Rp1047
(dp1048
g14
Nsg21
g182
sg33
(dp1049
g211
Nssbasg35
I00
sbasbsg28
g416
sg481
I01
sg482
g0
(g483
g2
Ntp1050
Rp1051
(dp1052
g487
g0
(g454
g2
Ntp1053
Rp1054
(dp1055
g458
(lp1056
g0
(g10
g2
Ntp1057
Rp1058
(dp1059
g14
Nsg15
(lp1060
g0
(g17
g2
Ntp1061
Rp1062
(dp1063
g14
Nsg21
g1036
sg33
(dp1064
g1040
I1
ssbag0
(g17
g2
Ntp1065
Rp1066
(dp1067
g14
Nsg21
g182
sg33
(dp1068
g211
I1
ssbasg35
I00
sbasbsg453
g1025
sg481
I01
sbsg504
I00
sg30
I00
sg487
g1054
sg505
I00
sg506
g327
sbag0
(g448
g2
Ntp1069
Rp1070
(dp1071
g452
g327
sg453
g0
(g454
g2
Ntp1072
Rp1073
(dp1074
g458
(lp1075
g0
(g10
g2
Ntp1076
Rp1077
(dp1078
g14
Nsg15
(lp1079
g0
(g17
g2
Ntp1080
Rp1081
(dp1082
g14
Nsg21
g0
(g22
g2
Ntp1083
Rp1084
(dp1085
g26
(dp1086
sg28
g212
sg30
I00
sg31
(lp1087
g213
ag259
ag214
asbsg33
(dp1088
g259
Nsg214
Nsg213
Nssbasg35
I00
sbag0
(g10
g2
Ntp1089
Rp1090
(dp1091
g14
Nsg15
(lp1092
g0
(g17
g2
Ntp1093
Rp1094
(dp1095
g14
Nsg21
g0
(g22
g2
Ntp1096
Rp1097
(dp1098
g26
(dp1099
sg28
g213
sg30
I00
sg31
(lp1100
g212
ag259
ag214
asbsg33
(dp1101
g214
Nsg259
Nsg212
Nssbasg35
I00
sbag0
(g10
g2
Ntp1102
Rp1103
(dp1104
g14
Nsg15
(lp1105
g0
(g17
g2
Ntp1106
Rp1107
(dp1108
g14
Nsg21
g182
sg33
(dp1109
g214
Nsg213
Nsg212
Nssbasg35
I00
sbag0
(g10
g2
Ntp1110
Rp1111
(dp1112
g14
Nsg15
(lp1113
g0
(g17
g2
Ntp1114
Rp1115
(dp1116
g14
Nsg21
g248
sg33
(dp1117
g259
Nsg213
Nsg212
Nssbasg35
I00
sbasbsg28
g392
sg481
I01
sg482
g0
(g483
g2
Ntp1118
Rp1119
(dp1120
g487
g0
(g454
g2
Ntp1121
Rp1122
(dp1123
g458
(lp1124
g0
(g10
g2
Ntp1125
Rp1126
(dp1127
g14
Nsg15
(lp1128
g0
(g17
g2
Ntp1129
Rp1130
(dp1131
g14
Nsg21
g1084
sg33
(dp1132
g259
I2
sg214
I3
sg213
I1
ssbag0
(g17
g2
Ntp1133
Rp1134
(dp1135
g14
Nsg21
g1097
sg33
(dp1136
g214
I5
sg259
I4
sg212
I1
ssbag0
(g17
g2
Ntp1137
Rp1138
(dp1139
g14
Nsg21
g182
sg33
(dp1140
g214
I6
sg213
I4
sg212
I2
ssbag0
(g17
g2
Ntp1141
Rp1142
(dp1143
g14
Nsg21
g248
sg33
(dp1144
g259
I6
sg213
I5
sg212
I3
ssbasg35
I00
sbasbsg453
g1073
sg481
I01
sbsg504
I00
sg30
I00
sg487
g1122
sg505
I00
sg506
g327
sbag0
(g448
g2
Ntp1145
Rp1146
(dp1147
g452
g327
sg453
g0
(g454
g2
Ntp1148
Rp1149
(dp1150
g458
(lp1151
g0
(g10
g2
Ntp1152
Rp1153
(dp1154
g14
Nsg15
(lp1155
g0
(g17
g2
Ntp1156
Rp1157
(dp1158
g14
Nsg21
g0
(g22
g2
Ntp1159
Rp1160
(dp1161
g26
(dp1162
sg28
S'VAV1'
p1163
sg30
I00
sg31
(lp1164
S'LCP2'
p1165
asbsg33
(dp1166
g1165
Nssbasg35
I00
sbag0
(g10
g2
Ntp1167
Rp1168
(dp1169
g14
Nsg15
(lp1170
g0
(g17
g2
Ntp1171
Rp1172
(dp1173
g14
Nsg21
g0
(g22
g2
Ntp1174
Rp1175
(dp1176
g26
(dp1177
sg28
g1165
sg30
I00
sg31
(lp1178
g1163
asbsg33
(dp1179
g1163
Nssbasg35
I00
sbasbsg28
g435
sg481
I01
sg482
g0
(g483
g2
Ntp1180
Rp1181
(dp1182
g487
g0
(g454
g2
Ntp1183
Rp1184
(dp1185
g458
(lp1186
g0
(g10
g2
Ntp1187
Rp1188
(dp1189
g14
Nsg15
(lp1190
g0
(g17
g2
Ntp1191
Rp1192
(dp1193
g14
Nsg21
g1160
sg33
(dp1194
g1165
I1
ssbag0
(g17
g2
Ntp1195
Rp1196
(dp1197
g14
Nsg21
g1175
sg33
(dp1198
g1163
I1
ssbasg35
I00
sbasbsg453
g1149
sg481
I01
sbsg504
I00
sg30
I00
sg487
g1184
sg505
I00
sg506
g327
sbag0
(g448
g2
Ntp1199
Rp1200
(dp1201
g452
g327
sg453
g0
(g454
g2
Ntp1202
Rp1203
(dp1204
g458
(lp1205
g0
(g10
g2
Ntp1206
Rp1207
(dp1208
g14
Nsg15
(lp1209
g0
(g17
g2
Ntp1210
Rp1211
(dp1212
g14
Nsg21
g802
sg33
(dp1213
g215
NsS'RAF1'
p1214
Nssbasg35
I00
sbag0
(g10
g2
Ntp1215
Rp1216
(dp1217
g14
Nsg15
(lp1218
g0
(g17
g2
Ntp1219
Rp1220
(dp1221
g14
Nsg21
g0
(g22
g2
Ntp1222
Rp1223
(dp1224
g26
(dp1225
sg28
g215
sg30
I00
sg31
(lp1226
S'PRKCZ'
p1227
ag1214
asbsg33
(dp1228
g1227
Nsg1214
Nssbasg35
I00
sbag0
(g10
g2
Ntp1229
Rp1230
(dp1231
g14
Nsg15
(lp1232
g0
(g17
g2
Ntp1233
Rp1234
(dp1235
g14
Nsg21
g182
sg33
(dp1236
g1227
Nsg215
Nssbasg35
I00
sbasbsg28
g436
sg481
I01
sg482
g0
(g483
g2
Ntp1237
Rp1238
(dp1239
g487
g0
(g454
g2
Ntp1240
Rp1241
(dp1242
g458
(lp1243
g0
(g10
g2
Ntp1244
Rp1245
(dp1246
g14
Nsg15
(lp1247
g0
(g17
g2
Ntp1248
Rp1249
(dp1250
g14
Nsg21
g802
sg33
(dp1251
g215
I1
sg1214
I2
ssbag0
(g17
g2
Ntp1252
Rp1253
(dp1254
g14
Nsg21
g1223
sg33
(dp1255
g1227
I1
sg1214
I3
ssbag0
(g17
g2
Ntp1256
Rp1257
(dp1258
g14
Nsg21
g182
sg33
(dp1259
g1227
I2
sg215
I3
ssbasg35
I00
sbasbsg453
g1203
sg481
I01
sbsg504
I00
sg30
I00
sg487
g1241
sg505
I00
sg506
g327
sbag0
(g448
g2
Ntp1260
Rp1261
(dp1262
g452
g327
sg453
g0
(g454
g2
Ntp1263
Rp1264
(dp1265
g458
(lp1266
g0
(g10
g2
Ntp1267
Rp1268
(dp1269
g14
Nsg15
(lp1270
g0
(g17
g2
Ntp1271
Rp1272
(dp1273
g14
Nsg21
g0
(g22
g2
Ntp1274
Rp1275
(dp1276
g26
(dp1277
sg28
S'GRB2'
p1278
sg30
I00
sg31
(lp1279
S'DAB2'
p1280
ag77
aS'ACP1'
p1281
asbsg33
(dp1282
g1280
Nssbasg35
I00
sbag0
(g10
g2
Ntp1283
Rp1284
(dp1285
g14
Nsg15
(lp1286
g0
(g17
g2
Ntp1287
Rp1288
(dp1289
g14
Nsg21
g0
(g22
g2
Ntp1290
Rp1291
(dp1292
g26
(dp1293
sg28
g1280
sg30
I00
sg31
(lp1294
g1278
asbsg33
(dp1295
g1278
Nssbasg35
I00
sbasbsg28
g444
sg481
I01
sg482
g0
(g483
g2
Ntp1296
Rp1297
(dp1298
g487
g0
(g454
g2
Ntp1299
Rp1300
(dp1301
g458
(lp1302
g0
(g10
g2
Ntp1303
Rp1304
(dp1305
g14
Nsg15
(lp1306
g0
(g17
g2
Ntp1307
Rp1308
(dp1309
g14
Nsg21
g1275
sg33
(dp1310
g1280
I1
ssbag0
(g17
g2
Ntp1311
Rp1312
(dp1313
g14
Nsg21
g1291
sg33
(dp1314
g1278
I1
ssbasg35
I00
sbasbsg453
g1264
sg481
I01
sbsg504
I00
sg30
I00
sg487
g1300
sg505
I00
sg506
g327
sbag0
(g448
g2
Ntp1315
Rp1316
(dp1317
g452
g327
sg453
g0
(g454
g2
Ntp1318
Rp1319
(dp1320
g458
(lp1321
g0
(g10
g2
Ntp1322
Rp1323
(dp1324
g14
Nsg15
(lp1325
g0
(g17
g2
Ntp1326
Rp1327
(dp1328
g14
Nsg21
g0
(g22
g2
Ntp1329
Rp1330
(dp1331
g26
(dp1332
sg28
g216
sg30
I00
sg31
(lp1333
S'RAF1'
p1334
asbsg33
(dp1335
g1334
Nssbasg35
I00
sbag0
(g10
g2
Ntp1336
Rp1337
(dp1338
g14
Nsg15
(lp1339
g0
(g17
g2
Ntp1340
Rp1341
(dp1342
g14
Nsg21
g182
sg33
(dp1343
g216
Nssbasg35
I00
sbasbsg28
g439
sg481
I01
sg482
g0
(g483
g2
Ntp1344
Rp1345
(dp1346
g487
g0
(g454
g2
Ntp1347
Rp1348
(dp1349
g458
(lp1350
g0
(g10
g2
Ntp1351
Rp1352
(dp1353
g14
Nsg15
(lp1354
g0
(g17
g2
Ntp1355
Rp1356
(dp1357
g14
Nsg21
g1330
sg33
(dp1358
g1334
I1
ssbag0
(g17
g2
Ntp1359
Rp1360
(dp1361
g14
Nsg21
g182
sg33
(dp1362
g216
I1
ssbasg35
I00
sbasbsg453
g1319
sg481
I01
sbsg504
I00
sg30
I00
sg487
g1348
sg505
I00
sg506
g327
sbag0
(g448
g2
Ntp1363
Rp1364
(dp1365
g452
g327
sg453
g0
(g454
g2
Ntp1366
Rp1367
(dp1368
g458
(lp1369
g0
(g10
g2
Ntp1370
Rp1371
(dp1372
g14
Nsg15
(lp1373
g0
(g17
g2
Ntp1374
Rp1375
(dp1376
g14
Nsg21
g0
(g22
g2
Ntp1377
Rp1378
(dp1379
g26
(dp1380
sg28
S'ITGAV'
p1381
sg30
I00
sg31
(lp1382
S'ITGB3'
p1383
asbsg33
(dp1384
g1383
Nssbasg35
I00
sbag0
(g10
g2
Ntp1385
Rp1386
(dp1387
g14
Nsg15
(lp1388
g0
(g17
g2
Ntp1389
Rp1390
(dp1391
g14
Nsg21
g0
(g22
g2
Ntp1392
Rp1393
(dp1394
g26
(dp1395
sg28
g1383
sg30
I00
sg31
(lp1396
g1381
asbsg33
(dp1397
g1381
Nssbasg35
I00
sbasbsg28
g445
sg481
I01
sg482
g0
(g483
g2
Ntp1398
Rp1399
(dp1400
g487
g0
(g454
g2
Ntp1401
Rp1402
(dp1403
g458
(lp1404
g0
(g10
g2
Ntp1405
Rp1406
(dp1407
g14
Nsg15
(lp1408
g0
(g17
g2
Ntp1409
Rp1410
(dp1411
g14
Nsg21
g1378
sg33
(dp1412
g1383
I1
ssbag0
(g17
g2
Ntp1413
Rp1414
(dp1415
g14
Nsg21
g1393
sg33
(dp1416
g1381
I1
ssbasg35
I00
sbasbsg453
g1367
sg481
I01
sbsg504
I00
sg30
I00
sg487
g1402
sg505
I00
sg506
g327
sbag0
(g448
g2
Ntp1417
Rp1418
(dp1419
g452
g327
sg453
g0
(g454
g2
Ntp1420
Rp1421
(dp1422
g458
(lp1423
g0
(g10
g2
Ntp1424
Rp1425
(dp1426
g14
Nsg15
(lp1427
g0
(g17
g2
Ntp1428
Rp1429
(dp1430
g14
Nsg21
g0
(g22
g2
Ntp1431
Rp1432
(dp1433
g26
(dp1434
sg28
S'ESR1'
p1435
sg30
I00
sg31
(lp1436
S'ESTRADIOL'
p1437
asbsg33
(dp1438
g1437
Nssbasg35
I00
sbag0
(g10
g2
Ntp1439
Rp1440
(dp1441
g14
Nsg15
(lp1442
g0
(g17
g2
Ntp1443
Rp1444
(dp1445
g14
Nsg21
g0
(g22
g2
Ntp1446
Rp1447
(dp1448
g26
(dp1449
sg28
g1437
sg30
I00
sg31
(lp1450
g1435
aS'GPER'
p1451
asbsg33
(dp1452
g1435
Nssbasg35
I00
sbasbsg28
g429
sg481
I01
sg482
g0
(g483
g2
Ntp1453
Rp1454
(dp1455
g487
g0
(g454
g2
Ntp1456
Rp1457
(dp1458
g458
(lp1459
g0
(g10
g2
Ntp1460
Rp1461
(dp1462
g14
Nsg15
(lp1463
g0
(g17
g2
Ntp1464
Rp1465
(dp1466
g14
Nsg21
g1432
sg33
(dp1467
g1437
I1
ssbag0
(g17
g2
Ntp1468
Rp1469
(dp1470
g14
Nsg21
g1447
sg33
(dp1471
g1435
I1
ssbasg35
I00
sbasbsg453
g1421
sg481
I01
sbsg504
I00
sg30
I00
sg487
g1457
sg505
I00
sg506
g327
sbag0
(g448
g2
Ntp1472
Rp1473
(dp1474
g452
g327
sg453
g0
(g454
g2
Ntp1475
Rp1476
(dp1477
g458
(lp1478
g0
(g10
g2
Ntp1479
Rp1480
(dp1481
g14
Nsg15
(lp1482
g0
(g17
g2
Ntp1483
Rp1484
(dp1485
g14
Nsg21
g0
(g22
g2
Ntp1486
Rp1487
(dp1488
g26
(dp1489
sg28
S'KITLG'
p1490
sg30
I00
sg31
(lp1491
S'KIT'
p1492
asbsg33
(dp1493
g1492
Nssbasg35
I00
sbag0
(g10
g2
Ntp1494
Rp1495
(dp1496
g14
Nsg15
(lp1497
g0
(g17
g2
Ntp1498
Rp1499
(dp1500
g14
Nsg21
g0
(g22
g2
Ntp1501
Rp1502
(dp1503
g26
(dp1504
sg28
g1492
sg30
I00
sg31
(lp1505
g1490
asbsg33
(dp1506
g1490
Nssbasg35
I00
sbasbsg28
g410
sg481
I01
sg482
g0
(g483
g2
Ntp1507
Rp1508
(dp1509
g487
g0
(g454
g2
Ntp1510
Rp1511
(dp1512
g458
(lp1513
g0
(g10
g2
Ntp1514
Rp1515
(dp1516
g14
Nsg15
(lp1517
g0
(g17
g2
Ntp1518
Rp1519
(dp1520
g14
Nsg21
g1487
sg33
(dp1521
g1492
I1
ssbag0
(g17
g2
Ntp1522
Rp1523
(dp1524
g14
Nsg21
g1502
sg33
(dp1525
g1490
I1
ssbasg35
I00
sbasbsg453
g1476
sg481
I01
sbsg504
I00
sg30
I00
sg487
g1511
sg505
I00
sg506
g327
sbag0
(g448
g2
Ntp1526
Rp1527
(dp1528
g452
g327
sg453
g0
(g454
g2
Ntp1529
Rp1530
(dp1531
g458
(lp1532
g0
(g10
g2
Ntp1533
Rp1534
(dp1535
g14
Nsg15
(lp1536
g0
(g17
g2
Ntp1537
Rp1538
(dp1539
g14
Nsg21
g0
(g22
g2
Ntp1540
Rp1541
(dp1542
g26
(dp1543
sg28
g237
sg30
I00
sg31
(lp1544
g235
asbsg33
(dp1545
g235
Nssbasg35
I00
sbag0
(g10
g2
Ntp1546
Rp1547
(dp1548
g14
Nsg15
(lp1549
g0
(g17
g2
Ntp1550
Rp1551
(dp1552
g14
Nsg21
g227
sg33
(dp1553
g237
Nssbasg35
I00
sbasbsg28
g432
sg481
I01
sg482
g0
(g483
g2
Ntp1554
Rp1555
(dp1556
g487
g0
(g454
g2
Ntp1557
Rp1558
(dp1559
g458
(lp1560
g0
(g10
g2
Ntp1561
Rp1562
(dp1563
g14
Nsg15
(lp1564
g0
(g17
g2
Ntp1565
Rp1566
(dp1567
g14
Nsg21
g1541
sg33
(dp1568
g235
I1
ssbag0
(g17
g2
Ntp1569
Rp1570
(dp1571
g14
Nsg21
g227
sg33
(dp1572
g237
I1
ssbasg35
I00
sbasbsg453
g1530
sg481
I01
sbsg504
I00
sg30
I00
sg487
g1558
sg505
I00
sg506
g327
sbag0
(g448
g2
Ntp1573
Rp1574
(dp1575
g452
g327
sg453
g0
(g454
g2
Ntp1576
Rp1577
(dp1578
g458
(lp1579
g0
(g10
g2
Ntp1580
Rp1581
(dp1582
g14
Nsg15
(lp1583
g0
(g17
g2
Ntp1584
Rp1585
(dp1586
g14
Nsg21
g0
(g22
g2
Ntp1587
Rp1588
(dp1589
g26
(dp1590
sg28
g1451
sg30
I00
sg31
(lp1591
S'ESTRADIOL'
p1592
asbsg33
(dp1593
g1592
Nssbasg35
I00
sbag0
(g10
g2
Ntp1594
Rp1595
(dp1596
g14
Nsg15
(lp1597
g0
(g17
g2
Ntp1598
Rp1599
(dp1600
g14
Nsg21
g1447
sg33
(dp1601
g1451
Nssbasg35
I00
sbasbsg28
g424
sg481
I01
sg482
g0
(g483
g2
Ntp1602
Rp1603
(dp1604
g487
g0
(g454
g2
Ntp1605
Rp1606
(dp1607
g458
(lp1608
g0
(g10
g2
Ntp1609
Rp1610
(dp1611
g14
Nsg15
(lp1612
g0
(g17
g2
Ntp1613
Rp1614
(dp1615
g14
Nsg21
g1588
sg33
(dp1616
g1592
I1
ssbag0
(g17
g2
Ntp1617
Rp1618
(dp1619
g14
Nsg21
g1447
sg33
(dp1620
g1451
I1
ssbasg35
I00
sbasbsg453
g1577
sg481
I01
sbsg504
I00
sg30
I00
sg487
g1606
sg505
I00
sg506
g327
sbag0
(g448
g2
Ntp1621
Rp1622
(dp1623
g452
g327
sg453
g0
(g454
g2
Ntp1624
Rp1625
(dp1626
g458
(lp1627
g0
(g10
g2
Ntp1628
Rp1629
(dp1630
g14
Nsg15
(lp1631
g0
(g17
g2
Ntp1632
Rp1633
(dp1634
g14
Nsg21
g802
sg33
(dp1635
S'RAF1'
p1636
Nssbasg35
I00
sbag0
(g10
g2
Ntp1637
Rp1638
(dp1639
g14
Nsg15
(lp1640
g0
(g17
g2
Ntp1641
Rp1642
(dp1643
g14
Nsg21
g182
sg33
(dp1644
S'PRKCZ'
p1645
Nssbasg35
I00
sbasbsg28
g415
sg481
I01
sg482
g0
(g483
g2
Ntp1646
Rp1647
(dp1648
g487
g0
(g454
g2
Ntp1649
Rp1650
(dp1651
g458
(lp1652
g0
(g10
g2
Ntp1653
Rp1654
(dp1655
g14
Nsg15
(lp1656
g0
(g17
g2
Ntp1657
Rp1658
(dp1659
g14
Nsg21
g802
sg33
(dp1660
g1636
I1
ssbag0
(g17
g2
Ntp1661
Rp1662
(dp1663
g14
Nsg21
g182
sg33
(dp1664
g1645
I1
ssbasg35
I00
sbasbsg453
g1625
sg481
I01
sbsg504
I00
sg30
I00
sg487
g1650
sg505
I00
sg506
g327
sbag0
(g448
g2
Ntp1665
Rp1666
(dp1667
g452
g327
sg453
g0
(g454
g2
Ntp1668
Rp1669
(dp1670
g458
(lp1671
g0
(g10
g2
Ntp1672
Rp1673
(dp1674
g14
Nsg15
(lp1675
g0
(g17
g2
Ntp1676
Rp1677
(dp1678
g14
Nsg21
g0
(g22
g2
Ntp1679
Rp1680
(dp1681
g26
(dp1682
sg28
S'MIF'
p1683
sg30
I00
sg31
(lp1684
S'CD74'
p1685
asbsg33
(dp1686
g1685
Nssbasg35
I00
sbag0
(g10
g2
Ntp1687
Rp1688
(dp1689
g14
Nsg15
(lp1690
g0
(g17
g2
Ntp1691
Rp1692
(dp1693
g14
Nsg21
g0
(g22
g2
Ntp1694
Rp1695
(dp1696
g26
(dp1697
sg28
g1685
sg30
I00
sg31
(lp1698
g1683
asbsg33
(dp1699
g1683
Nssbasg35
I00
sbasbsg28
g438
sg481
I01
sg482
g0
(g483
g2
Ntp1700
Rp1701
(dp1702
g487
g0
(g454
g2
Ntp1703
Rp1704
(dp1705
g458
(lp1706
g0
(g10
g2
Ntp1707
Rp1708
(dp1709
g14
Nsg15
(lp1710
g0
(g17
g2
Ntp1711
Rp1712
(dp1713
g14
Nsg21
g1680
sg33
(dp1714
g1685
I1
ssbag0
(g17
g2
Ntp1715
Rp1716
(dp1717
g14
Nsg21
g1695
sg33
(dp1718
g1683
I1
ssbasg35
I00
sbasbsg453
g1669
sg481
I01
sbsg504
I00
sg30
I00
sg487
g1704
sg505
I00
sg506
g327
sbag0
(g448
g2
Ntp1719
Rp1720
(dp1721
g452
g327
sg453
g0
(g454
g2
Ntp1722
Rp1723
(dp1724
g458
(lp1725
g0
(g10
g2
Ntp1726
Rp1727
(dp1728
g14
Nsg15
(lp1729
g0
(g17
g2
Ntp1730
Rp1731
(dp1732
g14
Nsg21
g0
(g22
g2
Ntp1733
Rp1734
(dp1735
g26
(dp1736
sg28
S'CREBBP'
p1737
sg30
I00
sg31
(lp1738
S'CREB1'
p1739
asbsg33
(dp1740
g1739
Nssbasg35
I00
sbag0
(g10
g2
Ntp1741
Rp1742
(dp1743
g14
Nsg15
(lp1744
g0
(g17
g2
Ntp1745
Rp1746
(dp1747
g14
Nsg21
g0
(g22
g2
Ntp1748
Rp1749
(dp1750
g26
(dp1751
sg28
g1739
sg30
I00
sg31
(lp1752
g1737
asbsg33
(dp1753
g1737
Nssbasg35
I00
sbasbsg28
g401
sg481
I01
sg482
g0
(g483
g2
Ntp1754
Rp1755
(dp1756
g487
g0
(g454
g2
Ntp1757
Rp1758
(dp1759
g458
(lp1760
g0
(g10
g2
Ntp1761
Rp1762
(dp1763
g14
Nsg15
(lp1764
g0
(g17
g2
Ntp1765
Rp1766
(dp1767
g14
Nsg21
g1734
sg33
(dp1768
g1739
I1
ssbag0
(g17
g2
Ntp1769
Rp1770
(dp1771
g14
Nsg21
g1749
sg33
(dp1772
g1737
I1
ssbasg35
I00
sbasbsg453
g1723
sg481
I01
sbsg504
I00
sg30
I00
sg487
g1758
sg505
I00
sg506
g327
sbag0
(g448
g2
Ntp1773
Rp1774
(dp1775
g452
g327
sg453
g0
(g454
g2
Ntp1776
Rp1777
(dp1778
g458
(lp1779
g0
(g10
g2
Ntp1780
Rp1781
(dp1782
g14
Nsg15
(lp1783
g0
(g17
g2
Ntp1784
Rp1785
(dp1786
g14
Nsg21
g70
sg33
(dp1787
g79
Nssbasg35
I00
sbag0
(g10
g2
Ntp1788
Rp1789
(dp1790
g14
Nsg15
(lp1791
g0
(g17
g2
Ntp1792
Rp1793
(dp1794
g14
Nsg21
g1275
sg33
(dp1795
g77
Nssbasg35
I00
sbasbsg28
g388
sg481
I01
sg482
g0
(g483
g2
Ntp1796
Rp1797
(dp1798
g487
g0
(g454
g2
Ntp1799
Rp1800
(dp1801
g458
(lp1802
g0
(g10
g2
Ntp1803
Rp1804
(dp1805
g14
Nsg15
(lp1806
g0
(g17
g2
Ntp1807
Rp1808
(dp1809
g14
Nsg21
g70
sg33
(dp1810
g79
I1
ssbag0
(g17
g2
Ntp1811
Rp1812
(dp1813
g14
Nsg21
g1275
sg33
(dp1814
g77
I1
ssbasg35
I00
sbasbsg453
g1777
sg481
I01
sbsg504
I00
sg30
I00
sg487
g1800
sg505
I00
sg506
g327
sbag0
(g448
g2
Ntp1815
Rp1816
(dp1817
g452
g327
sg453
g0
(g454
g2
Ntp1818
Rp1819
(dp1820
g458
(lp1821
g0
(g10
g2
Ntp1822
Rp1823
(dp1824
g14
Nsg15
(lp1825
g0
(g17
g2
Ntp1826
Rp1827
(dp1828
g14
Nsg21
g1275
sg33
(dp1829
g1281
Nssbasg35
I00
sbag0
(g10
g2
Ntp1830
Rp1831
(dp1832
g14
Nsg15
(lp1833
g0
(g17
g2
Ntp1834
Rp1835
(dp1836
g14
Nsg21
g0
(g22
g2
Ntp1837
Rp1838
(dp1839
g26
(dp1840
sg28
g1281
sg30
I00
sg31
(lp1841
S'GRB2'
p1842
asbsg33
(dp1843
g1842
Nssbasg35
I00
sbasbsg28
g384
sg481
I01
sg482
g0
(g483
g2
Ntp1844
Rp1845
(dp1846
g487
g0
(g454
g2
Ntp1847
Rp1848
(dp1849
g458
(lp1850
g0
(g10
g2
Ntp1851
Rp1852
(dp1853
g14
Nsg15
(lp1854
g0
(g17
g2
Ntp1855
Rp1856
(dp1857
g14
Nsg21
g1275
sg33
(dp1858
g1281
I1
ssbag0
(g17
g2
Ntp1859
Rp1860
(dp1861
g14
Nsg21
g1838
sg33
(dp1862
g1842
I1
ssbasg35
I00
sbasbsg453
g1819
sg481
I01
sbsg504
I00
sg30
I00
sg487
g1848
sg505
I00
sg506
g327
sbag0
(g448
g2
Ntp1863
Rp1864
(dp1865
g452
g327
sg453
g0
(g454
g2
Ntp1866
Rp1867
(dp1868
g458
(lp1869
g0
(g10
g2
Ntp1870
Rp1871
(dp1872
g14
Nsg15
(lp1873
g0
(g17
g2
Ntp1874
Rp1875
(dp1876
g14
Nsg21
g0
(g22
g2
Ntp1877
Rp1878
(dp1879
g26
(dp1880
sg28
g59
sg30
I00
sg31
(lp1881
g57
asbsg33
(dp1882
g57
Nssbasg35
I00
sbag0
(g10
g2
Ntp1883
Rp1884
(dp1885
g14
Nsg15
(lp1886
g0
(g17
g2
Ntp1887
Rp1888
(dp1889
g14
Nsg21
g50
sg33
(dp1890
g59
Nssbasg35
I00
sbasbsg28
g428
sg481
I01
sg482
g0
(g483
g2
Ntp1891
Rp1892
(dp1893
g487
g0
(g454
g2
Ntp1894
Rp1895
(dp1896
g458
(lp1897
g0
(g10
g2
Ntp1898
Rp1899
(dp1900
g14
Nsg15
(lp1901
g0
(g17
g2
Ntp1902
Rp1903
(dp1904
g14
Nsg21
g1878
sg33
(dp1905
g57
I1
ssbag0
(g17
g2
Ntp1906
Rp1907
(dp1908
g14
Nsg21
g50
sg33
(dp1909
g59
I1
ssbasg35
I00
sbasbsg453
g1867
sg481
I01
sbsg504
I00
sg30
I00
sg487
g1895
sg505
I00
sg506
g327
sbag0
(g448
g2
Ntp1910
Rp1911
(dp1912
g452
g327
sg453
g0
(g454
g2
Ntp1913
Rp1914
(dp1915
g458
(lp1916
g0
(g10
g2
Ntp1917
Rp1918
(dp1919
g14
Nsg15
(lp1920
g0
(g17
g2
Ntp1921
Rp1922
(dp1923
g14
Nsg21
g0
(g22
g2
Ntp1924
Rp1925
(dp1926
g26
(dp1927
sg28
g98
sg30
I00
sg31
(lp1928
S'HRAS'
p1929
asbsg33
(dp1930
g1929
Nssbasg35
I00
sbag0
(g10
g2
Ntp1931
Rp1932
(dp1933
g14
Nsg15
(lp1934
g0
(g17
g2
Ntp1935
Rp1936
(dp1937
g14
Nsg21
g90
sg33
(dp1938
g98
Nssbasg35
I00
sbasbsg28
g390
sg481
I01
sg482
g0
(g483
g2
Ntp1939
Rp1940
(dp1941
g487
g0
(g454
g2
Ntp1942
Rp1943
(dp1944
g458
(lp1945
g0
(g10
g2
Ntp1946
Rp1947
(dp1948
g14
Nsg15
(lp1949
g0
(g17
g2
Ntp1950
Rp1951
(dp1952
g14
Nsg21
g1925
sg33
(dp1953
g1929
I1
ssbag0
(g17
g2
Ntp1954
Rp1955
(dp1956
g14
Nsg21
g90
sg33
(dp1957
g98
I1
ssbasg35
I00
sbasbsg453
g1914
sg481
I01
sbsg504
I00
sg30
I00
sg487
g1943
sg505
I00
sg506
g327
sbag0
(g448
g2
Ntp1958
Rp1959
(dp1960
g452
g330
sg453
g0
(g454
g2
Ntp1961
Rp1962
(dp1963
g458
(lp1964
g0
(g10
g2
Ntp1965
Rp1966
(dp1967
g14
Nsg15
(lp1968
g0
(g17
g2
Ntp1969
Rp1970
(dp1971
g14
Nsg21
g0
(g22
g2
Ntp1972
Rp1973
(dp1974
g26
(dp1975
g195
(lp1976
S'inactive'
p1977
aS'active'
p1978
assg28
S'JAK1'
p1979
sg30
I00
sg31
(lp1980
g195
asbsg33
(dp1981
g195
g281
ssbasg35
I00
sbag0
(g10
g2
Ntp1982
Rp1983
(dp1984
g14
Nsg15
(lp1985
g0
(g17
g2
Ntp1986
Rp1987
(dp1988
g14
Nsg21
g182
sg33
(dp1989
S'Y341'
p1990
g187
ssbasg35
I00
sbasbsg28
g427
sg481
I00
sg482
g0
(g483
g2
Ntp1991
Rp1992
(dp1993
g487
g0
(g454
g2
Ntp1994
Rp1995
(dp1996
g458
(lp1997
g0
(g10
g2
Ntp1998
Rp1999
(dp2000
g14
Nsg15
(lp2001
g0
(g17
g2
Ntp2002
Rp2003
(dp2004
g14
Nsg21
g1973
sg33
(dp2005
g195
g281
ssbasg35
I00
sbag0
(g10
g2
Ntp2006
Rp2007
(dp2008
g14
Nsg15
(lp2009
g0
(g17
g2
Ntp2010
Rp2011
(dp2012
g14
Nsg21
g182
sg33
(dp2013
g1990
g188
ssbasg35
I00
sbasbsg453
g1962
sg481
I00
sbsg504
I00
sg30
I00
sg487
g1995
sg505
I00
sg506
Nsbag0
(g448
g2
Ntp2014
Rp2015
(dp2016
g452
g330
sg453
g0
(g454
g2
Ntp2017
Rp2018
(dp2019
g458
(lp2020
g0
(g10
g2
Ntp2021
Rp2022
(dp2023
g14
Nsg15
(lp2024
g0
(g17
g2
Ntp2025
Rp2026
(dp2027
g14
Nsg21
g0
(g22
g2
Ntp2028
Rp2029
(dp2030
g26
(dp2031
g195
(lp2032
g1977
ag1978
assg28
S'P2_FAMILY'
p2033
sg30
I00
sg31
(lp2034
g195
asbsg33
(dp2035
g195
g281
ssbasg35
I00
sbag0
(g10
g2
Ntp2036
Rp2037
(dp2038
g14
Nsg15
(lp2039
g0
(g17
g2
Ntp2040
Rp2041
(dp2042
g14
Nsg21
g227
sg33
(dp2043
S'T25'
p2044
g187
ssbasg35
I00
sbasbsg28
g421
sg481
I00
sg482
g0
(g483
g2
Ntp2045
Rp2046
(dp2047
g487
g0
(g454
g2
Ntp2048
Rp2049
(dp2050
g458
(lp2051
g0
(g10
g2
Ntp2052
Rp2053
(dp2054
g14
Nsg15
(lp2055
g0
(g17
g2
Ntp2056
Rp2057
(dp2058
g14
Nsg21
g2029
sg33
(dp2059
g195
g281
ssbasg35
I00
sbag0
(g10
g2
Ntp2060
Rp2061
(dp2062
g14
Nsg15
(lp2063
g0
(g17
g2
Ntp2064
Rp2065
(dp2066
g14
Nsg21
g227
sg33
(dp2067
g2044
g188
ssbasg35
I00
sbasbsg453
g2018
sg481
I00
sbsg504
I00
sg30
I00
sg487
g2049
sg505
I00
sg506
Nsbag0
(g448
g2
Ntp2068
Rp2069
(dp2070
g452
g330
sg453
g0
(g454
g2
Ntp2071
Rp2072
(dp2073
g458
(lp2074
g0
(g10
g2
Ntp2075
Rp2076
(dp2077
g14
Nsg15
(lp2078
g0
(g17
g2
Ntp2079
Rp2080
(dp2081
g14
Nsg21
g0
(g22
g2
Ntp2082
Rp2083
(dp2084
g26
(dp2085
g195
(lp2086
g1977
ag1978
assg28
S'RET'
p2087
sg30
I00
sg31
(lp2088
g195
asbsg33
(dp2089
g195
g281
ssbasg35
I00
sbag0
(g10
g2
Ntp2090
Rp2091
(dp2092
g14
Nsg15
(lp2093
g0
(g17
g2
Ntp2094
Rp2095
(dp2096
g14
Nsg21
g248
sg33
(dp2097
S'Y187'
p2098
g187
ssbasg35
I00
sbasbsg28
g408
sg481
I00
sg482
g0
(g483
g2
Ntp2099
Rp2100
(dp2101
g487
g0
(g454
g2
Ntp2102
Rp2103
(dp2104
g458
(lp2105
g0
(g10
g2
Ntp2106
Rp2107
(dp2108
g14
Nsg15
(lp2109
g0
(g17
g2
Ntp2110
Rp2111
(dp2112
g14
Nsg21
g2083
sg33
(dp2113
g195
g281
ssbasg35
I00
sbag0
(g10
g2
Ntp2114
Rp2115
(dp2116
g14
Nsg15
(lp2117
g0
(g17
g2
Ntp2118
Rp2119
(dp2120
g14
Nsg21
g248
sg33
(dp2121
g2098
g188
ssbasg35
I00
sbasbsg453
g2072
sg481
I00
sbsg504
I00
sg30
I00
sg487
g2103
sg505
I00
sg506
Nsbag0
(g448
g2
Ntp2122
Rp2123
(dp2124
g452
g330
sg453
g0
(g454
g2
Ntp2125
Rp2126
(dp2127
g458
(lp2128
g0
(g10
g2
Ntp2129
Rp2130
(dp2131
g14
Nsg15
(lp2132
g0
(g17
g2
Ntp2133
Rp2134
(dp2135
g14
Nsg21
g0
(g22
g2
Ntp2136
Rp2137
(dp2138
g26
(dp2139
g195
(lp2140
g1977
ag1978
assg28
S'PRKA_FAMILY'
p2141
sg30
I00
sg31
(lp2142
g195
asbsg33
(dp2143
g195
g281
ssbasg35
I00
sbag0
(g10
g2
Ntp2144
Rp2145
(dp2146
g14
Nsg15
(lp2147
g0
(g17
g2
Ntp2148
Rp2149
(dp2150
g14
Nsg21
g182
sg33
(dp2151
S'S43'
p2152
g187
ssbasg35
I00
sbasbsg28
g399
sg481
I00
sg482
g0
(g483
g2
Ntp2153
Rp2154
(dp2155
g487
g0
(g454
g2
Ntp2156
Rp2157
(dp2158
g458
(lp2159
g0
(g10
g2
Ntp2160
Rp2161
(dp2162
g14
Nsg15
(lp2163
g0
(g17
g2
Ntp2164
Rp2165
(dp2166
g14
Nsg21
g2137
sg33
(dp2167
g195
g281
ssbasg35
I00
sbag0
(g10
g2
Ntp2168
Rp2169
(dp2170
g14
Nsg15
(lp2171
g0
(g17
g2
Ntp2172
Rp2173
(dp2174
g14
Nsg21
g182
sg33
(dp2175
g2152
g188
ssbasg35
I00
sbasbsg453
g2126
sg481
I00
sbsg504
I00
sg30
I00
sg487
g2157
sg505
I00
sg506
Nsbag0
(g448
g2
Ntp2176
Rp2177
(dp2178
g452
g330
sg453
g0
(g454
g2
Ntp2179
Rp2180
(dp2181
g458
(lp2182
g0
(g10
g2
Ntp2183
Rp2184
(dp2185
g14
Nsg15
(lp2186
g0
(g17
g2
Ntp2187
Rp2188
(dp2189
g14
Nsg21
g0
(g22
g2
Ntp2190
Rp2191
(dp2192
g26
(dp2193
g195
(lp2194
g1977
ag1978
assg28
S'SRC'
p2195
sg30
I00
sg31
(lp2196
g195
asbsg33
(dp2197
g195
g281
ssbasg35
I00
sbag0
(g10
g2
Ntp2198
Rp2199
(dp2200
g14
Nsg15
(lp2201
g0
(g17
g2
Ntp2202
Rp2203
(dp2204
g14
Nsg21
g182
sg33
(dp2205
S'Y340'
p2206
g187
ssbasg35
I00
sbasbsg28
g409
sg481
I00
sg482
g0
(g483
g2
Ntp2207
Rp2208
(dp2209
g487
g0
(g454
g2
Ntp2210
Rp2211
(dp2212
g458
(lp2213
g0
(g10
g2
Ntp2214
Rp2215
(dp2216
g14
Nsg15
(lp2217
g0
(g17
g2
Ntp2218
Rp2219
(dp2220
g14
Nsg21
g2191
sg33
(dp2221
g195
g281
ssbasg35
I00
sbag0
(g10
g2
Ntp2222
Rp2223
(dp2224
g14
Nsg15
(lp2225
g0
(g17
g2
Ntp2226
Rp2227
(dp2228
g14
Nsg21
g182
sg33
(dp2229
g2206
g188
ssbasg35
I00
sbasbsg453
g2180
sg481
I00
sbsg504
I00
sg30
I00
sg487
g2211
sg505
I00
sg506
Nsbag0
(g448
g2
Ntp2230
Rp2231
(dp2232
g452
g330
sg453
g0
(g454
g2
Ntp2233
Rp2234
(dp2235
g458
(lp2236
g0
(g10
g2
Ntp2237
Rp2238
(dp2239
g14
Nsg15
(lp2240
g0
(g17
g2
Ntp2241
Rp2242
(dp2243
g14
Nsg21
g0
(g22
g2
Ntp2244
Rp2245
(dp2246
g26
(dp2247
g195
(lp2248
g1977
ag1978
assg28
S'PRKC_FAMILY'
p2249
sg30
I00
sg31
(lp2250
g195
asbsg33
(dp2251
g195
g281
ssbasg35
I00
sbag0
(g10
g2
Ntp2252
Rp2253
(dp2254
g14
Nsg15
(lp2255
g0
(g17
g2
Ntp2256
Rp2257
(dp2258
g14
Nsg21
g182
sg33
(dp2259
S'S499'
p2260
g187
ssbasg35
I00
sbasbsg28
g396
sg481
I00
sg482
g0
(g483
g2
Ntp2261
Rp2262
(dp2263
g487
g0
(g454
g2
Ntp2264
Rp2265
(dp2266
g458
(lp2267
g0
(g10
g2
Ntp2268
Rp2269
(dp2270
g14
Nsg15
(lp2271
g0
(g17
g2
Ntp2272
Rp2273
(dp2274
g14
Nsg21
g2245
sg33
(dp2275
g195
g281
ssbasg35
I00
sbag0
(g10
g2
Ntp2276
Rp2277
(dp2278
g14
Nsg15
(lp2279
g0
(g17
g2
Ntp2280
Rp2281
(dp2282
g14
Nsg21
g182
sg33
(dp2283
g2260
g188
ssbasg35
I00
sbasbsg453
g2234
sg481
I00
sbsg504
I00
sg30
I00
sg487
g2265
sg505
I00
sg506
Nsbag0
(g448
g2
Ntp2284
Rp2285
(dp2286
g452
g330
sg453
g0
(g454
g2
Ntp2287
Rp2288
(dp2289
g458
(lp2290
g0
(g10
g2
Ntp2291
Rp2292
(dp2293
g14
Nsg15
(lp2294
g0
(g17
g2
Ntp2295
Rp2296
(dp2297
g14
Nsg21
g0
(g22
g2
Ntp2298
Rp2299
(dp2300
g26
(dp2301
g195
(lp2302
g1977
ag1978
assg28
S'AKT_FAMILY'
p2303
sg30
I00
sg31
(lp2304
g195
asbsg33
(dp2305
g195
g281
ssbasg35
I00
sbag0
(g10
g2
Ntp2306
Rp2307
(dp2308
g14
Nsg15
(lp2309
g0
(g17
g2
Ntp2310
Rp2311
(dp2312
g14
Nsg21
g182
sg33
(dp2313
S'S259'
p2314
g187
ssbasg35
I00
sbasbsg28
g433
sg481
I00
sg482
g0
(g483
g2
Ntp2315
Rp2316
(dp2317
g487
g0
(g454
g2
Ntp2318
Rp2319
(dp2320
g458
(lp2321
g0
(g10
g2
Ntp2322
Rp2323
(dp2324
g14
Nsg15
(lp2325
g0
(g17
g2
Ntp2326
Rp2327
(dp2328
g14
Nsg21
g2299
sg33
(dp2329
g195
g281
ssbasg35
I00
sbag0
(g10
g2
Ntp2330
Rp2331
(dp2332
g14
Nsg15
(lp2333
g0
(g17
g2
Ntp2334
Rp2335
(dp2336
g14
Nsg21
g182
sg33
(dp2337
g2314
g188
ssbasg35
I00
sbasbsg453
g2288
sg481
I00
sbsg504
I00
sg30
I00
sg487
g2319
sg505
I00
sg506
Nsbag0
(g448
g2
Ntp2338
Rp2339
(dp2340
g452
g333
sg453
g0
(g454
g2
Ntp2341
Rp2342
(dp2343
g458
(lp2344
g0
(g10
g2
Ntp2345
Rp2346
(dp2347
g14
Nsg15
(lp2348
g0
(g17
g2
Ntp2349
Rp2350
(dp2351
g14
Nsg21
g0
(g22
g2
Ntp2352
Rp2353
(dp2354
g26
(dp2355
sg28
S'DUSP4'
p2356
sg30
I00
sg31
(lp2357
sbsg33
(dp2358
sbasg35
I00
sbag0
(g10
g2
Ntp2359
Rp2360
(dp2361
g14
Nsg15
(lp2362
g0
(g17
g2
Ntp2363
Rp2364
(dp2365
g14
Nsg21
g248
sg33
(dp2366
S'T185'
p2367
g188
ssbasg35
I00
sbasbsg28
g418
sg481
I00
sg482
g0
(g483
g2
Ntp2368
Rp2369
(dp2370
g487
g0
(g454
g2
Ntp2371
Rp2372
(dp2373
g458
(lp2374
g0
(g10
g2
Ntp2375
Rp2376
(dp2377
g14
Nsg15
(lp2378
g0
(g17
g2
Ntp2379
Rp2380
(dp2381
g14
Nsg21
g2353
sg33
(dp2382
sbasg35
I00
sbag0
(g10
g2
Ntp2383
Rp2384
(dp2385
g14
Nsg15
(lp2386
g0
(g17
g2
Ntp2387
Rp2388
(dp2389
g14
Nsg21
g248
sg33
(dp2390
g2367
g187
ssbasg35
I00
sbasbsg453
g2342
sg481
I00
sbsg504
I00
sg30
I00
sg487
g2372
sg505
I00
sg506
Nsbag0
(g448
g2
Ntp2391
Rp2392
(dp2393
g452
g336
sg453
g0
(g454
g2
Ntp2394
Rp2395
(dp2396
g458
(lp2397
g0
(g10
g2
Ntp2398
Rp2399
(dp2400
g14
Nsg15
(lp2401
g0
(g17
g2
Ntp2402
Rp2403
(dp2404
g14
Nsg21
g248
sg33
(dp2405
S'Y'
p2406
g188
sg195
g1977
ssbasg35
I00
sbasbsg28
g442
sg481
I00
sg482
g0
(g483
g2
Ntp2407
Rp2408
(dp2409
g487
g0
(g454
g2
Ntp2410
Rp2411
(dp2412
g458
(lp2413
g0
(g10
g2
Ntp2414
Rp2415
(dp2416
g14
Nsg15
(lp2417
g0
(g17
g2
Ntp2418
Rp2419
(dp2420
g14
Nsg21
g248
sg33
(dp2421
g2406
g188
sg195
g281
ssbasg35
I00
sbasbsg453
g2395
sg481
I00
sbsg504
I00
sg30
I00
sg487
g2411
sg505
I00
sg506
Nsbag0
(g448
g2
Ntp2422
Rp2423
(dp2424
g452
g336
sg453
g0
(g454
g2
Ntp2425
Rp2426
(dp2427
g458
(lp2428
g0
(g10
g2
Ntp2429
Rp2430
(dp2431
g14
Nsg15
(lp2432
g0
(g17
g2
Ntp2433
Rp2434
(dp2435
g14
Nsg21
g182
sg33
(dp2436
S'S339'
p2437
g188
sg195
g1977
ssbasg35
I00
sbasbsg28
g407
sg481
I00
sg482
g0
(g483
g2
Ntp2438
Rp2439
(dp2440
g487
g0
(g454
g2
Ntp2441
Rp2442
(dp2443
g458
(lp2444
g0
(g10
g2
Ntp2445
Rp2446
(dp2447
g14
Nsg15
(lp2448
g0
(g17
g2
Ntp2449
Rp2450
(dp2451
g14
Nsg21
g182
sg33
(dp2452
g2437
g188
sg195
g281
ssbasg35
I00
sbasbsg453
g2426
sg481
I00
sbsg504
I00
sg30
I00
sg487
g2442
sg505
I00
sg506
Nsbag0
(g448
g2
Ntp2453
Rp2454
(dp2455
g452
g336
sg453
g0
(g454
g2
Ntp2456
Rp2457
(dp2458
g458
(lp2459
g0
(g10
g2
Ntp2460
Rp2461
(dp2462
g14
Nsg15
(lp2463
g0
(g17
g2
Ntp2464
Rp2465
(dp2466
g14
Nsg21
g227
sg33
(dp2467
S'S'
p2468
g188
sg195
g1977
ssbasg35
I00
sbasbsg28
g412
sg481
I00
sg482
g0
(g483
g2
Ntp2469
Rp2470
(dp2471
g487
g0
(g454
g2
Ntp2472
Rp2473
(dp2474
g458
(lp2475
g0
(g10
g2
Ntp2476
Rp2477
(dp2478
g14
Nsg15
(lp2479
g0
(g17
g2
Ntp2480
Rp2481
(dp2482
g14
Nsg21
g227
sg33
(dp2483
g2468
g188
sg195
g281
ssbasg35
I00
sbasbsg453
g2457
sg481
I00
sbsg504
I00
sg30
I00
sg487
g2473
sg505
I00
sg506
Nsbag0
(g448
g2
Ntp2484
Rp2485
(dp2486
g452
g339
sg453
g0
(g454
g2
Ntp2487
Rp2488
(dp2489
g458
(lp2490
g0
(g10
g2
Ntp2491
Rp2492
(dp2493
g14
Nsg15
(lp2494
g0
(g17
g2
Ntp2495
Rp2496
(dp2497
g14
Nsg21
g109
sg33
(dp2498
g112
g281
ssbasg35
I00
sbag0
(g10
g2
Ntp2499
Rp2500
(dp2501
g14
Nsg15
(lp2502
g0
(g17
g2
Ntp2503
Rp2504
(dp2505
g14
Nsg21
g164
sg33
(dp2506
g167
g1977
ssbasg35
I00
sbasbsg28
g443
sg481
I00
sg482
g0
(g483
g2
Ntp2507
Rp2508
(dp2509
g487
g0
(g454
g2
Ntp2510
Rp2511
(dp2512
g458
(lp2513
g0
(g10
g2
Ntp2514
Rp2515
(dp2516
g14
Nsg15
(lp2517
g0
(g17
g2
Ntp2518
Rp2519
(dp2520
g14
Nsg21
g109
sg33
(dp2521
g112
g281
ssbasg35
I00
sbag0
(g10
g2
Ntp2522
Rp2523
(dp2524
g14
Nsg15
(lp2525
g0
(g17
g2
Ntp2526
Rp2527
(dp2528
g14
Nsg21
g164
sg33
(dp2529
g167
g281
ssbasg35
I00
sbasbsg453
g2488
sg481
I00
sbsg504
I00
sg30
I00
sg487
g2511
sg505
I00
sg506
Nsbag0
(g448
g2
Ntp2530
Rp2531
(dp2532
g452
g339
sg453
g0
(g454
g2
Ntp2533
Rp2534
(dp2535
g458
(lp2536
g0
(g10
g2
Ntp2537
Rp2538
(dp2539
g14
Nsg15
(lp2540
g0
(g17
g2
Ntp2541
Rp2542
(dp2543
g14
Nsg21
g227
sg33
(dp2544
S'Kinase'
p2545
g281
ssbasg35
I00
sbag0
(g10
g2
Ntp2546
Rp2547
(dp2548
g14
Nsg15
(lp2549
g0
(g17
g2
Ntp2550
Rp2551
(dp2552
g14
Nsg21
g248
sg33
(dp2553
S'Kinase'
p2554
g1977
ssbasg35
I00
sbasbsg28
g431
sg481
I00
sg482
g0
(g483
g2
Ntp2555
Rp2556
(dp2557
g487
g0
(g454
g2
Ntp2558
Rp2559
(dp2560
g458
(lp2561
g0
(g10
g2
Ntp2562
Rp2563
(dp2564
g14
Nsg15
(lp2565
g0
(g17
g2
Ntp2566
Rp2567
(dp2568
g14
Nsg21
g227
sg33
(dp2569
g2545
g281
ssbasg35
I00
sbag0
(g10
g2
Ntp2570
Rp2571
(dp2572
g14
Nsg15
(lp2573
g0
(g17
g2
Ntp2574
Rp2575
(dp2576
g14
Nsg21
g248
sg33
(dp2577
g2554
g281
ssbasg35
I00
sbasbsg453
g2534
sg481
I00
sbsg504
I00
sg30
I00
sg487
g2559
sg505
I00
sg506
Nsbag0
(g448
g2
Ntp2578
Rp2579
(dp2580
g452
g342
sg453
g0
(g454
g2
Ntp2581
Rp2582
(dp2583
g458
(lp2584
g0
(g10
g2
Ntp2585
Rp2586
(dp2587
g14
Nsg15
(lp2588
g0
(g17
g2
Ntp2589
Rp2590
(dp2591
g14
Nsg21
g0
(g22
g2
Ntp2592
Rp2593
(dp2594
g26
(dp2595
S'Catalytic'
p2596
(lp2597
g75
ag76
assg28
S'SOS_FAMILY'
p2598
sg30
I00
sg31
(lp2599
g2596
asbsg33
(dp2600
g2596
g281
ssbasg35
I00
sbag0
(g10
g2
Ntp2601
Rp2602
(dp2603
g14
Nsg15
(lp2604
g0
(g17
g2
Ntp2605
Rp2606
(dp2607
g14
Nsg21
g109
sg33
(dp2608
g129
g1977
ssbasg35
I00
sbasbsg28
g406
sg481
I00
sg482
g0
(g483
g2
Ntp2609
Rp2610
(dp2611
g487
g0
(g454
g2
Ntp2612
Rp2613
(dp2614
g458
(lp2615
g0
(g10
g2
Ntp2616
Rp2617
(dp2618
g14
Nsg15
(lp2619
g0
(g17
g2
Ntp2620
Rp2621
(dp2622
g14
Nsg21
g2593
sg33
(dp2623
g2596
g281
ssbasg35
I00
sbag0
(g10
g2
Ntp2624
Rp2625
(dp2626
g14
Nsg15
(lp2627
g0
(g17
g2
Ntp2628
Rp2629
(dp2630
g14
Nsg21
g109
sg33
(dp2631
g129
g281
ssbasg35
I00
sbasbsg453
g2582
sg481
I00
sbsg504
I00
sg30
I00
sg487
g2613
sg505
I00
sg506
Nsbag0
(g448
g2
Ntp2632
Rp2633
(dp2634
g452
g345
sg453
g0
(g454
g2
Ntp2635
Rp2636
(dp2637
g458
(lp2638
g0
(g10
g2
Ntp2639
Rp2640
(dp2641
g14
Nsg15
(lp2642
g0
(g17
g2
Ntp2643
Rp2644
(dp2645
g14
Nsg21
g0
(g22
g2
Ntp2646
Rp2647
(dp2648
g26
(dp2649
S'Catalytic'
p2650
(lp2651
g275
ag276
assg28
S'RASA4'
p2652
sg30
I00
sg31
(lp2653
g2650
asbsg33
(dp2654
g2650
g281
ssbasg35
I00
sbag0
(g10
g2
Ntp2655
Rp2656
(dp2657
g14
Nsg15
(lp2658
g0
(g17
g2
Ntp2659
Rp2660
(dp2661
g14
Nsg21
g126
sg33
(dp2662
g129
g281
ssbasg35
I00
sbasbsg28
g402
sg481
I00
sg482
g0
(g483
g2
Ntp2663
Rp2664
(dp2665
g487
g0
(g454
g2
Ntp2666
Rp2667
(dp2668
g458
(lp2669
g0
(g10
g2
Ntp2670
Rp2671
(dp2672
g14
Nsg15
(lp2673
g0
(g17
g2
Ntp2674
Rp2675
(dp2676
g14
Nsg21
g2647
sg33
(dp2677
g2650
g281
ssbasg35
I00
sbag0
(g10
g2
Ntp2678
Rp2679
(dp2680
g14
Nsg15
(lp2681
g0
(g17
g2
Ntp2682
Rp2683
(dp2684
g14
Nsg21
g126
sg33
(dp2685
g129
g1977
ssbasg35
I00
sbasbsg453
g2636
sg481
I00
sbsg504
I00
sg30
I00
sg487
g2667
sg505
I00
sg506
Nsbag0
(g448
g2
Ntp2686
Rp2687
(dp2688
g452
g339
sg453
g0
(g454
g2
Ntp2689
Rp2690
(dp2691
g458
(lp2692
g0
(g10
g2
Ntp2693
Rp2694
(dp2695
g14
Nsg15
(lp2696
g0
(g17
g2
Ntp2697
Rp2698
(dp2699
g14
Nsg21
g126
sg33
(dp2700
S'GtpBound'
p2701
g281
ssbasg35
I00
sbag0
(g10
g2
Ntp2702
Rp2703
(dp2704
g14
Nsg15
(lp2705
g0
(g17
g2
Ntp2706
Rp2707
(dp2708
g14
Nsg21
g182
sg33
(dp2709
S'Kinase'
p2710
g1977
ssbasg35
I00
sbasbsg28
g400
sg481
I00
sg482
g0
(g483
g2
Ntp2711
Rp2712
(dp2713
g487
g0
(g454
g2
Ntp2714
Rp2715
(dp2716
g458
(lp2717
g0
(g10
g2
Ntp2718
Rp2719
(dp2720
g14
Nsg15
(lp2721
g0
(g17
g2
Ntp2722
Rp2723
(dp2724
g14
Nsg21
g126
sg33
(dp2725
g2701
g281
ssbasg35
I00
sbag0
(g10
g2
Ntp2726
Rp2727
(dp2728
g14
Nsg15
(lp2729
g0
(g17
g2
Ntp2730
Rp2731
(dp2732
g14
Nsg21
g182
sg33
(dp2733
g2710
g281
ssbasg35
I00
sbasbsg453
g2690
sg481
I00
sbsg504
I00
sg30
I00
sg487
g2715
sg505
I00
sg506
Nsbag0
(g448
g2
Ntp2734
Rp2735
(dp2736
g452
g339
sg453
g0
(g454
g2
Ntp2737
Rp2738
(dp2739
g458
(lp2740
g0
(g10
g2
Ntp2741
Rp2742
(dp2743
g14
Nsg15
(lp2744
g0
(g17
g2
Ntp2745
Rp2746
(dp2747
g14
Nsg21
g90
sg33
(dp2748
g93
g281
ssbasg35
I00
sbag0
(g10
g2
Ntp2749
Rp2750
(dp2751
g14
Nsg15
(lp2752
g0
(g17
g2
Ntp2753
Rp2754
(dp2755
g14
Nsg21
g182
sg33
(dp2756
S'Kinase'
p2757
g1977
ssbasg35
I00
sbasbsg28
g403
sg481
I00
sg482
g0
(g483
g2
Ntp2758
Rp2759
(dp2760
g487
g0
(g454
g2
Ntp2761
Rp2762
(dp2763
g458
(lp2764
g0
(g10
g2
Ntp2765
Rp2766
(dp2767
g14
Nsg15
(lp2768
g0
(g17
g2
Ntp2769
Rp2770
(dp2771
g14
Nsg21
g90
sg33
(dp2772
g93
g281
ssbasg35
I00
sbag0
(g10
g2
Ntp2773
Rp2774
(dp2775
g14
Nsg15
(lp2776
g0
(g17
g2
Ntp2777
Rp2778
(dp2779
g14
Nsg21
g182
sg33
(dp2780
g2757
g281
ssbasg35
I00
sbasbsg453
g2738
sg481
I00
sbsg504
I00
sg30
I00
sg487
g2762
sg505
I00
sg506
Nsbag0
(g448
g2
Ntp2781
Rp2782
(dp2783
g452
g342
sg453
g0
(g454
g2
Ntp2784
Rp2785
(dp2786
g458
(lp2787
g0
(g10
g2
Ntp2788
Rp2789
(dp2790
g14
Nsg15
(lp2791
g0
(g17
g2
Ntp2792
Rp2793
(dp2794
g14
Nsg21
g70
sg33
(dp2795
g73
g281
ssbasg35
I00
sbag0
(g10
g2
Ntp2796
Rp2797
(dp2798
g14
Nsg15
(lp2799
g0
(g17
g2
Ntp2800
Rp2801
(dp2802
g14
Nsg21
g90
sg33
(dp2803
g129
g1977
ssbasg35
I00
sbasbsg28
g434
sg481
I00
sg482
g0
(g483
g2
Ntp2804
Rp2805
(dp2806
g487
g0
(g454
g2
Ntp2807
Rp2808
(dp2809
g458
(lp2810
g0
(g10
g2
Ntp2811
Rp2812
(dp2813
g14
Nsg15
(lp2814
g0
(g17
g2
Ntp2815
Rp2816
(dp2817
g14
Nsg21
g70
sg33
(dp2818
g73
g281
ssbasg35
I00
sbag0
(g10
g2
Ntp2819
Rp2820
(dp2821
g14
Nsg15
(lp2822
g0
(g17
g2
Ntp2823
Rp2824
(dp2825
g14
Nsg21
g90
sg33
(dp2826
g129
g281
ssbasg35
I00
sbasbsg453
g2785
sg481
I00
sbsg504
I00
sg30
I00
sg487
g2808
sg505
I00
sg506
Nsbag0
(g448
g2
Ntp2827
Rp2828
(dp2829
g452
g339
sg453
g0
(g454
g2
Ntp2830
Rp2831
(dp2832
g458
(lp2833
g0
(g10
g2
Ntp2834
Rp2835
(dp2836
g14
Nsg15
(lp2837
g0
(g17
g2
Ntp2838
Rp2839
(dp2840
g14
Nsg21
g90
sg33
(dp2841
S'GtpBound'
p2842
g281
ssbasg35
I00
sbag0
(g10
g2
Ntp2843
Rp2844
(dp2845
g14
Nsg15
(lp2846
g0
(g17
g2
Ntp2847
Rp2848
(dp2849
g14
Nsg21
g164
sg33
(dp2850
S'Kinase'
p2851
g1977
ssbasg35
I00
sbasbsg28
g397
sg481
I00
sg482
g0
(g483
g2
Ntp2852
Rp2853
(dp2854
g487
g0
(g454
g2
Ntp2855
Rp2856
(dp2857
g458
(lp2858
g0
(g10
g2
Ntp2859
Rp2860
(dp2861
g14
Nsg15
(lp2862
g0
(g17
g2
Ntp2863
Rp2864
(dp2865
g14
Nsg21
g90
sg33
(dp2866
g2842
g281
ssbasg35
I00
sbag0
(g10
g2
Ntp2867
Rp2868
(dp2869
g14
Nsg15
(lp2870
g0
(g17
g2
Ntp2871
Rp2872
(dp2873
g14
Nsg21
g164
sg33
(dp2874
g2851
g281
ssbasg35
I00
sbasbsg453
g2831
sg481
I00
sbsg504
I00
sg30
I00
sg487
g2856
sg505
I00
sg506
Nsbag0
(g448
g2
Ntp2875
Rp2876
(dp2877
g452
g339
sg453
g0
(g454
g2
Ntp2878
Rp2879
(dp2880
g458
(lp2881
g0
(g10
g2
Ntp2882
Rp2883
(dp2884
g14
Nsg15
(lp2885
g0
(g17
g2
Ntp2886
Rp2887
(dp2888
g14
Nsg21
g126
sg33
(dp2889
S'GtpBound'
p2890
g281
ssbasg35
I00
sbag0
(g10
g2
Ntp2891
Rp2892
(dp2893
g14
Nsg15
(lp2894
g0
(g17
g2
Ntp2895
Rp2896
(dp2897
g14
Nsg21
g145
sg33
(dp2898
g148
g1977
ssbasg35
I00
sbasbsg28
g440
sg481
I00
sg482
g0
(g483
g2
Ntp2899
Rp2900
(dp2901
g487
g0
(g454
g2
Ntp2902
Rp2903
(dp2904
g458
(lp2905
g0
(g10
g2
Ntp2906
Rp2907
(dp2908
g14
Nsg15
(lp2909
g0
(g17
g2
Ntp2910
Rp2911
(dp2912
g14
Nsg21
g126
sg33
(dp2913
g2890
g281
ssbasg35
I00
sbag0
(g10
g2
Ntp2914
Rp2915
(dp2916
g14
Nsg15
(lp2917
g0
(g17
g2
Ntp2918
Rp2919
(dp2920
g14
Nsg21
g145
sg33
(dp2921
g148
g281
ssbasg35
I00
sbasbsg453
g2879
sg481
I00
sbsg504
I00
sg30
I00
sg487
g2903
sg505
I00
sg506
Nsbag0
(g448
g2
Ntp2922
Rp2923
(dp2924
g452
g342
sg453
g0
(g454
g2
Ntp2925
Rp2926
(dp2927
g458
(lp2928
g0
(g10
g2
Ntp2929
Rp2930
(dp2931
g14
Nsg15
(lp2932
g0
(g17
g2
Ntp2933
Rp2934
(dp2935
g14
Nsg21
g291
sg33
(dp2936
g294
g281
ssbasg35
I00
sbag0
(g10
g2
Ntp2937
Rp2938
(dp2939
g14
Nsg15
(lp2940
g0
(g17
g2
Ntp2941
Rp2942
(dp2943
g14
Nsg21
g90
sg33
(dp2944
g129
g1977
ssbasg35
I00
sbasbsg28
g382
sg481
I00
sg482
g0
(g483
g2
Ntp2945
Rp2946
(dp2947
g487
g0
(g454
g2
Ntp2948
Rp2949
(dp2950
g458
(lp2951
g0
(g10
g2
Ntp2952
Rp2953
(dp2954
g14
Nsg15
(lp2955
g0
(g17
g2
Ntp2956
Rp2957
(dp2958
g14
Nsg21
g291
sg33
(dp2959
g294
g281
ssbasg35
I00
sbag0
(g10
g2
Ntp2960
Rp2961
(dp2962
g14
Nsg15
(lp2963
g0
(g17
g2
Ntp2964
Rp2965
(dp2966
g14
Nsg21
g90
sg33
(dp2967
g129
g281
ssbasg35
I00
sbasbsg453
g2926
sg481
I00
sbsg504
I00
sg30
I00
sg487
g2949
sg505
I00
sg506
Nsbag0
(g448
g2
Ntp2968
Rp2969
(dp2970
g452
g345
sg453
g0
(g454
g2
Ntp2971
Rp2972
(dp2973
g458
(lp2974
g0
(g10
g2
Ntp2975
Rp2976
(dp2977
g14
Nsg15
(lp2978
g0
(g17
g2
Ntp2979
Rp2980
(dp2981
g14
Nsg21
g291
sg33
(dp2982
S'Catalytic'
p2983
g281
ssbasg35
I00
sbag0
(g10
g2
Ntp2984
Rp2985
(dp2986
g14
Nsg15
(lp2987
g0
(g17
g2
Ntp2988
Rp2989
(dp2990
g14
Nsg21
g126
sg33
(dp2991
g129
g281
ssbasg35
I00
sbasbsg28
g394
sg481
I00
sg482
g0
(g483
g2
Ntp2992
Rp2993
(dp2994
g487
g0
(g454
g2
Ntp2995
Rp2996
(dp2997
g458
(lp2998
g0
(g10
g2
Ntp2999
Rp3000
(dp3001
g14
Nsg15
(lp3002
g0
(g17
g2
Ntp3003
Rp3004
(dp3005
g14
Nsg21
g291
sg33
(dp3006
g2983
g281
ssbasg35
I00
sbag0
(g10
g2
Ntp3007
Rp3008
(dp3009
g14
Nsg15
(lp3010
g0
(g17
g2
Ntp3011
Rp3012
(dp3013
g14
Nsg21
g126
sg33
(dp3014
g129
g1977
ssbasg35
I00
sbasbsg453
g2972
sg481
I00
sbsg504
I00
sg30
I00
sg487
g2996
sg505
I00
sg506
Nsbag0
(g448
g2
Ntp3015
Rp3016
(dp3017
g452
g339
sg453
g0
(g454
g2
Ntp3018
Rp3019
(dp3020
g458
(lp3021
g0
(g10
g2
Ntp3022
Rp3023
(dp3024
g14
Nsg15
(lp3025
g0
(g17
g2
Ntp3026
Rp3027
(dp3028
g14
Nsg21
g0
(g22
g2
Ntp3029
Rp3030
(dp3031
g26
(dp3032
S'Kinase'
p3033
(lp3034
g55
ag56
assg28
S'RAF_FAMILY'
p3035
sg30
I00
sg31
(lp3036
g3033
asbsg33
(dp3037
g3033
g281
ssbasg35
I00
sbag0
(g10
g2
Ntp3038
Rp3039
(dp3040
g14
Nsg15
(lp3041
g0
(g17
g2
Ntp3042
Rp3043
(dp3044
g14
Nsg21
g227
sg33
(dp3045
S'Kinase'
p3046
g1977
ssbasg35
I00
sbasbsg28
g419
sg481
I00
sg482
g0
(g483
g2
Ntp3047
Rp3048
(dp3049
g487
g0
(g454
g2
Ntp3050
Rp3051
(dp3052
g458
(lp3053
g0
(g10
g2
Ntp3054
Rp3055
(dp3056
g14
Nsg15
(lp3057
g0
(g17
g2
Ntp3058
Rp3059
(dp3060
g14
Nsg21
g3030
sg33
(dp3061
g3033
g281
ssbasg35
I00
sbag0
(g10
g2
Ntp3062
Rp3063
(dp3064
g14
Nsg15
(lp3065
g0
(g17
g2
Ntp3066
Rp3067
(dp3068
g14
Nsg21
g227
sg33
(dp3069
g3046
g281
ssbasg35
I00
sbasbsg453
g3019
sg481
I00
sbsg504
I00
sg30
I00
sg487
g3051
sg505
I00
sg506
Nsbag0
(g448
g2
Ntp3070
Rp3071
(dp3072
g452
g339
sg453
g0
(g454
g2
Ntp3073
Rp3074
(dp3075
g458
(lp3076
g0
(g10
g2
Ntp3077
Rp3078
(dp3079
g14
Nsg15
(lp3080
g0
(g17
g2
Ntp3081
Rp3082
(dp3083
g14
Nsg21
g0
(g22
g2
Ntp3084
Rp3085
(dp3086
g26
(dp3087
S'Kinase'
p3088
(lp3089
g55
ag56
assg28
S'MAP3K3'
p3090
sg30
I00
sg31
(lp3091
g3088
asbsg33
(dp3092
g3088
g281
ssbasg35
I00
sbag0
(g10
g2
Ntp3093
Rp3094
(dp3095
g14
Nsg15
(lp3096
g0
(g17
g2
Ntp3097
Rp3098
(dp3099
g14
Nsg21
g227
sg33
(dp3100
S'Kinase'
p3101
g1977
ssbasg35
I00
sbasbsg28
g393
sg481
I00
sg482
g0
(g483
g2
Ntp3102
Rp3103
(dp3104
g487
g0
(g454
g2
Ntp3105
Rp3106
(dp3107
g458
(lp3108
g0
(g10
g2
Ntp3109
Rp3110
(dp3111
g14
Nsg15
(lp3112
g0
(g17
g2
Ntp3113
Rp3114
(dp3115
g14
Nsg21
g3085
sg33
(dp3116
g3088
g281
ssbasg35
I00
sbag0
(g10
g2
Ntp3117
Rp3118
(dp3119
g14
Nsg15
(lp3120
g0
(g17
g2
Ntp3121
Rp3122
(dp3123
g14
Nsg21
g227
sg33
(dp3124
g3101
g281
ssbasg35
I00
sbasbsg453
g3074
sg481
I00
sbsg504
I00
sg30
I00
sg487
g3106
sg505
I00
sg506
Nsbag0
(g448
g2
Ntp3125
Rp3126
(dp3127
g452
g342
sg453
g0
(g454
g2
Ntp3128
Rp3129
(dp3130
g458
(lp3131
g0
(g10
g2
Ntp3132
Rp3133
(dp3134
g14
Nsg15
(lp3135
g0
(g17
g2
Ntp3136
Rp3137
(dp3138
g14
Nsg21
g70
sg33
(dp3139
S'Catalytic'
p3140
g281
ssbasg35
I00
sbag0
(g10
g2
Ntp3141
Rp3142
(dp3143
g14
Nsg15
(lp3144
g0
(g17
g2
Ntp3145
Rp3146
(dp3147
g14
Nsg21
g126
sg33
(dp3148
g129
g1977
ssbasg35
I00
sbasbsg28
g420
sg481
I00
sg482
g0
(g483
g2
Ntp3149
Rp3150
(dp3151
g487
g0
(g454
g2
Ntp3152
Rp3153
(dp3154
g458
(lp3155
g0
(g10
g2
Ntp3156
Rp3157
(dp3158
g14
Nsg15
(lp3159
g0
(g17
g2
Ntp3160
Rp3161
(dp3162
g14
Nsg21
g70
sg33
(dp3163
g3140
g281
ssbasg35
I00
sbag0
(g10
g2
Ntp3164
Rp3165
(dp3166
g14
Nsg15
(lp3167
g0
(g17
g2
Ntp3168
Rp3169
(dp3170
g14
Nsg21
g126
sg33
(dp3171
g129
g281
ssbasg35
I00
sbasbsg453
g3129
sg481
I00
sbsg504
I00
sg30
I00
sg487
g3153
sg505
I00
sg506
Nsbag0
(g448
g2
Ntp3172
Rp3173
(dp3174
g452
g345
sg453
g0
(g454
g2
Ntp3175
Rp3176
(dp3177
g458
(lp3178
g0
(g10
g2
Ntp3179
Rp3180
(dp3181
g14
Nsg15
(lp3182
g0
(g17
g2
Ntp3183
Rp3184
(dp3185
g14
Nsg21
g0
(g22
g2
Ntp3186
Rp3187
(dp3188
g26
(dp3189
S'Catalytic'
p3190
(lp3191
g275
ag276
assg28
S'RASAL1'
p3192
sg30
I00
sg31
(lp3193
g3190
asbsg33
(dp3194
g3190
g281
ssbasg35
I00
sbag0
(g10
g2
Ntp3195
Rp3196
(dp3197
g14
Nsg15
(lp3198
g0
(g17
g2
Ntp3199
Rp3200
(dp3201
g14
Nsg21
g109
sg33
(dp3202
g129
g281
ssbasg35
I00
sbasbsg28
g404
sg481
I00
sg482
g0
(g483
g2
Ntp3203
Rp3204
(dp3205
g487
g0
(g454
g2
Ntp3206
Rp3207
(dp3208
g458
(lp3209
g0
(g10
g2
Ntp3210
Rp3211
(dp3212
g14
Nsg15
(lp3213
g0
(g17
g2
Ntp3214
Rp3215
(dp3216
g14
Nsg21
g3187
sg33
(dp3217
g3190
g281
ssbasg35
I00
sbag0
(g10
g2
Ntp3218
Rp3219
(dp3220
g14
Nsg15
(lp3221
g0
(g17
g2
Ntp3222
Rp3223
(dp3224
g14
Nsg21
g109
sg33
(dp3225
g129
g1977
ssbasg35
I00
sbasbsg453
g3176
sg481
I00
sbsg504
I00
sg30
I00
sg487
g3207
sg505
I00
sg506
Nsbag0
(g448
g2
Ntp3226
Rp3227
(dp3228
g452
g339
sg453
g0
(g454
g2
Ntp3229
Rp3230
(dp3231
g458
(lp3232
g0
(g10
g2
Ntp3233
Rp3234
(dp3235
g14
Nsg15
(lp3236
g0
(g17
g2
Ntp3237
Rp3238
(dp3239
g14
Nsg21
g50
sg33
(dp3240
g53
g281
ssbasg35
I00
sbag0
(g10
g2
Ntp3241
Rp3242
(dp3243
g14
Nsg15
(lp3244
g0
(g17
g2
Ntp3245
Rp3246
(dp3247
g14
Nsg21
g70
sg33
(dp3248
S'Catalytic'
p3249
g1977
ssbasg35
I00
sbasbsg28
g381
sg481
I00
sg482
g0
(g483
g2
Ntp3250
Rp3251
(dp3252
g487
g0
(g454
g2
Ntp3253
Rp3254
(dp3255
g458
(lp3256
g0
(g10
g2
Ntp3257
Rp3258
(dp3259
g14
Nsg15
(lp3260
g0
(g17
g2
Ntp3261
Rp3262
(dp3263
g14
Nsg21
g50
sg33
(dp3264
g53
g281
ssbasg35
I00
sbag0
(g10
g2
Ntp3265
Rp3266
(dp3267
g14
Nsg15
(lp3268
g0
(g17
g2
Ntp3269
Rp3270
(dp3271
g14
Nsg21
g70
sg33
(dp3272
g3249
g281
ssbasg35
I00
sbasbsg453
g3230
sg481
I00
sbsg504
I00
sg30
I00
sg487
g3254
sg505
I00
sg506
Nsbag0
(g448
g2
Ntp3273
Rp3274
(dp3275
g452
g342
sg453
g0
(g454
g2
Ntp3276
Rp3277
(dp3278
g458
(lp3279
g0
(g10
g2
Ntp3280
Rp3281
(dp3282
g14
Nsg15
(lp3283
g0
(g17
g2
Ntp3284
Rp3285
(dp3286
g14
Nsg21
g70
sg33
(dp3287
S'Catalytic'
p3288
g281
ssbasg35
I00
sbag0
(g10
g2
Ntp3289
Rp3290
(dp3291
g14
Nsg15
(lp3292
g0
(g17
g2
Ntp3293
Rp3294
(dp3295
g14
Nsg21
g109
sg33
(dp3296
g129
g1977
ssbasg35
I00
sbasbsg28
g414
sg481
I00
sg482
g0
(g483
g2
Ntp3297
Rp3298
(dp3299
g487
g0
(g454
g2
Ntp3300
Rp3301
(dp3302
g458
(lp3303
g0
(g10
g2
Ntp3304
Rp3305
(dp3306
g14
Nsg15
(lp3307
g0
(g17
g2
Ntp3308
Rp3309
(dp3310
g14
Nsg21
g70
sg33
(dp3311
g3288
g281
ssbasg35
I00
sbag0
(g10
g2
Ntp3312
Rp3313
(dp3314
g14
Nsg15
(lp3315
g0
(g17
g2
Ntp3316
Rp3317
(dp3318
g14
Nsg21
g109
sg33
(dp3319
g129
g281
ssbasg35
I00
sbasbsg453
g3277
sg481
I00
sbsg504
I00
sg30
I00
sg487
g3301
sg505
I00
sg506
Nsbag0
(g448
g2
Ntp3320
Rp3321
(dp3322
g452
g339
sg453
g0
(g454
g2
Ntp3323
Rp3324
(dp3325
g458
(lp3326
g0
(g10
g2
Ntp3327
Rp3328
(dp3329
g14
Nsg15
(lp3330
g0
(g17
g2
Ntp3331
Rp3332
(dp3333
g14
Nsg21
g126
sg33
(dp3334
S'GtpBound'
p3335
g281
ssbasg35
I00
sbag0
(g10
g2
Ntp3336
Rp3337
(dp3338
g14
Nsg15
(lp3339
g0
(g17
g2
Ntp3340
Rp3341
(dp3342
g14
Nsg21
g164
sg33
(dp3343
S'Kinase'
p3344
g1977
ssbasg35
I00
sbasbsg28
g389
sg481
I00
sg482
g0
(g483
g2
Ntp3345
Rp3346
(dp3347
g487
g0
(g454
g2
Ntp3348
Rp3349
(dp3350
g458
(lp3351
g0
(g10
g2
Ntp3352
Rp3353
(dp3354
g14
Nsg15
(lp3355
g0
(g17
g2
Ntp3356
Rp3357
(dp3358
g14
Nsg21
g126
sg33
(dp3359
g3335
g281
ssbasg35
I00
sbag0
(g10
g2
Ntp3360
Rp3361
(dp3362
g14
Nsg15
(lp3363
g0
(g17
g2
Ntp3364
Rp3365
(dp3366
g14
Nsg21
g164
sg33
(dp3367
g3344
g281
ssbasg35
I00
sbasbsg453
g3324
sg481
I00
sbsg504
I00
sg30
I00
sg487
g3349
sg505
I00
sg506
Nsbag0
(g448
g2
Ntp3368
Rp3369
(dp3370
g452
g339
sg453
g0
(g454
g2
Ntp3371
Rp3372
(dp3373
g458
(lp3374
g0
(g10
g2
Ntp3375
Rp3376
(dp3377
g14
Nsg15
(lp3378
g0
(g17
g2
Ntp3379
Rp3380
(dp3381
g14
Nsg21
g0
(g22
g2
Ntp3382
Rp3383
(dp3384
g26
(dp3385
S'Kinase'
p3386
(lp3387
g55
ag56
assg28
S'MAP3K1'
p3388
sg30
I00
sg31
(lp3389
g3386
asbsg33
(dp3390
g3386
g281
ssbasg35
I00
sbag0
(g10
g2
Ntp3391
Rp3392
(dp3393
g14
Nsg15
(lp3394
g0
(g17
g2
Ntp3395
Rp3396
(dp3397
g14
Nsg21
g227
sg33
(dp3398
S'Kinase'
p3399
g1977
ssbasg35
I00
sbasbsg28
g398
sg481
I00
sg482
g0
(g483
g2
Ntp3400
Rp3401
(dp3402
g487
g0
(g454
g2
Ntp3403
Rp3404
(dp3405
g458
(lp3406
g0
(g10
g2
Ntp3407
Rp3408
(dp3409
g14
Nsg15
(lp3410
g0
(g17
g2
Ntp3411
Rp3412
(dp3413
g14
Nsg21
g3383
sg33
(dp3414
g3386
g281
ssbasg35
I00
sbag0
(g10
g2
Ntp3415
Rp3416
(dp3417
g14
Nsg15
(lp3418
g0
(g17
g2
Ntp3419
Rp3420
(dp3421
g14
Nsg21
g227
sg33
(dp3422
g3399
g281
ssbasg35
I00
sbasbsg453
g3372
sg481
I00
sbsg504
I00
sg30
I00
sg487
g3404
sg505
I00
sg506
Nsbag0
(g448
g2
Ntp3423
Rp3424
(dp3425
g452
g345
sg453
g0
(g454
g2
Ntp3426
Rp3427
(dp3428
g458
(lp3429
g0
(g10
g2
Ntp3430
Rp3431
(dp3432
g14
Nsg15
(lp3433
g0
(g17
g2
Ntp3434
Rp3435
(dp3436
g14
Nsg21
g0
(g22
g2
Ntp3437
Rp3438
(dp3439
g26
(dp3440
S'Catalytic'
p3441
(lp3442
g275
ag276
assg28
S'DAB2IP'
p3443
sg30
I00
sg31
(lp3444
g3441
asbsg33
(dp3445
g3441
g281
ssbasg35
I00
sbag0
(g10
g2
Ntp3446
Rp3447
(dp3448
g14
Nsg15
(lp3449
g0
(g17
g2
Ntp3450
Rp3451
(dp3452
g14
Nsg21
g126
sg33
(dp3453
g129
g281
ssbasg35
I00
sbasbsg28
g411
sg481
I00
sg482
g0
(g483
g2
Ntp3454
Rp3455
(dp3456
g487
g0
(g454
g2
Ntp3457
Rp3458
(dp3459
g458
(lp3460
g0
(g10
g2
Ntp3461
Rp3462
(dp3463
g14
Nsg15
(lp3464
g0
(g17
g2
Ntp3465
Rp3466
(dp3467
g14
Nsg21
g3438
sg33
(dp3468
g3441
g281
ssbasg35
I00
sbag0
(g10
g2
Ntp3469
Rp3470
(dp3471
g14
Nsg15
(lp3472
g0
(g17
g2
Ntp3473
Rp3474
(dp3475
g14
Nsg21
g126
sg33
(dp3476
g129
g1977
ssbasg35
I00
sbasbsg453
g3427
sg481
I00
sbsg504
I00
sg30
I00
sg487
g3458
sg505
I00
sg506
Nsbag0
(g448
g2
Ntp3477
Rp3478
(dp3479
g452
g339
sg453
g0
(g454
g2
Ntp3480
Rp3481
(dp3482
g458
(lp3483
g0
(g10
g2
Ntp3484
Rp3485
(dp3486
g14
Nsg15
(lp3487
g0
(g17
g2
Ntp3488
Rp3489
(dp3490
g14
Nsg21
g164
sg33
(dp3491
S'Kinase'
p3492
g281
ssbasg35
I00
sbag0
(g10
g2
Ntp3493
Rp3494
(dp3495
g14
Nsg15
(lp3496
g0
(g17
g2
Ntp3497
Rp3498
(dp3499
g14
Nsg21
g227
sg33
(dp3500
S'Kinase'
p3501
g1977
ssbasg35
I00
sbasbsg28
g413
sg481
I00
sg482
g0
(g483
g2
Ntp3502
Rp3503
(dp3504
g487
g0
(g454
g2
Ntp3505
Rp3506
(dp3507
g458
(lp3508
g0
(g10
g2
Ntp3509
Rp3510
(dp3511
g14
Nsg15
(lp3512
g0
(g17
g2
Ntp3513
Rp3514
(dp3515
g14
Nsg21
g164
sg33
(dp3516
g3492
g281
ssbasg35
I00
sbag0
(g10
g2
Ntp3517
Rp3518
(dp3519
g14
Nsg15
(lp3520
g0
(g17
g2
Ntp3521
Rp3522
(dp3523
g14
Nsg21
g227
sg33
(dp3524
g3501
g281
ssbasg35
I00
sbasbsg453
g3481
sg481
I00
sbsg504
I00
sg30
I00
sg487
g3506
sg505
I00
sg506
Nsbag0
(g448
g2
Ntp3525
Rp3526
(dp3527
g452
g339
sg453
g0
(g454
g2
Ntp3528
Rp3529
(dp3530
g458
(lp3531
g0
(g10
g2
Ntp3532
Rp3533
(dp3534
g14
Nsg15
(lp3535
g0
(g17
g2
Ntp3536
Rp3537
(dp3538
g14
Nsg21
g145
sg33
(dp3539
S'Kinase'
p3540
g281
ssbasg35
I00
sbag0
(g10
g2
Ntp3541
Rp3542
(dp3543
g14
Nsg15
(lp3544
g0
(g17
g2
Ntp3545
Rp3546
(dp3547
g14
Nsg21
g227
sg33
(dp3548
S'Kinase'
p3549
g1977
ssbasg35
I00
sbasbsg28
g446
sg481
I00
sg482
g0
(g483
g2
Ntp3550
Rp3551
(dp3552
g487
g0
(g454
g2
Ntp3553
Rp3554
(dp3555
g458
(lp3556
g0
(g10
g2
Ntp3557
Rp3558
(dp3559
g14
Nsg15
(lp3560
g0
(g17
g2
Ntp3561
Rp3562
(dp3563
g14
Nsg21
g145
sg33
(dp3564
g3540
g281
ssbasg35
I00
sbag0
(g10
g2
Ntp3565
Rp3566
(dp3567
g14
Nsg15
(lp3568
g0
(g17
g2
Ntp3569
Rp3570
(dp3571
g14
Nsg21
g227
sg33
(dp3572
g3549
g281
ssbasg35
I00
sbasbsg453
g3529
sg481
I00
sbsg504
I00
sg30
I00
sg487
g3554
sg505
I00
sg506
Nsbag0
(g448
g2
Ntp3573
Rp3574
(dp3575
g452
g339
sg453
g0
(g454
g2
Ntp3576
Rp3577
(dp3578
g458
(lp3579
g0
(g10
g2
Ntp3580
Rp3581
(dp3582
g14
Nsg15
(lp3583
g0
(g17
g2
Ntp3584
Rp3585
(dp3586
g14
Nsg21
g90
sg33
(dp3587
S'GtpBound'
p3588
g281
ssbasg35
I00
sbag0
(g10
g2
Ntp3589
Rp3590
(dp3591
g14
Nsg15
(lp3592
g0
(g17
g2
Ntp3593
Rp3594
(dp3595
g14
Nsg21
g145
sg33
(dp3596
S'Kinase'
p3597
g1977
ssbasg35
I00
sbasbsg28
g387
sg481
I00
sg482
g0
(g483
g2
Ntp3598
Rp3599
(dp3600
g487
g0
(g454
g2
Ntp3601
Rp3602
(dp3603
g458
(lp3604
g0
(g10
g2
Ntp3605
Rp3606
(dp3607
g14
Nsg15
(lp3608
g0
(g17
g2
Ntp3609
Rp3610
(dp3611
g14
Nsg21
g90
sg33
(dp3612
g3588
g281
ssbasg35
I00
sbag0
(g10
g2
Ntp3613
Rp3614
(dp3615
g14
Nsg15
(lp3616
g0
(g17
g2
Ntp3617
Rp3618
(dp3619
g14
Nsg21
g145
sg33
(dp3620
g3597
g281
ssbasg35
I00
sbasbsg453
g3577
sg481
I00
sbsg504
I00
sg30
I00
sg487
g3602
sg505
I00
sg506
Nsbag0
(g448
g2
Ntp3621
Rp3622
(dp3623
g452
g339
sg453
g0
(g454
g2
Ntp3624
Rp3625
(dp3626
g458
(lp3627
g0
(g10
g2
Ntp3628
Rp3629
(dp3630
g14
Nsg15
(lp3631
g0
(g17
g2
Ntp3632
Rp3633
(dp3634
g14
Nsg21
g109
sg33
(dp3635
S'GtpBound'
p3636
g281
ssbasg35
I00
sbag0
(g10
g2
Ntp3637
Rp3638
(dp3639
g14
Nsg15
(lp3640
g0
(g17
g2
Ntp3641
Rp3642
(dp3643
g14
Nsg21
g145
sg33
(dp3644
S'Kinase'
p3645
g1977
ssbasg35
I00
sbasbsg28
g385
sg481
I00
sg482
g0
(g483
g2
Ntp3646
Rp3647
(dp3648
g487
g0
(g454
g2
Ntp3649
Rp3650
(dp3651
g458
(lp3652
g0
(g10
g2
Ntp3653
Rp3654
(dp3655
g14
Nsg15
(lp3656
g0
(g17
g2
Ntp3657
Rp3658
(dp3659
g14
Nsg21
g109
sg33
(dp3660
g3636
g281
ssbasg35
I00
sbag0
(g10
g2
Ntp3661
Rp3662
(dp3663
g14
Nsg15
(lp3664
g0
(g17
g2
Ntp3665
Rp3666
(dp3667
g14
Nsg21
g145
sg33
(dp3668
g3645
g281
ssbasg35
I00
sbasbsg453
g3625
sg481
I00
sbsg504
I00
sg30
I00
sg487
g3650
sg505
I00
sg506
Nsbag0
(g448
g2
Ntp3669
Rp3670
(dp3671
g452
g345
sg453
g0
(g454
g2
Ntp3672
Rp3673
(dp3674
g458
(lp3675
g0
(g10
g2
Ntp3676
Rp3677
(dp3678
g14
Nsg15
(lp3679
g0
(g17
g2
Ntp3680
Rp3681
(dp3682
g14
Nsg21
g270
sg33
(dp3683
g273
g281
ssbasg35
I00
sbag0
(g10
g2
Ntp3684
Rp3685
(dp3686
g14
Nsg15
(lp3687
g0
(g17
g2
Ntp3688
Rp3689
(dp3690
g14
Nsg21
g109
sg33
(dp3691
g129
g281
ssbasg35
I00
sbasbsg28
g391
sg481
I00
sg482
g0
(g483
g2
Ntp3692
Rp3693
(dp3694
g487
g0
(g454
g2
Ntp3695
Rp3696
(dp3697
g458
(lp3698
g0
(g10
g2
Ntp3699
Rp3700
(dp3701
g14
Nsg15
(lp3702
g0
(g17
g2
Ntp3703
Rp3704
(dp3705
g14
Nsg21
g270
sg33
(dp3706
g273
g281
ssbasg35
I00
sbag0
(g10
g2
Ntp3707
Rp3708
(dp3709
g14
Nsg15
(lp3710
g0
(g17
g2
Ntp3711
Rp3712
(dp3713
g14
Nsg21
g109
sg33
(dp3714
g129
g1977
ssbasg35
I00
sbasbsg453
g3673
sg481
I00
sbsg504
I00
sg30
I00
sg487
g3696
sg505
I00
sg506
Nsbag0
(g448
g2
Ntp3715
Rp3716
(dp3717
g452
g339
sg453
g0
(g454
g2
Ntp3718
Rp3719
(dp3720
g458
(lp3721
g0
(g10
g2
Ntp3722
Rp3723
(dp3724
g14
Nsg15
(lp3725
g0
(g17
g2
Ntp3726
Rp3727
(dp3728
g14
Nsg21
g182
sg33
(dp3729
S'Kinase'
p3730
g281
ssbasg35
I00
sbag0
(g10
g2
Ntp3731
Rp3732
(dp3733
g14
Nsg15
(lp3734
g0
(g17
g2
Ntp3735
Rp3736
(dp3737
g14
Nsg21
g227
sg33
(dp3738
S'Kinase'
p3739
g1977
ssbasg35
I00
sbasbsg28
g422
sg481
I00
sg482
g0
(g483
g2
Ntp3740
Rp3741
(dp3742
g487
g0
(g454
g2
Ntp3743
Rp3744
(dp3745
g458
(lp3746
g0
(g10
g2
Ntp3747
Rp3748
(dp3749
g14
Nsg15
(lp3750
g0
(g17
g2
Ntp3751
Rp3752
(dp3753
g14
Nsg21
g182
sg33
(dp3754
g3730
g281
ssbasg35
I00
sbag0
(g10
g2
Ntp3755
Rp3756
(dp3757
g14
Nsg15
(lp3758
g0
(g17
g2
Ntp3759
Rp3760
(dp3761
g14
Nsg21
g227
sg33
(dp3762
g3739
g281
ssbasg35
I00
sbasbsg453
g3719
sg481
I00
sbsg504
I00
sg30
I00
sg487
g3744
sg505
I00
sg506
Nsbag0
(g448
g2
Ntp3763
Rp3764
(dp3765
g452
g339
sg453
g0
(g454
g2
Ntp3766
Rp3767
(dp3768
g458
(lp3769
g0
(g10
g2
Ntp3770
Rp3771
(dp3772
g14
Nsg15
(lp3773
g0
(g17
g2
Ntp3774
Rp3775
(dp3776
g14
Nsg21
g24
sg33
(dp3777
sbasg35
I00
sbag0
(g10
g2
Ntp3778
Rp3779
(dp3780
g14
Nsg15
(lp3781
g0
(g17
g2
Ntp3782
Rp3783
(dp3784
g14
Nsg21
g50
sg33
(dp3785
g195
g1977
ssbasg35
I00
sbasbsg28
g426
sg481
I00
sg482
g0
(g483
g2
Ntp3786
Rp3787
(dp3788
g487
g0
(g454
g2
Ntp3789
Rp3790
(dp3791
g458
(lp3792
g0
(g10
g2
Ntp3793
Rp3794
(dp3795
g14
Nsg15
(lp3796
g0
(g17
g2
Ntp3797
Rp3798
(dp3799
g14
Nsg21
g24
sg33
(dp3800
sbasg35
I00
sbag0
(g10
g2
Ntp3801
Rp3802
(dp3803
g14
Nsg15
(lp3804
g0
(g17
g2
Ntp3805
Rp3806
(dp3807
g14
Nsg21
g50
sg33
(dp3808
g195
g281
ssbasg35
I00
sbasbsg453
g3767
sg481
I00
sbsg504
I00
sg30
I00
sg487
g3790
sg505
I00
sg506
Nsbasg374
(dp3809
g381
g3227
sg382
g2923
sg383
g913
sg384
g1816
sg385
g3622
sg386
g766
sg387
g3574
sg388
g1774
sg389
g3321
sg390
g1911
sg391
g3670
sg392
g1070
sg393
g3071
sg394
g2969
sg395
g550
sg396
g2231
sg397
g2828
sg398
g3369
sg399
g2123
sg400
g2687
sg401
g1720
sg402
g2633
sg403
g2735
sg404
g3173
sg405
g712
sg406
g2579
sg407
g2423
sg408
g2069
sg409
g2177
sg410
g1473
sg411
g3424
sg412
g2454
sg413
g3478
sg414
g3274
sg415
g1622
sg416
g1022
sg417
g508
sg418
g2339
sg419
g3016
sg420
g3126
sg421
g2015
sg422
g3716
sg423
g658
sg424
g1574
sg425
g831
sg426
g3764
sg427
g1959
sg428
g1864
sg429
g1418
sg430
g450
sg431
g2531
sg432
g1527
sg433
g2285
sg434
g2782
sg435
g1146
sg436
g1200
sg437
g978
sg438
g1666
sg439
g1316
sg440
g2876
sg441
g604
sg442
g2392
sg443
g2485
sg444
g1261
sg445
g1364
sg446
g3526
ssbsS'odes'
p3810
(lp3811
sg30
I01
sS'compartments'
p3812
g0
(g301
g2
Ntp3813
Rp3814
(dp3815
g305
(dp3816
sg324
(lp3817
sg374
(dp3818
sbsS'monomers'
p3819
g0
(g301
g2
Ntp3820
Rp3821
(dp3822
g305
(dp3823
g675
I8
sg1685
I39
sg3388
I64
sg1281
I43
sg1451
I37
sg114
I55
sg95
I2
sg57
I45
sg621
I6
sg731
I11
sg1683
I38
sg3035
I61
sg235
I36
sg213
I21
sg2141
I50
sg1437
I32
sg3192
I63
sg1280
I27
sg210
I16
sg203
I0
sg29
I67
sg2598
I56
sg2303
I53
sg1737
I40
sg216
I28
sg677
I9
sg567
I4
sg215
I25
sg2249
I52
sg211
I19
sg171
I18
sg209
I15
sg214
I22
sg1979
I47
sg206
I12
sg2356
I54
sg296
I60
sg97
I3
sg623
I7
sg2195
I51
sg1383
I30
sg237
I35
sg729
I10
sg3443
I65
sg170
I17
sg1739
I41
sg207
I13
sg2087
I49
sg2652
I57
sg1165
I24
sg1490
I33
sg277
I66
sg133
I58
sg2033
I48
sg77
I42
sg1435
I31
sg1163
I23
sg59
I44
sg1381
I29
sg1492
I34
sg1278
I26
sg212
I20
sg3090
I62
sg569
I5
sg152
I59
sg98
I46
sg205
I1
sg208
I14
ssg324
(lp3824
g182
ag476
ag90
ag164
ag564
ag579
ag618
ag633
ag672
ag687
ag726
ag741
ag788
ag802
ag845
ag859
ag872
ag927
ag941
ag1036
ag1084
ag1097
ag248
ag1160
ag1175
ag1223
ag1275
ag1291
ag1330
ag1378
ag1393
ag1432
ag1447
ag1487
ag1502
ag1541
ag227
ag1588
ag1680
ag1695
ag1734
ag1749
ag70
ag1838
ag1878
ag50
ag1925
ag1973
ag2029
ag2083
ag2137
ag2191
ag2245
ag2299
ag2353
ag109
ag2593
ag2647
ag126
ag145
ag291
ag3030
ag3085
ag3187
ag3383
ag3438
ag270
ag24
asg374
(dp3825
g675
g672
sg1685
g1695
sg3388
g3383
sg1281
g1838
sg1451
g1588
sg114
g109
sg95
g90
sg57
g50
sg621
g618
sg731
g741
sg1683
g1680
sg3035
g3030
sg235
g227
sg213
g1097
sg2141
g2137
sg1437
g1447
sg3192
g3187
sg1280
g1291
sg210
g872
sg203
g182
sg29
g24
sg2598
g2593
sg2303
g2299
sg1737
g1734
sg216
g1330
sg677
g687
sg567
g564
sg215
g1223
sg2249
g2245
sg211
g1036
sg171
g941
sg209
g859
sg214
g248
sg1979
g1973
sg206
g788
sg2356
g2353
sg296
g291
sg97
g164
sg623
g633
sg2195
g2191
sg1383
g1393
sg237
g1541
sg729
g726
sg3443
g3438
sg170
g927
sg1739
g1749
sg207
g802
sg2087
g2083
sg2652
g2647
sg1165
g1175
sg1490
g1487
sg277
g270
sg133
g126
sg2033
g2029
sg77
g70
sg1435
g1432
sg1163
g1160
sg59
g1878
sg1381
g1378
sg1492
g1502
sg1278
g1275
sg212
g1084
sg3090
g3085
sg569
g579
sg152
g145
sg98
g1925
sg205
g476
sg208
g845
ssbsS'base'
p3826
NsS'annotations'
p3827
(lp3828
sS'reactions_bidirectional'
p3829
(lp3830
sS'observables'
p3831
g0
(g301
g2
Ntp3832
Rp3833
(dp3834
g305
(dp3835
S'MEKact'
p3836
I1
sS'ERKact'
p3837
I0
ssg324
(lp3838
g0
(cpysb.core
Observable
p3839
g2
Ntp3840
Rp3841
(dp3842
S'coefficients'
p3843
(lp3844
sS'reaction_pattern'
p3845
g0
(g454
g2
Ntp3846
Rp3847
(dp3848
g458
(lp3849
g0
(g10
g2
Ntp3850
Rp3851
(dp3852
g14
Nsg15
(lp3853
g0
(g17
g2
Ntp3854
Rp3855
(dp3856
g14
Nsg21
g248
sg33
(dp3857
g195
g281
ssbasg35
I00
sbasbsS'match'
p3858
S'molecules'
p3859
sg30
I00
sS'species'
p3860
(lp3861
sbag0
(g3839
g2
Ntp3862
Rp3863
(dp3864
g3843
(lp3865
sg3845
g0
(g454
g2
Ntp3866
Rp3867
(dp3868
g458
(lp3869
g0
(g10
g2
Ntp3870
Rp3871
(dp3872
g14
Nsg15
(lp3873
g0
(g17
g2
Ntp3874
Rp3875
(dp3876
g14
Nsg21
g227
sg33
(dp3877
g195
g281
ssbasg35
I00
sbasbsg3858
g3859
sg30
I00
sg3860
(lp3878
sbasg374
(dp3879
g3836
g3863
sg3837
g3841
ssbsS'expressions'
p3880
g0
(g301
g2
Ntp3881
Rp3882
(dp3883
g305
(dp3884
sg324
(lp3885
sg374
(dp3886
sbsg3860
(lp3887
sb.