ccopy_reg
_reconstructor
p0
(cpysb.core
Model
p1
c__builtin__
object
p2
Ntp3
Rp4
(dp5
S'reactions'
p6
(lp7
(dp8
S'reactants'
p9
(I3
I7
tp10
sS'products'
p11
(I13
tp12
sS'rate'
p13
csympy.core.mul
Mul
p14
(csympy.core.symbol
Symbol
p15
(S'kf_bind'
p16
tp17
Rp18
(dp19
S'_assumptions'
p20
g0
(csympy.core.assumptions
StdFactKB
p21
c__builtin__
dict
p22
(dp23
S'commutative'
p24
I01
stp25
Rp26
sbg15
(S's3'
p27
tp28
Rp29
(dp30
g20
g0
(g21
g22
(dp31
g24
I01
stp32
Rp33
sbg15
(S's7'
p34
tp35
Rp36
(dp37
g20
g0
(g21
g22
(dp38
g24
I01
stp39
Rp40
sbtp41
Rp42
(dp43
bsS'rule'
p44
S'BRAF_HRAS_bind'
p45
sS'reverse'
p46
I00
sa(dp47
g9
(I3
I12
tp48
sg11
(I12
I14
tp49
sg13
g14
(g15
(S'kf_gef'
p50
tp51
Rp52
(dp53
g20
g0
(g21
g22
(dp54
g24
I01
stp55
Rp56
sbg15
(S's12'
p57
tp58
Rp59
(dp60
g20
g0
(g21
g22
(dp61
g24
I01
stp62
Rp63
sbg29
tp64
Rp65
(dp66
bsg44
S'RASA3_activates_HRAS'
p67
sg46
I00
sa(dp68
g9
(I0
I1
tp69
sg11
(I0
I15
tp70
sg13
g14
(g15
(S'kf_one_step_activate'
p71
tp72
Rp73
(dp74
g20
g0
(g21
g22
(dp75
g24
I01
stp76
Rp77
sbg15
(S's0'
p78
tp79
Rp80
(dp81
g20
g0
(g21
g22
(dp82
g24
I01
stp83
Rp84
sbg15
(S's1'
p85
tp86
Rp87
(dp88
g20
g0
(g21
g22
(dp89
g24
I01
stp90
Rp91
sbtp92
Rp93
(dp94
bsg44
S'EGF_activates_EGFR'
p95
sg46
I00
sa(dp96
g9
(I7
I14
tp97
sg11
(I16
tp98
sg13
g14
(g18
g15
(S's14'
p99
tp100
Rp101
(dp102
g20
g0
(g21
g22
(dp103
g24
I01
stp104
Rp105
sbg36
tp106
Rp107
(dp108
bsg44
S'BRAF_HRAS_bind'
p109
sg46
I00
sa(dp110
g9
(I13
tp111
sg11
(I3
I7
tp112
sg13
g14
(g18
g15
(S's13'
p113
tp114
Rp115
(dp116
g20
g0
(g21
g22
(dp117
S'positive'
p118
NsS'zero'
p119
Nsg24
I01
sS'negative'
p120
Nstp121
Rp122
sbtp123
Rp124
(dp125
bsg44
S'BRAF_HRAS_bind'
p126
sg46
I01
sa(dp127
g9
(I6
I14
tp128
sg11
(I14
I17
tp129
sg13
g14
(g73
g101
g15
(S's6'
p130
tp131
Rp132
(dp133
g20
g0
(g21
g22
(dp134
g24
I01
stp135
Rp136
sbtp137
Rp138
(dp139
bsg44
S'HRAS_GtpBound_activates_ARAF_Kinase'
p140
sg46
I00
sa(dp141
g9
(I2
I15
tp142
sg11
(I15
I18
tp143
sg13
g14
(g73
g15
(S's15'
p144
tp145
Rp146
(dp147
g20
g0
(g21
g22
(dp148
g24
I01
stp149
Rp150
sbg15
(S's2'
p151
tp152
Rp153
(dp154
g20
g0
(g21
g22
(dp155
g24
I01
stp156
Rp157
sbtp158
Rp159
(dp160
bsg44
S'EGFR_Kinase_activates_SOS1_Catalytic'
p161
sg46
I00
sa(dp162
g9
(I12
I13
tp163
sg11
(I12
I16
tp164
sg13
g14
(g52
g59
g115
tp165
Rp166
(dp167
bsg44
S'RASA3_activates_HRAS'
p168
sg46
I00
sa(dp169
g9
(I8
I14
tp170
sg11
(I14
I19
tp171
sg13
g14
(g73
g101
g15
(S's8'
p172
tp173
Rp174
(dp175
g20
g0
(g21
g22
(dp176
g24
I01
stp177
Rp178
sbtp179
Rp180
(dp181
bsg44
S'HRAS_GtpBound_activates_RAF1_Kinase'
p182
sg46
I00
sa(dp183
g9
(I7
I14
tp184
sg11
(I14
I20
tp185
sg13
g14
(g73
g101
g36
tp186
Rp187
(dp188
bsg44
S'HRAS_GtpBound_activates_BRAF_Kinase'
p189
sg46
I00
sa(dp190
g9
(I13
I14
tp191
sg11
(I14
I21
tp192
sg13
g14
(g73
g115
g101
tp193
Rp194
(dp195
bsg44
S'HRAS_GtpBound_activates_BRAF_Kinase'
p196
sg46
I00
sa(dp197
g9
(I3
I20
tp198
sg11
(I21
tp199
sg13
g14
(g18
g15
(S's20'
p200
tp201
Rp202
(dp203
g20
g0
(g21
g22
(dp204
g24
I01
stp205
Rp206
sbg29
tp207
Rp208
(dp209
bsg44
S'BRAF_HRAS_bind'
p210
sg46
I00
sa(dp211
g9
(I14
I20
tp212
sg11
(I22
tp213
sg13
g14
(g18
g101
g202
tp214
Rp215
(dp216
bsg44
S'BRAF_HRAS_bind'
p217
sg46
I00
sa(dp218
g9
(I16
tp219
sg11
(I7
I14
tp220
sg13
g14
(g18
g15
(S's16'
p221
tp222
Rp223
(dp224
g20
g0
(g21
g22
(dp225
g118
Nsg119
Nsg24
I01
sg120
Nstp226
Rp227
sbtp228
Rp229
(dp230
bsg44
S'BRAF_HRAS_bind'
p231
sg46
I01
sa(dp232
g9
(I21
tp233
sg11
(I3
I20
tp234
sg13
g14
(g18
g15
(S's21'
p235
tp236
Rp237
(dp238
g20
g0
(g21
g22
(dp239
g118
Nsg119
Nsg24
I01
sg120
Nstp240
Rp241
sbtp242
Rp243
(dp244
bsg44
S'BRAF_HRAS_bind'
p245
sg46
I01
sa(dp246
g9
(I6
I16
tp247
sg11
(I16
I17
tp248
sg13
g14
(g73
g223
g132
tp249
Rp250
(dp251
bsg44
S'HRAS_GtpBound_activates_ARAF_Kinase'
p252
sg46
I00
sa(dp253
g9
(I3
I18
tp254
sg11
(I14
I18
tp255
sg13
g14
(g52
g15
(S's18'
p256
tp257
Rp258
(dp259
g20
g0
(g21
g22
(dp260
g24
I01
stp261
Rp262
sbg29
tp263
Rp264
(dp265
bsg44
S'SOS1_activates_HRAS'
p266
sg46
I00
sa(dp267
g9
(I13
I18
tp268
sg11
(I16
I18
tp269
sg13
g14
(g52
g115
g258
tp270
Rp271
(dp272
bsg44
S'SOS1_activates_HRAS'
p273
sg46
I00
sa(dp274
g9
(I18
I21
tp275
sg11
(I18
I22
tp276
sg13
g14
(g52
g258
g237
tp277
Rp278
(dp279
bsg44
S'SOS1_activates_HRAS'
p280
sg46
I00
sa(dp281
g9
(I9
I17
tp282
sg11
(I17
I23
tp283
sg13
g14
(g73
g15
(S's17'
p284
tp285
Rp286
(dp287
g20
g0
(g21
g22
(dp288
g24
I01
stp289
Rp290
sbg15
(S's9'
p291
tp292
Rp293
(dp294
g20
g0
(g21
g22
(dp295
g24
I01
stp296
Rp297
sbtp298
Rp299
(dp300
bsg44
S'ARAF_Kinase_activates_MAP2K1_Kinase'
p301
sg46
I00
sa(dp302
g9
(I9
I19
tp303
sg11
(I19
I23
tp304
sg13
g14
(g73
g15
(S's19'
p305
tp306
Rp307
(dp308
g20
g0
(g21
g22
(dp309
g24
I01
stp310
Rp311
sbg293
tp312
Rp313
(dp314
bsg44
S'RAF1_Kinase_activates_MAP2K1_Kinase'
p315
sg46
I00
sa(dp316
g9
(I5
I18
tp317
sg11
(I18
I24
tp318
sg13
g14
(g52
g258
g15
(S's5'
p319
tp320
Rp321
(dp322
g20
g0
(g21
g22
(dp323
g24
I01
stp324
Rp325
sbtp326
Rp327
(dp328
bsg44
S'SOS1_activates_KRAS'
p329
sg46
I00
sa(dp330
g9
(I9
I20
tp331
sg11
(I20
I23
tp332
sg13
g14
(g73
g202
g293
tp333
Rp334
(dp335
bsg44
S'BRAF_Kinase_activates_MAP2K1_Kinase'
p336
sg46
I00
sa(dp337
g9
(I9
I21
tp338
sg11
(I21
I23
tp339
sg13
g14
(g73
g237
g293
tp340
Rp341
(dp342
bsg44
S'BRAF_Kinase_activates_MAP2K1_Kinase'
p343
sg46
I00
sa(dp344
g9
(I4
I18
tp345
sg11
(I18
I25
tp346
sg13
g14
(g52
g258
g15
(S's4'
p347
tp348
Rp349
(dp350
g20
g0
(g21
g22
(dp351
g24
I01
stp352
Rp353
sbtp354
Rp355
(dp356
bsg44
S'SOS1_activates_NRAS'
p357
sg46
I00
sa(dp358
g9
(I12
I21
tp359
sg11
(I12
I22
tp360
sg13
g14
(g52
g59
g237
tp361
Rp362
(dp363
bsg44
S'RASA3_activates_HRAS'
p364
sg46
I00
sa(dp365
g9
(I8
I16
tp366
sg11
(I16
I19
tp367
sg13
g14
(g73
g223
g174
tp368
Rp369
(dp370
bsg44
S'HRAS_GtpBound_activates_RAF1_Kinase'
p371
sg46
I00
sa(dp372
g9
(I14
I16
tp373
sg11
(I14
I22
tp374
sg13
g14
(g73
g101
g223
tp375
Rp376
(dp377
bsg44
S'HRAS_GtpBound_activates_BRAF_Kinase'
p378
sg46
I00
sa(dp379
g9
(I7
I16
tp380
sg11
(I16
I20
tp381
sg13
g14
(g73
g223
g36
tp382
Rp383
(dp384
bsg44
S'HRAS_GtpBound_activates_BRAF_Kinase'
p385
sg46
I00
sa(dp386
g9
(I13
I16
tp387
sg11
(I16
I21
tp388
sg13
g14
(g73
g115
g223
tp389
Rp390
(dp391
bsg44
S'HRAS_GtpBound_activates_BRAF_Kinase'
p392
sg46
I00
sa(dp393
g9
(I16
I16
tp394
sg11
(I16
I22
tp395
sg13
g14
(g73
csympy.core.power
Pow
p396
(g223
csympy.core.numbers
Integer
p397
(I2
tp398
Rp399
(dp400
btp401
Rp402
(dp403
btp404
Rp405
(dp406
bsg44
S'HRAS_GtpBound_activates_BRAF_Kinase'
p407
sg46
I00
sa(dp408
g9
(I22
tp409
sg11
(I14
I20
tp410
sg13
g14
(g18
g15
(S's22'
p411
tp412
Rp413
(dp414
g20
g0
(g21
g22
(dp415
g118
Nsg119
Nsg24
I01
sg120
Nstp416
Rp417
sbtp418
Rp419
(dp420
bsg44
S'BRAF_HRAS_bind'
p421
sg46
I01
sa(dp422
g9
(I6
I24
tp423
sg11
(I17
I24
tp424
sg13
g14
(g73
g15
(S's24'
p425
tp426
Rp427
(dp428
g20
g0
(g21
g22
(dp429
g24
I01
stp430
Rp431
sbg132
tp432
Rp433
(dp434
bsg44
S'KRAS_GtpBound_activates_ARAF_Kinase'
p435
sg46
I00
sa(dp436
g9
(I6
I22
tp437
sg11
(I17
I22
tp438
sg13
g14
(g73
g413
g132
tp439
Rp440
(dp441
bsg44
S'HRAS_GtpBound_activates_ARAF_Kinase'
p442
sg46
I00
sa(dp443
g9
(I8
I24
tp444
sg11
(I19
I24
tp445
sg13
g14
(g73
g427
g174
tp446
Rp447
(dp448
bsg44
S'KRAS_GtpBound_activates_RAF1_Kinase'
p449
sg46
I00
sa(dp450
g9
(I11
I25
tp451
sg11
(I4
I11
tp452
sg13
g14
(g15
(S'kf_gap'
p453
tp454
Rp455
(dp456
g20
g0
(g21
g22
(dp457
g24
I01
stp458
Rp459
sbg15
(S's11'
p460
tp461
Rp462
(dp463
g20
g0
(g21
g22
(dp464
g24
I01
stp465
Rp466
sbg15
(S's25'
p467
tp468
Rp469
(dp470
g20
g0
(g21
g22
(dp471
g24
I01
stp472
Rp473
sbtp474
Rp475
(dp476
bsg44
S'RASA2_inactivates_NRAS'
p477
sg46
I00
sa(dp478
g9
(I9
I22
tp479
sg11
(I22
I23
tp480
sg13
g14
(g73
g413
g293
tp481
Rp482
(dp483
bsg44
S'BRAF_Kinase_activates_MAP2K1_Kinase'
p484
sg46
I00
sa(dp485
g9
(I12
I24
tp486
sg11
(I5
I12
tp487
sg13
g14
(g455
g59
g427
tp488
Rp489
(dp490
bsg44
S'RASA3_inactivates_KRAS'
p491
sg46
I00
sa(dp492
g9
(I10
I23
tp493
sg11
(I23
I26
tp494
sg13
g14
(g73
g15
(S's10'
p495
tp496
Rp497
(dp498
g20
g0
(g21
g22
(dp499
g24
I01
stp500
Rp501
sbg15
(S's23'
p502
tp503
Rp504
(dp505
g20
g0
(g21
g22
(dp506
g24
I01
stp507
Rp508
sbtp509
Rp510
(dp511
bsg44
S'MAP2K1_Kinase_activates_MAPK1_Kinase'
p512
sg46
I00
sa(dp513
g9
(I6
I25
tp514
sg11
(I17
I25
tp515
sg13
g14
(g73
g469
g132
tp516
Rp517
(dp518
bsg44
S'NRAS_GtpBound_activates_ARAF_Kinase'
p519
sg46
I00
sa(dp520
g9
(I7
I24
tp521
sg11
(I20
I24
tp522
sg13
g14
(g73
g427
g36
tp523
Rp524
(dp525
bsg44
S'KRAS_GtpBound_activates_BRAF_Kinase'
p526
sg46
I00
sa(dp527
g9
(I13
I24
tp528
sg11
(I21
I24
tp529
sg13
g14
(g73
g115
g427
tp530
Rp531
(dp532
bsg44
S'KRAS_GtpBound_activates_BRAF_Kinase'
p533
sg46
I00
sa(dp534
g9
(I16
I24
tp535
sg11
(I22
I24
tp536
sg13
g14
(g73
g223
g427
tp537
Rp538
(dp539
bsg44
S'KRAS_GtpBound_activates_BRAF_Kinase'
p540
sg46
I00
sa(dp541
g9
(I7
I25
tp542
sg11
(I20
I25
tp543
sg13
g14
(g73
g469
g36
tp544
Rp545
(dp546
bsg44
S'NRAS_GtpBound_activates_BRAF_Kinase'
p547
sg46
I00
sa(dp548
g9
(I13
I25
tp549
sg11
(I21
I25
tp550
sg13
g14
(g73
g115
g469
tp551
Rp552
(dp553
bsg44
S'NRAS_GtpBound_activates_BRAF_Kinase'
p554
sg46
I00
sa(dp555
g9
(I16
I25
tp556
sg11
(I22
I25
tp557
sg13
g14
(g73
g223
g469
tp558
Rp559
(dp560
bsg44
S'NRAS_GtpBound_activates_BRAF_Kinase'
p561
sg46
I00
sa(dp562
g9
(I8
I22
tp563
sg11
(I19
I22
tp564
sg13
g14
(g73
g413
g174
tp565
Rp566
(dp567
bsg44
S'HRAS_GtpBound_activates_RAF1_Kinase'
p568
sg46
I00
sa(dp569
g9
(I7
I22
tp570
sg11
(I20
I22
tp571
sg13
g14
(g73
g413
g36
tp572
Rp573
(dp574
bsg44
S'HRAS_GtpBound_activates_BRAF_Kinase'
p575
sg46
I00
sa(dp576
g9
(I13
I22
tp577
sg11
(I21
I22
tp578
sg13
g14
(g73
g115
g413
tp579
Rp580
(dp581
bsg44
S'HRAS_GtpBound_activates_BRAF_Kinase'
p582
sg46
I00
sa(dp583
g9
(I16
I22
tp584
sg11
(I22
I22
tp585
sg13
g14
(g73
g223
g413
tp586
Rp587
(dp588
bsg44
S'HRAS_GtpBound_activates_BRAF_Kinase'
p589
sg46
I00
sasS'initial_conditions'
p590
(lp591
(g0
(cpysb.core
ComplexPattern
p592
g2
Ntp593
Rp594
(dp595
S'compartment'
p596
NsS'monomer_patterns'
p597
(lp598
g0
(cpysb.core
MonomerPattern
p599
g2
Ntp600
Rp601
(dp602
g596
NsS'monomer'
p603
g0
(cpysb.core
Monomer
p604
g2
Ntp605
Rp606
(dp607
S'site_states'
p608
(dp609
sS'name'
p610
S'EGF'
p611
sS'_export'
p612
I00
sS'sites'
p613
(lp614
sbsS'site_conditions'
p615
(dp616
sbasS'match_once'
p617
I00
sbcpysb.core
Parameter
p618
(S'EGF_0'
p619
F10000.0
I00
tp620
Rp621
(dp622
g612
I00
sS'value'
p623
F10000.0
sbtp624
a(g0
(g592
g2
Ntp625
Rp626
(dp627
g596
Nsg597
(lp628
g0
(g599
g2
Ntp629
Rp630
(dp631
g596
Nsg603
g0
(g604
g2
Ntp632
Rp633
(dp634
g608
(dp635
S'Kinase'
p636
(lp637
S'inactive'
p638
aS'active'
p639
assg610
S'EGFR'
p640
sg612
I00
sg613
(lp641
S'ERBB2'
p642
ag636
asbsg615
(dp643
g642
Nsg636
g638
ssbasg617
I00
sbg618
(S'EGFR_0'
p644
F70000.0
I00
tp645
Rp646
(dp647
g612
I00
sg623
F70000.0
sbtp648
a(g0
(g592
g2
Ntp649
Rp650
(dp651
g596
Nsg597
(lp652
g0
(g599
g2
Ntp653
Rp654
(dp655
g596
Nsg603
g0
(g604
g2
Ntp656
Rp657
(dp658
g608
(dp659
S'Catalytic'
p660
(lp661
S'inactive'
p662
aS'active'
p663
assg610
S'SOS1'
p664
sg612
I00
sg613
(lp665
S'GRB2'
p666
ag660
asbsg615
(dp667
g666
Nsg660
g662
ssbasg617
I00
sbg618
(S'SOS_0'
p668
F5000000.0
I00
tp669
Rp670
(dp671
g612
I00
sg623
F5000000.0
sbtp672
a(g0
(g592
g2
Ntp673
Rp674
(dp675
g596
Nsg597
(lp676
g0
(g599
g2
Ntp677
Rp678
(dp679
g596
Nsg603
g0
(g604
g2
Ntp680
Rp681
(dp682
g608
(dp683
S'GtpBound'
p684
(lp685
g638
ag639
assg610
S'HRAS'
p686
sg612
I00
sg613
(lp687
S'BRAF'
p688
aS'BCL2'
p689
ag684
asbsg615
(dp690
g689
Nsg688
Nsg684
g638
ssbasg617
I00
sbg618
(S'RAS_0'
p691
F58000.0
I00
tp692
Rp693
(dp694
g612
I00
sg623
F58000.0
sbtp695
a(g0
(g592
g2
Ntp696
Rp697
(dp698
g596
Nsg597
(lp699
g0
(g599
g2
Ntp700
Rp701
(dp702
g596
Nsg603
g0
(g604
g2
Ntp703
Rp704
(dp705
g608
(dp706
S'GtpBound'
p707
(lp708
S'inactive'
p709
aS'active'
p710
assg610
S'NRAS'
p711
sg612
I00
sg613
(lp712
g707
asbsg615
(dp713
g707
g709
ssbasg617
I00
sbg693
tp714
a(g0
(g592
g2
Ntp715
Rp716
(dp717
g596
Nsg597
(lp718
g0
(g599
g2
Ntp719
Rp720
(dp721
g596
Nsg603
g0
(g604
g2
Ntp722
Rp723
(dp724
g608
(dp725
S'GtpBound'
p726
(lp727
g638
ag639
assg610
S'KRAS'
p728
sg612
I00
sg613
(lp729
g726
asbsg615
(dp730
g726
g638
ssbasg617
I00
sbg693
tp731
a(g0
(g592
g2
Ntp732
Rp733
(dp734
g596
Nsg597
(lp735
g0
(g599
g2
Ntp736
Rp737
(dp738
g596
Nsg603
g0
(g604
g2
Ntp739
Rp740
(dp741
g608
(dp742
S'Kinase'
p743
(lp744
S'inactive'
p745
aS'active'
p746
assg610
S'ARAF'
p747
sg612
I00
sg613
(lp748
g743
asbsg615
(dp749
g743
g745
ssbasg617
I00
sbg618
(S'RAF_0'
p750
F40000.0
I00
tp751
Rp752
(dp753
g612
I00
sg623
F40000.0
sbtp754
a(g0
(g592
g2
Ntp755
Rp756
(dp757
g596
Nsg597
(lp758
g0
(g599
g2
Ntp759
Rp760
(dp761
g596
Nsg603
g0
(g604
g2
Ntp762
Rp763
(dp764
g608
(dp765
S'Kinase'
p766
(lp767
g638
ag639
assg610
g688
sg612
I00
sg613
(lp768
g686
aS'RPS6KB2'
p769
aS'PRKCE'
p770
ag766
asbsg615
(dp771
g686
Nsg770
Nsg766
g638
sg769
Nssbasg617
I00
sbg752
tp772
a(g0
(g592
g2
Ntp773
Rp774
(dp775
g596
Nsg597
(lp776
g0
(g599
g2
Ntp777
Rp778
(dp779
g596
Nsg603
g0
(g604
g2
Ntp780
Rp781
(dp782
g608
(dp783
S'Y340'
p784
(lp785
S'u'
p786
aS'p'
p787
asS'Y341'
p788
(lp789
g786
ag787
asS'S259'
p790
(lp791
g786
ag787
asS'S499'
p792
(lp793
g786
ag787
asS'Kinase'
p794
(lp795
S'inactive'
p796
aS'active'
p797
asS'S43'
p798
(lp799
g786
ag787
asS'S339'
p800
(lp801
g786
ag787
assg610
S'RAF1'
p802
sg612
I00
sg613
(lp803
S'PAK2'
p804
aS'YWHAB'
p805
aS'PRKCZ'
p806
aS'CFLAR'
p807
aS'KRT8'
p808
aS'KRT18'
p809
aS'RB1'
p810
aS'ARRB2'
p811
aS'MAPK1'
p812
aS'P3579'
p813
aS'YWHAQ'
p814
aS'PEBP1'
p815
ag788
ag792
ag798
ag784
ag790
ag800
ag794
asbsg615
(dp816
g790
g786
sg788
g786
sg794
g796
sg806
Nsg811
Nsg798
g786
sg808
Nsg784
g786
sg815
Nsg792
g786
sg814
Nsg810
Nsg807
Nsg812
Nsg813
Nsg805
Nsg800
g786
sg804
Nsg809
Nssbasg617
I00
sbg752
tp817
a(g0
(g592
g2
Ntp818
Rp819
(dp820
g596
Nsg597
(lp821
g0
(g599
g2
Ntp822
Rp823
(dp824
g596
Nsg603
g0
(g604
g2
Ntp825
Rp826
(dp827
g608
(dp828
S'S'
p829
(lp830
g786
ag787
asS'T25'
p831
(lp832
g786
ag787
asg794
(lp833
g796
ag797
assg610
S'MAP2K1'
p834
sg612
I00
sg613
(lp835
S'GIT1'
p836
ag831
ag829
ag794
asbsg615
(dp837
g829
g786
sg831
g786
sg836
Nsg794
g796
ssbasg617
I00
sbg618
(S'MAP2K1_0'
p838
F3020000.0
I00
tp839
Rp840
(dp841
g612
I00
sg623
F3020000.0
sbtp842
a(g0
(g592
g2
Ntp843
Rp844
(dp845
g596
Nsg597
(lp846
g0
(g599
g2
Ntp847
Rp848
(dp849
g596
Nsg603
g0
(g604
g2
Ntp850
Rp851
(dp852
g608
(dp853
S'Y'
p854
(lp855
g786
ag787
asS'Y187'
p856
(lp857
g786
ag787
asS'T185'
p858
(lp859
g786
ag787
asg794
(lp860
g796
ag797
assg610
g812
sg612
I00
sg613
(lp861
S'RAF1'
p862
ag811
ag813
ag856
ag858
ag854
ag794
asbsg615
(dp863
g856
g786
sg811
Nsg813
Nsg854
g786
sg862
Nsg858
g786
sg794
g796
ssbasg617
I00
sbg618
(S'MAPK1_0'
p864
F695000.0
I00
tp865
Rp866
(dp867
g612
I00
sg623
F695000.0
sbtp868
a(g0
(g592
g2
Ntp869
Rp870
(dp871
g596
Nsg597
(lp872
g0
(g599
g2
Ntp873
Rp874
(dp875
g596
Nsg603
g0
(g604
g2
Ntp876
Rp877
(dp878
g608
(dp879
S'Catalytic'
p880
(lp881
S'inactive'
p882
aS'active'
p883
assg610
S'RASA2'
p884
sg612
I00
sg613
(lp885
g880
asbsg615
(dp886
S'Catalytic'
p887
S'active'
p888
ssbasg617
I00
sbg618
(S'init_default'
p889
F10000.0
I00
tp890
Rp891
(dp892
g612
I00
sg623
F10000.0
sbtp893
a(g0
(g592
g2
Ntp894
Rp895
(dp896
g596
Nsg597
(lp897
g0
(g599
g2
Ntp898
Rp899
(dp900
g596
Nsg603
g0
(g604
g2
Ntp901
Rp902
(dp903
g608
(dp904
S'Catalytic'
p905
(lp906
g882
ag883
assg610
S'RASA3'
p907
sg612
I00
sg613
(lp908
g905
asbsg615
(dp909
g887
g888
ssbasg617
I00
sbg891
tp910
asg610
NsS'parameters'
p911
g0
(cpysb.core
ComponentSet
p912
g2
Ntp913
Rp914
(dp915
S'_index_map'
p916
(dp917
g864
I15
sg691
I12
sg644
I10
sS'AKT_0'
p918
I16
sg838
I14
sg668
I11
sS'kf_bind'
p919
I0
sS'kf_gef'
p920
I5
sg889
I8
sS'kf_gap'
p921
I6
sS'default_ic'
p922
I7
sS'kf_phospho'
p923
I1
sg750
I13
sS'kf_dephospho'
p924
I2
sg619
I9
sS'kf_activation'
p925
I3
sS'kf_one_step_activate'
p926
I4
ssS'_elements'
p927
(lp928
g618
(g919
F1e-06
I00
tp929
Rp930
(dp931
g612
I00
sg623
F1e-06
sbag618
(g923
F1e-06
I00
tp932
Rp933
(dp934
g612
I00
sg623
F1e-06
sbag618
(g924
F1e-06
I00
tp935
Rp936
(dp937
g612
I00
sg623
F1e-06
sbag618
(g925
F1e-06
I00
tp938
Rp939
(dp940
g612
I00
sg623
F1e-06
sbag618
(g926
F1e-06
I00
tp941
Rp942
(dp943
g612
I00
sg623
F1e-06
sbag618
(g920
F1e-06
I00
tp944
Rp945
(dp946
g612
I00
sg623
F1e-06
sbag618
(g921
F1e-06
I00
tp947
Rp948
(dp949
g612
I00
sg623
F1e-06
sbag618
(g922
F100.0
I00
tp950
Rp951
(dp952
g612
I00
sg623
F100.0
sbag891
ag621
ag646
ag670
ag693
ag752
ag840
ag866
ag618
(g918
F905000.0
I00
tp953
Rp954
(dp955
g612
I00
sg623
F905000.0
sbasS'_map'
p956
(dp957
g864
g866
sg691
g693
sg644
g646
sg918
g954
sg838
g840
sg668
g670
sg919
g930
sg920
g945
sg889
g891
sg921
g948
sg922
g951
sg923
g933
sg750
g752
sg924
g936
sg619
g621
sg925
g939
sg926
g942
ssbsS'rules'
p958
g0
(g912
g2
Ntp959
Rp960
(dp961
g916
(dp962
S'EGFR_Kinase_activates_SOS1_Catalytic'
p963
I53
sS'LPAR2_SLC9A3R2_bind'
p964
I2
sS'ESTRADIOL_GPER_bind'
p965
I20
sS'RASA3_activates_HRAS'
p966
I59
sS'CFLAR_KRT8_KRT18_RAF1_bind'
p967
I7
sS'GRB2_ACP1_bind'
p968
I25
sS'KRT8_RAF1_bind'
p969
I9
sS'ESTRADIOL_ESR1_bind'
p970
I17
sS'SOS1_activates_HRAS'
p971
I41
sS'SOS1_activates_KRAS'
p972
I49
sS'ARAF_Kinase_activates_MAP2K1_Kinase'
p973
I43
sS'GRB2_SOS1_bind'
p974
I24
sS'KRAS_GtpBound_activates_RAF1_Kinase'
p975
I46
sS'MAP3K3_Kinase_activates_MAP2K1_Kinase'
p976
I42
sS'RASA3_inactivates_KRAS'
p977
I51
sS'PRKC_FAMILY_phospho_RAF1_S499'
p978
I29
sS'DAB2_GRB2_bind'
p979
I14
sS'HRAS_GtpBound_activates_BRAF_Kinase'
p980
I64
sS'MAP3K1_Kinase_activates_MAP2K1_Kinase'
p981
I63
sS'PRKA_FAMILY_phospho_RAF1_S43'
p982
I30
sS'YWHAB_PRKCZ_RAF1_bind'
p983
I6
sS'RASA2_inactivates_NRAS'
p984
I48
sS'AKT_FAMILY_phospho_RAF1_S259'
p985
I33
sS'PAK2_RAF1_bind'
p986
I0
sS'RASAL1_inactivates_NRAS'
p987
I62
sS'ITGB4_ITGA6_bind'
p988
I5
sS'BRAF_HRAS_bind'
p989
I1
sS'SOS_FAMILY_activates_NRAS'
p990
I60
sS'HRAS_BCL2_bind'
p991
I27
sS'SOS1_activates_NRAS'
p992
I52
sS'SRC_phospho_RAF1_Y340'
p993
I32
sS'KITLG_KIT_bind'
p994
I21
sS'DAB2IP_inactivates_KRAS'
p995
I58
sS'MAP2K1_Sp_DirectlyIncreases_Kinase'
p996
I36
sS'BRAF_RPS6KB2_PRKCE_bind'
p997
I8
sS'RAF1_PEBP1_bind'
p998
I15
sS'MAPK1_Yp_DirectlyIncreases_Kinase'
p999
I37
sS'RAF1_S339p_DirectlyIncreases_Kinase'
p1000
I38
sS'RASA4_inactivates_KRAS'
p1001
I47
sS'RET_phospho_MAPK1_Y187'
p1002
I34
sS'NRAS_GtpBound_activates_ARAF_Kinase'
p1003
I55
sS'RAF1_PRKCZ_bind'
p1004
I18
sS'CREB1_CREBBP_bind'
p1005
I23
sS'P2_FAMILY_phospho_MAP2K1_T25'
p1006
I31
sS'RAF1_RB1_bind'
p1007
I10
sS'RAF1_Kinase_activates_MAP2K1_Kinase'
p1008
I44
sS'HSF1_MAPK3_bind'
p1009
I4
sS'HRAS_GtpBound_activates_RAF1_Kinase'
p1010
I61
sS'JAK1_phospho_RAF1_Y341'
p1011
I28
sS'YWHAQ_PRKCZ_RAF1_bind'
p1012
I13
sS'ERBB2_EGFR_bind'
p1013
I26
sS'EGF_activates_EGFR'
p1014
I65
sS'LCP2_VAV1_bind'
p1015
I12
sS'MAP2K1_Kinase_activates_MAPK1_Kinase'
p1016
I54
sS'GIT1_MAP2K1_bind'
p1017
I19
sS'CD74_MIF_bind'
p1018
I22
sS'HRAS_GtpBound_activates_ARAF_Kinase'
p1019
I40
sS'BRAF_Kinase_activates_MAP2K1_Kinase'
p1020
I50
sS'DUSP4_dephospho_MAPK1_T185'
p1021
I35
sS'KRAS_GtpBound_activates_ARAF_Kinase'
p1022
I39
sS'ITGA5_ITGB1_bind'
p1023
I3
sS'RAF1_ARRB2_MAPK1_P3579_bind'
p1024
I11
sS'NRAS_GtpBound_activates_BRAF_Kinase'
p1025
I57
sS'RAF_FAMILY_Kinase_activates_MAP2K1_Kinase'
p1026
I45
sS'ITGAV_ITGB3_bind'
p1027
I16
sS'KRAS_GtpBound_activates_BRAF_Kinase'
p1028
I56
ssg927
(lp1029
g0
(cpysb.core
Rule
p1030
g2
Ntp1031
Rp1032
(dp1033
S'rate_forward'
p1034
g930
sS'reactant_pattern'
p1035
g0
(cpysb.core
ReactionPattern
p1036
g2
Ntp1037
Rp1038
(dp1039
S'complex_patterns'
p1040
(lp1041
g0
(g592
g2
Ntp1042
Rp1043
(dp1044
g596
Nsg597
(lp1045
g0
(g599
g2
Ntp1046
Rp1047
(dp1048
g596
Nsg603
g0
(g604
g2
Ntp1049
Rp1050
(dp1051
g608
(dp1052
sg610
g804
sg612
I00
sg613
(lp1053
g802
asbsg615
(dp1054
g802
Nssbasg617
I00
sbag0
(g592
g2
Ntp1055
Rp1056
(dp1057
g596
Nsg597
(lp1058
g0
(g599
g2
Ntp1059
Rp1060
(dp1061
g596
Nsg603
g781
sg615
(dp1062
g804
Nssbasg617
I00
sbasbsg610
g986
sS'is_reversible'
p1063
I01
sS'rule_expression'
p1064
g0
(cpysb.core
RuleExpression
p1065
g2
Ntp1066
Rp1067
(dp1068
S'product_pattern'
p1069
g0
(g1036
g2
Ntp1070
Rp1071
(dp1072
g1040
(lp1073
g0
(g592
g2
Ntp1074
Rp1075
(dp1076
g596
Nsg597
(lp1077
g0
(g599
g2
Ntp1078
Rp1079
(dp1080
g596
Nsg603
g1050
sg615
(dp1081
g802
I1
ssbag0
(g599
g2
Ntp1082
Rp1083
(dp1084
g596
Nsg603
g781
sg615
(dp1085
g804
I1
ssbasg617
I00
sbasbsg1035
g1038
sg1063
I01
sbsS'move_connected'
p1086
I00
sg612
I00
sg1069
g1071
sS'delete_molecules'
p1087
I00
sS'rate_reverse'
p1088
g930
sbag0
(g1030
g2
Ntp1089
Rp1090
(dp1091
g1034
g930
sg1035
g0
(g1036
g2
Ntp1092
Rp1093
(dp1094
g1040
(lp1095
g0
(g592
g2
Ntp1096
Rp1097
(dp1098
g596
Nsg597
(lp1099
g0
(g599
g2
Ntp1100
Rp1101
(dp1102
g596
Nsg603
g763
sg615
(dp1103
g686
Nssbasg617
I00
sbag0
(g592
g2
Ntp1104
Rp1105
(dp1106
g596
Nsg597
(lp1107
g0
(g599
g2
Ntp1108
Rp1109
(dp1110
g596
Nsg603
g681
sg615
(dp1111
g688
Nssbasg617
I00
sbasbsg610
g989
sg1063
I01
sg1064
g0
(g1065
g2
Ntp1112
Rp1113
(dp1114
g1069
g0
(g1036
g2
Ntp1115
Rp1116
(dp1117
g1040
(lp1118
g0
(g592
g2
Ntp1119
Rp1120
(dp1121
g596
Nsg597
(lp1122
g0
(g599
g2
Ntp1123
Rp1124
(dp1125
g596
Nsg603
g763
sg615
(dp1126
g686
I1
ssbag0
(g599
g2
Ntp1127
Rp1128
(dp1129
g596
Nsg603
g681
sg615
(dp1130
g688
I1
ssbasg617
I00
sbasbsg1035
g1093
sg1063
I01
sbsg1086
I00
sg612
I00
sg1069
g1116
sg1087
I00
sg1088
g930
sbag0
(g1030
g2
Ntp1131
Rp1132
(dp1133
g1034
g930
sg1035
g0
(g1036
g2
Ntp1134
Rp1135
(dp1136
g1040
(lp1137
g0
(g592
g2
Ntp1138
Rp1139
(dp1140
g596
Nsg597
(lp1141
g0
(g599
g2
Ntp1142
Rp1143
(dp1144
g596
Nsg603
g0
(g604
g2
Ntp1145
Rp1146
(dp1147
g608
(dp1148
sg610
S'LPAR2'
p1149
sg612
I00
sg613
(lp1150
S'SLC9A3R2'
p1151
asbsg615
(dp1152
g1151
Nssbasg617
I00
sbag0
(g592
g2
Ntp1153
Rp1154
(dp1155
g596
Nsg597
(lp1156
g0
(g599
g2
Ntp1157
Rp1158
(dp1159
g596
Nsg603
g0
(g604
g2
Ntp1160
Rp1161
(dp1162
g608
(dp1163
sg610
g1151
sg612
I00
sg613
(lp1164
g1149
asbsg615
(dp1165
g1149
Nssbasg617
I00
sbasbsg610
g964
sg1063
I01
sg1064
g0
(g1065
g2
Ntp1166
Rp1167
(dp1168
g1069
g0
(g1036
g2
Ntp1169
Rp1170
(dp1171
g1040
(lp1172
g0
(g592
g2
Ntp1173
Rp1174
(dp1175
g596
Nsg597
(lp1176
g0
(g599
g2
Ntp1177
Rp1178
(dp1179
g596
Nsg603
g1146
sg615
(dp1180
g1151
I1
ssbag0
(g599
g2
Ntp1181
Rp1182
(dp1183
g596
Nsg603
g1161
sg615
(dp1184
g1149
I1
ssbasg617
I00
sbasbsg1035
g1135
sg1063
I01
sbsg1086
I00
sg612
I00
sg1069
g1170
sg1087
I00
sg1088
g930
sbag0
(g1030
g2
Ntp1185
Rp1186
(dp1187
g1034
g930
sg1035
g0
(g1036
g2
Ntp1188
Rp1189
(dp1190
g1040
(lp1191
g0
(g592
g2
Ntp1192
Rp1193
(dp1194
g596
Nsg597
(lp1195
g0
(g599
g2
Ntp1196
Rp1197
(dp1198
g596
Nsg603
g0
(g604
g2
Ntp1199
Rp1200
(dp1201
g608
(dp1202
sg610
S'ITGA5'
p1203
sg612
I00
sg613
(lp1204
S'ITGB1'
p1205
asbsg615
(dp1206
g1205
Nssbasg617
I00
sbag0
(g592
g2
Ntp1207
Rp1208
(dp1209
g596
Nsg597
(lp1210
g0
(g599
g2
Ntp1211
Rp1212
(dp1213
g596
Nsg603
g0
(g604
g2
Ntp1214
Rp1215
(dp1216
g608
(dp1217
sg610
g1205
sg612
I00
sg613
(lp1218
g1203
asbsg615
(dp1219
g1203
Nssbasg617
I00
sbasbsg610
g1023
sg1063
I01
sg1064
g0
(g1065
g2
Ntp1220
Rp1221
(dp1222
g1069
g0
(g1036
g2
Ntp1223
Rp1224
(dp1225
g1040
(lp1226
g0
(g592
g2
Ntp1227
Rp1228
(dp1229
g596
Nsg597
(lp1230
g0
(g599
g2
Ntp1231
Rp1232
(dp1233
g596
Nsg603
g1200
sg615
(dp1234
g1205
I1
ssbag0
(g599
g2
Ntp1235
Rp1236
(dp1237
g596
Nsg603
g1215
sg615
(dp1238
g1203
I1
ssbasg617
I00
sbasbsg1035
g1189
sg1063
I01
sbsg1086
I00
sg612
I00
sg1069
g1224
sg1087
I00
sg1088
g930
sbag0
(g1030
g2
Ntp1239
Rp1240
(dp1241
g1034
g930
sg1035
g0
(g1036
g2
Ntp1242
Rp1243
(dp1244
g1040
(lp1245
g0
(g592
g2
Ntp1246
Rp1247
(dp1248
g596
Nsg597
(lp1249
g0
(g599
g2
Ntp1250
Rp1251
(dp1252
g596
Nsg603
g0
(g604
g2
Ntp1253
Rp1254
(dp1255
g608
(dp1256
sg610
S'HSF1'
p1257
sg612
I00
sg613
(lp1258
S'MAPK3'
p1259
asbsg615
(dp1260
g1259
Nssbasg617
I00
sbag0
(g592
g2
Ntp1261
Rp1262
(dp1263
g596
Nsg597
(lp1264
g0
(g599
g2
Ntp1265
Rp1266
(dp1267
g596
Nsg603
g0
(g604
g2
Ntp1268
Rp1269
(dp1270
g608
(dp1271
sg610
g1259
sg612
I00
sg613
(lp1272
g1257
asbsg615
(dp1273
g1257
Nssbasg617
I00
sbasbsg610
g1009
sg1063
I01
sg1064
g0
(g1065
g2
Ntp1274
Rp1275
(dp1276
g1069
g0
(g1036
g2
Ntp1277
Rp1278
(dp1279
g1040
(lp1280
g0
(g592
g2
Ntp1281
Rp1282
(dp1283
g596
Nsg597
(lp1284
g0
(g599
g2
Ntp1285
Rp1286
(dp1287
g596
Nsg603
g1254
sg615
(dp1288
g1259
I1
ssbag0
(g599
g2
Ntp1289
Rp1290
(dp1291
g596
Nsg603
g1269
sg615
(dp1292
g1257
I1
ssbasg617
I00
sbasbsg1035
g1243
sg1063
I01
sbsg1086
I00
sg612
I00
sg1069
g1278
sg1087
I00
sg1088
g930
sbag0
(g1030
g2
Ntp1293
Rp1294
(dp1295
g1034
g930
sg1035
g0
(g1036
g2
Ntp1296
Rp1297
(dp1298
g1040
(lp1299
g0
(g592
g2
Ntp1300
Rp1301
(dp1302
g596
Nsg597
(lp1303
g0
(g599
g2
Ntp1304
Rp1305
(dp1306
g596
Nsg603
g0
(g604
g2
Ntp1307
Rp1308
(dp1309
g608
(dp1310
sg610
S'ITGB4'
p1311
sg612
I00
sg613
(lp1312
S'ITGA6'
p1313
asbsg615
(dp1314
g1313
Nssbasg617
I00
sbag0
(g592
g2
Ntp1315
Rp1316
(dp1317
g596
Nsg597
(lp1318
g0
(g599
g2
Ntp1319
Rp1320
(dp1321
g596
Nsg603
g0
(g604
g2
Ntp1322
Rp1323
(dp1324
g608
(dp1325
sg610
g1313
sg612
I00
sg613
(lp1326
g1311
asbsg615
(dp1327
g1311
Nssbasg617
I00
sbasbsg610
g988
sg1063
I01
sg1064
g0
(g1065
g2
Ntp1328
Rp1329
(dp1330
g1069
g0
(g1036
g2
Ntp1331
Rp1332
(dp1333
g1040
(lp1334
g0
(g592
g2
Ntp1335
Rp1336
(dp1337
g596
Nsg597
(lp1338
g0
(g599
g2
Ntp1339
Rp1340
(dp1341
g596
Nsg603
g1308
sg615
(dp1342
g1313
I1
ssbag0
(g599
g2
Ntp1343
Rp1344
(dp1345
g596
Nsg603
g1323
sg615
(dp1346
g1311
I1
ssbasg617
I00
sbasbsg1035
g1297
sg1063
I01
sbsg1086
I00
sg612
I00
sg1069
g1332
sg1087
I00
sg1088
g930
sbag0
(g1030
g2
Ntp1347
Rp1348
(dp1349
g1034
g930
sg1035
g0
(g1036
g2
Ntp1350
Rp1351
(dp1352
g1040
(lp1353
g0
(g592
g2
Ntp1354
Rp1355
(dp1356
g596
Nsg597
(lp1357
g0
(g599
g2
Ntp1358
Rp1359
(dp1360
g596
Nsg603
g0
(g604
g2
Ntp1361
Rp1362
(dp1363
g608
(dp1364
sg610
g805
sg612
I00
sg613
(lp1365
g806
aS'RAF1'
p1366
asbsg615
(dp1367
g806
Nsg1366
Nssbasg617
I00
sbag0
(g592
g2
Ntp1368
Rp1369
(dp1370
g596
Nsg597
(lp1371
g0
(g599
g2
Ntp1372
Rp1373
(dp1374
g596
Nsg603
g0
(g604
g2
Ntp1375
Rp1376
(dp1377
g608
(dp1378
sg610
g806
sg612
I00
sg613
(lp1379
g805
ag1366
ag814
asbsg615
(dp1380
g805
Nsg1366
Nssbasg617
I00
sbag0
(g592
g2
Ntp1381
Rp1382
(dp1383
g596
Nsg597
(lp1384
g0
(g599
g2
Ntp1385
Rp1386
(dp1387
g596
Nsg603
g781
sg615
(dp1388
g805
Nsg806
Nssbasg617
I00
sbasbsg610
g983
sg1063
I01
sg1064
g0
(g1065
g2
Ntp1389
Rp1390
(dp1391
g1069
g0
(g1036
g2
Ntp1392
Rp1393
(dp1394
g1040
(lp1395
g0
(g592
g2
Ntp1396
Rp1397
(dp1398
g596
Nsg597
(lp1399
g0
(g599
g2
Ntp1400
Rp1401
(dp1402
g596
Nsg603
g1362
sg615
(dp1403
g806
I1
sg1366
I2
ssbag0
(g599
g2
Ntp1404
Rp1405
(dp1406
g596
Nsg603
g1376
sg615
(dp1407
g805
I1
sg1366
I3
ssbag0
(g599
g2
Ntp1408
Rp1409
(dp1410
g596
Nsg603
g781
sg615
(dp1411
g805
I2
sg806
I3
ssbasg617
I00
sbasbsg1035
g1351
sg1063
I01
sbsg1086
I00
sg612
I00
sg1069
g1393
sg1087
I00
sg1088
g930
sbag0
(g1030
g2
Ntp1412
Rp1413
(dp1414
g1034
g930
sg1035
g0
(g1036
g2
Ntp1415
Rp1416
(dp1417
g1040
(lp1418
g0
(g592
g2
Ntp1419
Rp1420
(dp1421
g596
Nsg597
(lp1422
g0
(g599
g2
Ntp1423
Rp1424
(dp1425
g596
Nsg603
g0
(g604
g2
Ntp1426
Rp1427
(dp1428
g608
(dp1429
sg610
g807
sg612
I00
sg613
(lp1430
g808
ag809
aS'RAF1'
p1431
asbsg615
(dp1432
g808
Nsg1431
Nsg809
Nssbasg617
I00
sbag0
(g592
g2
Ntp1433
Rp1434
(dp1435
g596
Nsg597
(lp1436
g0
(g599
g2
Ntp1437
Rp1438
(dp1439
g596
Nsg603
g0
(g604
g2
Ntp1440
Rp1441
(dp1442
g608
(dp1443
sg610
g808
sg612
I00
sg613
(lp1444
g807
ag809
ag1431
asbsg615
(dp1445
g807
Nsg1431
Nsg809
Nssbasg617
I00
sbag0
(g592
g2
Ntp1446
Rp1447
(dp1448
g596
Nsg597
(lp1449
g0
(g599
g2
Ntp1450
Rp1451
(dp1452
g596
Nsg603
g0
(g604
g2
Ntp1453
Rp1454
(dp1455
g608
(dp1456
sg610
g809
sg612
I00
sg613
(lp1457
g807
ag808
ag1431
asbsg615
(dp1458
g807
Nsg808
Nsg1431
Nssbasg617
I00
sbag0
(g592
g2
Ntp1459
Rp1460
(dp1461
g596
Nsg597
(lp1462
g0
(g599
g2
Ntp1463
Rp1464
(dp1465
g596
Nsg603
g781
sg615
(dp1466
g807
Nsg808
Nsg809
Nssbasg617
I00
sbasbsg610
g967
sg1063
I01
sg1064
g0
(g1065
g2
Ntp1467
Rp1468
(dp1469
g1069
g0
(g1036
g2
Ntp1470
Rp1471
(dp1472
g1040
(lp1473
g0
(g592
g2
Ntp1474
Rp1475
(dp1476
g596
Nsg597
(lp1477
g0
(g599
g2
Ntp1478
Rp1479
(dp1480
g596
Nsg603
g1427
sg615
(dp1481
g808
I1
sg1431
I3
sg809
I2
ssbag0
(g599
g2
Ntp1482
Rp1483
(dp1484
g596
Nsg603
g1441
sg615
(dp1485
g807
I1
sg1431
I5
sg809
I4
ssbag0
(g599
g2
Ntp1486
Rp1487
(dp1488
g596
Nsg603
g1454
sg615
(dp1489
g807
I2
sg808
I4
sg1431
I6
ssbag0
(g599
g2
Ntp1490
Rp1491
(dp1492
g596
Nsg603
g781
sg615
(dp1493
g807
I3
sg808
I5
sg809
I6
ssbasg617
I00
sbasbsg1035
g1416
sg1063
I01
sbsg1086
I00
sg612
I00
sg1069
g1471
sg1087
I00
sg1088
g930
sbag0
(g1030
g2
Ntp1494
Rp1495
(dp1496
g1034
g930
sg1035
g0
(g1036
g2
Ntp1497
Rp1498
(dp1499
g1040
(lp1500
g0
(g592
g2
Ntp1501
Rp1502
(dp1503
g596
Nsg597
(lp1504
g0
(g599
g2
Ntp1505
Rp1506
(dp1507
g596
Nsg603
g763
sg615
(dp1508
g770
Nsg769
Nssbasg617
I00
sbag0
(g592
g2
Ntp1509
Rp1510
(dp1511
g596
Nsg597
(lp1512
g0
(g599
g2
Ntp1513
Rp1514
(dp1515
g596
Nsg603
g0
(g604
g2
Ntp1516
Rp1517
(dp1518
g608
(dp1519
sg610
g769
sg612
I00
sg613
(lp1520
S'BRAF'
p1521
ag770
asbsg615
(dp1522
g770
Nsg1521
Nssbasg617
I00
sbag0
(g592
g2
Ntp1523
Rp1524
(dp1525
g596
Nsg597
(lp1526
g0
(g599
g2
Ntp1527
Rp1528
(dp1529
g596
Nsg603
g0
(g604
g2
Ntp1530
Rp1531
(dp1532
g608
(dp1533
sg610
g770
sg612
I00
sg613
(lp1534
g1521
ag769
asbsg615
(dp1535
g1521
Nsg769
Nssbasg617
I00
sbasbsg610
g997
sg1063
I01
sg1064
g0
(g1065
g2
Ntp1536
Rp1537
(dp1538
g1069
g0
(g1036
g2
Ntp1539
Rp1540
(dp1541
g1040
(lp1542
g0
(g592
g2
Ntp1543
Rp1544
(dp1545
g596
Nsg597
(lp1546
g0
(g599
g2
Ntp1547
Rp1548
(dp1549
g596
Nsg603
g763
sg615
(dp1550
g770
I2
sg769
I1
ssbag0
(g599
g2
Ntp1551
Rp1552
(dp1553
g596
Nsg603
g1517
sg615
(dp1554
g770
I3
sg1521
I1
ssbag0
(g599
g2
Ntp1555
Rp1556
(dp1557
g596
Nsg603
g1531
sg615
(dp1558
g1521
I2
sg769
I3
ssbasg617
I00
sbasbsg1035
g1498
sg1063
I01
sbsg1086
I00
sg612
I00
sg1069
g1540
sg1087
I00
sg1088
g930
sbag0
(g1030
g2
Ntp1559
Rp1560
(dp1561
g1034
g930
sg1035
g0
(g1036
g2
Ntp1562
Rp1563
(dp1564
g1040
(lp1565
g0
(g592
g2
Ntp1566
Rp1567
(dp1568
g596
Nsg597
(lp1569
g0
(g599
g2
Ntp1570
Rp1571
(dp1572
g596
Nsg603
g1441
sg615
(dp1573
S'RAF1'
p1574
Nssbasg617
I00
sbag0
(g592
g2
Ntp1575
Rp1576
(dp1577
g596
Nsg597
(lp1578
g0
(g599
g2
Ntp1579
Rp1580
(dp1581
g596
Nsg603
g781
sg615
(dp1582
S'KRT8'
p1583
Nssbasg617
I00
sbasbsg610
g969
sg1063
I01
sg1064
g0
(g1065
g2
Ntp1584
Rp1585
(dp1586
g1069
g0
(g1036
g2
Ntp1587
Rp1588
(dp1589
g1040
(lp1590
g0
(g592
g2
Ntp1591
Rp1592
(dp1593
g596
Nsg597
(lp1594
g0
(g599
g2
Ntp1595
Rp1596
(dp1597
g596
Nsg603
g1441
sg615
(dp1598
g1574
I1
ssbag0
(g599
g2
Ntp1599
Rp1600
(dp1601
g596
Nsg603
g781
sg615
(dp1602
g1583
I1
ssbasg617
I00
sbasbsg1035
g1563
sg1063
I01
sbsg1086
I00
sg612
I00
sg1069
g1588
sg1087
I00
sg1088
g930
sbag0
(g1030
g2
Ntp1603
Rp1604
(dp1605
g1034
g930
sg1035
g0
(g1036
g2
Ntp1606
Rp1607
(dp1608
g1040
(lp1609
g0
(g592
g2
Ntp1610
Rp1611
(dp1612
g596
Nsg597
(lp1613
g0
(g599
g2
Ntp1614
Rp1615
(dp1616
g596
Nsg603
g781
sg615
(dp1617
g810
Nssbasg617
I00
sbag0
(g592
g2
Ntp1618
Rp1619
(dp1620
g596
Nsg597
(lp1621
g0
(g599
g2
Ntp1622
Rp1623
(dp1624
g596
Nsg603
g0
(g604
g2
Ntp1625
Rp1626
(dp1627
g608
(dp1628
sg610
g810
sg612
I00
sg613
(lp1629
S'RAF1'
p1630
asbsg615
(dp1631
g1630
Nssbasg617
I00
sbasbsg610
g1007
sg1063
I01
sg1064
g0
(g1065
g2
Ntp1632
Rp1633
(dp1634
g1069
g0
(g1036
g2
Ntp1635
Rp1636
(dp1637
g1040
(lp1638
g0
(g592
g2
Ntp1639
Rp1640
(dp1641
g596
Nsg597
(lp1642
g0
(g599
g2
Ntp1643
Rp1644
(dp1645
g596
Nsg603
g781
sg615
(dp1646
g810
I1
ssbag0
(g599
g2
Ntp1647
Rp1648
(dp1649
g596
Nsg603
g1626
sg615
(dp1650
g1630
I1
ssbasg617
I00
sbasbsg1035
g1607
sg1063
I01
sbsg1086
I00
sg612
I00
sg1069
g1636
sg1087
I00
sg1088
g930
sbag0
(g1030
g2
Ntp1651
Rp1652
(dp1653
g1034
g930
sg1035
g0
(g1036
g2
Ntp1654
Rp1655
(dp1656
g1040
(lp1657
g0
(g592
g2
Ntp1658
Rp1659
(dp1660
g596
Nsg597
(lp1661
g0
(g599
g2
Ntp1662
Rp1663
(dp1664
g596
Nsg603
g781
sg615
(dp1665
g812
Nsg811
Nsg813
Nssbasg617
I00
sbag0
(g592
g2
Ntp1666
Rp1667
(dp1668
g596
Nsg597
(lp1669
g0
(g599
g2
Ntp1670
Rp1671
(dp1672
g596
Nsg603
g0
(g604
g2
Ntp1673
Rp1674
(dp1675
g608
(dp1676
sg610
g811
sg612
I00
sg613
(lp1677
g862
ag812
ag813
asbsg615
(dp1678
g812
Nsg862
Nsg813
Nssbasg617
I00
sbag0
(g592
g2
Ntp1679
Rp1680
(dp1681
g596
Nsg597
(lp1682
g0
(g599
g2
Ntp1683
Rp1684
(dp1685
g596
Nsg603
g851
sg615
(dp1686
g811
Nsg862
Nsg813
Nssbasg617
I00
sbag0
(g592
g2
Ntp1687
Rp1688
(dp1689
g596
Nsg597
(lp1690
g0
(g599
g2
Ntp1691
Rp1692
(dp1693
g596
Nsg603
g0
(g604
g2
Ntp1694
Rp1695
(dp1696
g608
(dp1697
sg610
g813
sg612
I00
sg613
(lp1698
g862
ag811
ag812
asbsg615
(dp1699
g811
Nsg812
Nsg862
Nssbasg617
I00
sbasbsg610
g1024
sg1063
I01
sg1064
g0
(g1065
g2
Ntp1700
Rp1701
(dp1702
g1069
g0
(g1036
g2
Ntp1703
Rp1704
(dp1705
g1040
(lp1706
g0
(g592
g2
Ntp1707
Rp1708
(dp1709
g596
Nsg597
(lp1710
g0
(g599
g2
Ntp1711
Rp1712
(dp1713
g596
Nsg603
g781
sg615
(dp1714
g812
I2
sg811
I1
sg813
I3
ssbag0
(g599
g2
Ntp1715
Rp1716
(dp1717
g596
Nsg603
g1674
sg615
(dp1718
g812
I4
sg862
I1
sg813
I5
ssbag0
(g599
g2
Ntp1719
Rp1720
(dp1721
g596
Nsg603
g851
sg615
(dp1722
g811
I4
sg862
I2
sg813
I6
ssbag0
(g599
g2
Ntp1723
Rp1724
(dp1725
g596
Nsg603
g1695
sg615
(dp1726
g811
I5
sg812
I6
sg862
I3
ssbasg617
I00
sbasbsg1035
g1655
sg1063
I01
sbsg1086
I00
sg612
I00
sg1069
g1704
sg1087
I00
sg1088
g930
sbag0
(g1030
g2
Ntp1727
Rp1728
(dp1729
g1034
g930
sg1035
g0
(g1036
g2
Ntp1730
Rp1731
(dp1732
g1040
(lp1733
g0
(g592
g2
Ntp1734
Rp1735
(dp1736
g596
Nsg597
(lp1737
g0
(g599
g2
Ntp1738
Rp1739
(dp1740
g596
Nsg603
g0
(g604
g2
Ntp1741
Rp1742
(dp1743
g608
(dp1744
sg610
S'LCP2'
p1745
sg612
I00
sg613
(lp1746
S'VAV1'
p1747
asbsg615
(dp1748
g1747
Nssbasg617
I00
sbag0
(g592
g2
Ntp1749
Rp1750
(dp1751
g596
Nsg597
(lp1752
g0
(g599
g2
Ntp1753
Rp1754
(dp1755
g596
Nsg603
g0
(g604
g2
Ntp1756
Rp1757
(dp1758
g608
(dp1759
sg610
g1747
sg612
I00
sg613
(lp1760
g1745
asbsg615
(dp1761
g1745
Nssbasg617
I00
sbasbsg610
g1015
sg1063
I01
sg1064
g0
(g1065
g2
Ntp1762
Rp1763
(dp1764
g1069
g0
(g1036
g2
Ntp1765
Rp1766
(dp1767
g1040
(lp1768
g0
(g592
g2
Ntp1769
Rp1770
(dp1771
g596
Nsg597
(lp1772
g0
(g599
g2
Ntp1773
Rp1774
(dp1775
g596
Nsg603
g1742
sg615
(dp1776
g1747
I1
ssbag0
(g599
g2
Ntp1777
Rp1778
(dp1779
g596
Nsg603
g1757
sg615
(dp1780
g1745
I1
ssbasg617
I00
sbasbsg1035
g1731
sg1063
I01
sbsg1086
I00
sg612
I00
sg1069
g1766
sg1087
I00
sg1088
g930
sbag0
(g1030
g2
Ntp1781
Rp1782
(dp1783
g1034
g930
sg1035
g0
(g1036
g2
Ntp1784
Rp1785
(dp1786
g1040
(lp1787
g0
(g592
g2
Ntp1788
Rp1789
(dp1790
g596
Nsg597
(lp1791
g0
(g599
g2
Ntp1792
Rp1793
(dp1794
g596
Nsg603
g0
(g604
g2
Ntp1795
Rp1796
(dp1797
g608
(dp1798
sg610
g814
sg612
I00
sg613
(lp1799
S'PRKCZ'
p1800
aS'RAF1'
p1801
asbsg615
(dp1802
g1800
Nsg1801
Nssbasg617
I00
sbag0
(g592
g2
Ntp1803
Rp1804
(dp1805
g596
Nsg597
(lp1806
g0
(g599
g2
Ntp1807
Rp1808
(dp1809
g596
Nsg603
g1376
sg615
(dp1810
g814
Nsg1801
Nssbasg617
I00
sbag0
(g592
g2
Ntp1811
Rp1812
(dp1813
g596
Nsg597
(lp1814
g0
(g599
g2
Ntp1815
Rp1816
(dp1817
g596
Nsg603
g781
sg615
(dp1818
g814
Nsg1800
Nssbasg617
I00
sbasbsg610
g1012
sg1063
I01
sg1064
g0
(g1065
g2
Ntp1819
Rp1820
(dp1821
g1069
g0
(g1036
g2
Ntp1822
Rp1823
(dp1824
g1040
(lp1825
g0
(g592
g2
Ntp1826
Rp1827
(dp1828
g596
Nsg597
(lp1829
g0
(g599
g2
Ntp1830
Rp1831
(dp1832
g596
Nsg603
g1796
sg615
(dp1833
g1800
I1
sg1801
I2
ssbag0
(g599
g2
Ntp1834
Rp1835
(dp1836
g596
Nsg603
g1376
sg615
(dp1837
g814
I1
sg1801
I3
ssbag0
(g599
g2
Ntp1838
Rp1839
(dp1840
g596
Nsg603
g781
sg615
(dp1841
g814
I2
sg1800
I3
ssbasg617
I00
sbasbsg1035
g1785
sg1063
I01
sbsg1086
I00
sg612
I00
sg1069
g1823
sg1087
I00
sg1088
g930
sbag0
(g1030
g2
Ntp1842
Rp1843
(dp1844
g1034
g930
sg1035
g0
(g1036
g2
Ntp1845
Rp1846
(dp1847
g1040
(lp1848
g0
(g592
g2
Ntp1849
Rp1850
(dp1851
g596
Nsg597
(lp1852
g0
(g599
g2
Ntp1853
Rp1854
(dp1855
g596
Nsg603
g0
(g604
g2
Ntp1856
Rp1857
(dp1858
g608
(dp1859
sg610
S'DAB2'
p1860
sg612
I00
sg613
(lp1861
S'GRB2'
p1862
asbsg615
(dp1863
g1862
Nssbasg617
I00
sbag0
(g592
g2
Ntp1864
Rp1865
(dp1866
g596
Nsg597
(lp1867
g0
(g599
g2
Ntp1868
Rp1869
(dp1870
g596
Nsg603
g0
(g604
g2
Ntp1871
Rp1872
(dp1873
g608
(dp1874
sg610
g1862
sg612
I00
sg613
(lp1875
g1860
ag664
aS'ACP1'
p1876
asbsg615
(dp1877
g1860
Nssbasg617
I00
sbasbsg610
g979
sg1063
I01
sg1064
g0
(g1065
g2
Ntp1878
Rp1879
(dp1880
g1069
g0
(g1036
g2
Ntp1881
Rp1882
(dp1883
g1040
(lp1884
g0
(g592
g2
Ntp1885
Rp1886
(dp1887
g596
Nsg597
(lp1888
g0
(g599
g2
Ntp1889
Rp1890
(dp1891
g596
Nsg603
g1857
sg615
(dp1892
g1862
I1
ssbag0
(g599
g2
Ntp1893
Rp1894
(dp1895
g596
Nsg603
g1872
sg615
(dp1896
g1860
I1
ssbasg617
I00
sbasbsg1035
g1846
sg1063
I01
sbsg1086
I00
sg612
I00
sg1069
g1882
sg1087
I00
sg1088
g930
sbag0
(g1030
g2
Ntp1897
Rp1898
(dp1899
g1034
g930
sg1035
g0
(g1036
g2
Ntp1900
Rp1901
(dp1902
g1040
(lp1903
g0
(g592
g2
Ntp1904
Rp1905
(dp1906
g596
Nsg597
(lp1907
g0
(g599
g2
Ntp1908
Rp1909
(dp1910
g596
Nsg603
g781
sg615
(dp1911
g815
Nssbasg617
I00
sbag0
(g592
g2
Ntp1912
Rp1913
(dp1914
g596
Nsg597
(lp1915
g0
(g599
g2
Ntp1916
Rp1917
(dp1918
g596
Nsg603
g0
(g604
g2
Ntp1919
Rp1920
(dp1921
g608
(dp1922
sg610
g815
sg612
I00
sg613
(lp1923
S'RAF1'
p1924
asbsg615
(dp1925
g1924
Nssbasg617
I00
sbasbsg610
g998
sg1063
I01
sg1064
g0
(g1065
g2
Ntp1926
Rp1927
(dp1928
g1069
g0
(g1036
g2
Ntp1929
Rp1930
(dp1931
g1040
(lp1932
g0
(g592
g2
Ntp1933
Rp1934
(dp1935
g596
Nsg597
(lp1936
g0
(g599
g2
Ntp1937
Rp1938
(dp1939
g596
Nsg603
g781
sg615
(dp1940
g815
I1
ssbag0
(g599
g2
Ntp1941
Rp1942
(dp1943
g596
Nsg603
g1920
sg615
(dp1944
g1924
I1
ssbasg617
I00
sbasbsg1035
g1901
sg1063
I01
sbsg1086
I00
sg612
I00
sg1069
g1930
sg1087
I00
sg1088
g930
sbag0
(g1030
g2
Ntp1945
Rp1946
(dp1947
g1034
g930
sg1035
g0
(g1036
g2
Ntp1948
Rp1949
(dp1950
g1040
(lp1951
g0
(g592
g2
Ntp1952
Rp1953
(dp1954
g596
Nsg597
(lp1955
g0
(g599
g2
Ntp1956
Rp1957
(dp1958
g596
Nsg603
g0
(g604
g2
Ntp1959
Rp1960
(dp1961
g608
(dp1962
sg610
S'ITGAV'
p1963
sg612
I00
sg613
(lp1964
S'ITGB3'
p1965
asbsg615
(dp1966
g1965
Nssbasg617
I00
sbag0
(g592
g2
Ntp1967
Rp1968
(dp1969
g596
Nsg597
(lp1970
g0
(g599
g2
Ntp1971
Rp1972
(dp1973
g596
Nsg603
g0
(g604
g2
Ntp1974
Rp1975
(dp1976
g608
(dp1977
sg610
g1965
sg612
I00
sg613
(lp1978
g1963
asbsg615
(dp1979
g1963
Nssbasg617
I00
sbasbsg610
g1027
sg1063
I01
sg1064
g0
(g1065
g2
Ntp1980
Rp1981
(dp1982
g1069
g0
(g1036
g2
Ntp1983
Rp1984
(dp1985
g1040
(lp1986
g0
(g592
g2
Ntp1987
Rp1988
(dp1989
g596
Nsg597
(lp1990
g0
(g599
g2
Ntp1991
Rp1992
(dp1993
g596
Nsg603
g1960
sg615
(dp1994
g1965
I1
ssbag0
(g599
g2
Ntp1995
Rp1996
(dp1997
g596
Nsg603
g1975
sg615
(dp1998
g1963
I1
ssbasg617
I00
sbasbsg1035
g1949
sg1063
I01
sbsg1086
I00
sg612
I00
sg1069
g1984
sg1087
I00
sg1088
g930
sbag0
(g1030
g2
Ntp1999
Rp2000
(dp2001
g1034
g930
sg1035
g0
(g1036
g2
Ntp2002
Rp2003
(dp2004
g1040
(lp2005
g0
(g592
g2
Ntp2006
Rp2007
(dp2008
g596
Nsg597
(lp2009
g0
(g599
g2
Ntp2010
Rp2011
(dp2012
g596
Nsg603
g0
(g604
g2
Ntp2013
Rp2014
(dp2015
g608
(dp2016
sg610
S'ESTRADIOL'
p2017
sg612
I00
sg613
(lp2018
S'ESR1'
p2019
aS'GPER'
p2020
asbsg615
(dp2021
g2019
Nssbasg617
I00
sbag0
(g592
g2
Ntp2022
Rp2023
(dp2024
g596
Nsg597
(lp2025
g0
(g599
g2
Ntp2026
Rp2027
(dp2028
g596
Nsg603
g0
(g604
g2
Ntp2029
Rp2030
(dp2031
g608
(dp2032
sg610
g2019
sg612
I00
sg613
(lp2033
g2017
asbsg615
(dp2034
g2017
Nssbasg617
I00
sbasbsg610
g970
sg1063
I01
sg1064
g0
(g1065
g2
Ntp2035
Rp2036
(dp2037
g1069
g0
(g1036
g2
Ntp2038
Rp2039
(dp2040
g1040
(lp2041
g0
(g592
g2
Ntp2042
Rp2043
(dp2044
g596
Nsg597
(lp2045
g0
(g599
g2
Ntp2046
Rp2047
(dp2048
g596
Nsg603
g2014
sg615
(dp2049
g2019
I1
ssbag0
(g599
g2
Ntp2050
Rp2051
(dp2052
g596
Nsg603
g2030
sg615
(dp2053
g2017
I1
ssbasg617
I00
sbasbsg1035
g2003
sg1063
I01
sbsg1086
I00
sg612
I00
sg1069
g2039
sg1087
I00
sg1088
g930
sbag0
(g1030
g2
Ntp2054
Rp2055
(dp2056
g1034
g930
sg1035
g0
(g1036
g2
Ntp2057
Rp2058
(dp2059
g1040
(lp2060
g0
(g592
g2
Ntp2061
Rp2062
(dp2063
g596
Nsg597
(lp2064
g0
(g599
g2
Ntp2065
Rp2066
(dp2067
g596
Nsg603
g781
sg615
(dp2068
S'PRKCZ'
p2069
Nssbasg617
I00
sbag0
(g592
g2
Ntp2070
Rp2071
(dp2072
g596
Nsg597
(lp2073
g0
(g599
g2
Ntp2074
Rp2075
(dp2076
g596
Nsg603
g1376
sg615
(dp2077
S'RAF1'
p2078
Nssbasg617
I00
sbasbsg610
g1004
sg1063
I01
sg1064
g0
(g1065
g2
Ntp2079
Rp2080
(dp2081
g1069
g0
(g1036
g2
Ntp2082
Rp2083
(dp2084
g1040
(lp2085
g0
(g592
g2
Ntp2086
Rp2087
(dp2088
g596
Nsg597
(lp2089
g0
(g599
g2
Ntp2090
Rp2091
(dp2092
g596
Nsg603
g781
sg615
(dp2093
g2069
I1
ssbag0
(g599
g2
Ntp2094
Rp2095
(dp2096
g596
Nsg603
g1376
sg615
(dp2097
g2078
I1
ssbasg617
I00
sbasbsg1035
g2058
sg1063
I01
sbsg1086
I00
sg612
I00
sg1069
g2083
sg1087
I00
sg1088
g930
sbag0
(g1030
g2
Ntp2098
Rp2099
(dp2100
g1034
g930
sg1035
g0
(g1036
g2
Ntp2101
Rp2102
(dp2103
g1040
(lp2104
g0
(g592
g2
Ntp2105
Rp2106
(dp2107
g596
Nsg597
(lp2108
g0
(g599
g2
Ntp2109
Rp2110
(dp2111
g596
Nsg603
g0
(g604
g2
Ntp2112
Rp2113
(dp2114
g608
(dp2115
sg610
g836
sg612
I00
sg613
(lp2116
g834
asbsg615
(dp2117
g834
Nssbasg617
I00
sbag0
(g592
g2
Ntp2118
Rp2119
(dp2120
g596
Nsg597
(lp2121
g0
(g599
g2
Ntp2122
Rp2123
(dp2124
g596
Nsg603
g826
sg615
(dp2125
g836
Nssbasg617
I00
sbasbsg610
g1017
sg1063
I01
sg1064
g0
(g1065
g2
Ntp2126
Rp2127
(dp2128
g1069
g0
(g1036
g2
Ntp2129
Rp2130
(dp2131
g1040
(lp2132
g0
(g592
g2
Ntp2133
Rp2134
(dp2135
g596
Nsg597
(lp2136
g0
(g599
g2
Ntp2137
Rp2138
(dp2139
g596
Nsg603
g2113
sg615
(dp2140
g834
I1
ssbag0
(g599
g2
Ntp2141
Rp2142
(dp2143
g596
Nsg603
g826
sg615
(dp2144
g836
I1
ssbasg617
I00
sbasbsg1035
g2102
sg1063
I01
sbsg1086
I00
sg612
I00
sg1069
g2130
sg1087
I00
sg1088
g930
sbag0
(g1030
g2
Ntp2145
Rp2146
(dp2147
g1034
g930
sg1035
g0
(g1036
g2
Ntp2148
Rp2149
(dp2150
g1040
(lp2151
g0
(g592
g2
Ntp2152
Rp2153
(dp2154
g596
Nsg597
(lp2155
g0
(g599
g2
Ntp2156
Rp2157
(dp2158
g596
Nsg603
g2014
sg615
(dp2159
g2020
Nssbasg617
I00
sbag0
(g592
g2
Ntp2160
Rp2161
(dp2162
g596
Nsg597
(lp2163
g0
(g599
g2
Ntp2164
Rp2165
(dp2166
g596
Nsg603
g0
(g604
g2
Ntp2167
Rp2168
(dp2169
g608
(dp2170
sg610
g2020
sg612
I00
sg613
(lp2171
S'ESTRADIOL'
p2172
asbsg615
(dp2173
g2172
Nssbasg617
I00
sbasbsg610
g965
sg1063
I01
sg1064
g0
(g1065
g2
Ntp2174
Rp2175
(dp2176
g1069
g0
(g1036
g2
Ntp2177
Rp2178
(dp2179
g1040
(lp2180
g0
(g592
g2
Ntp2181
Rp2182
(dp2183
g596
Nsg597
(lp2184
g0
(g599
g2
Ntp2185
Rp2186
(dp2187
g596
Nsg603
g2014
sg615
(dp2188
g2020
I1
ssbag0
(g599
g2
Ntp2189
Rp2190
(dp2191
g596
Nsg603
g2168
sg615
(dp2192
g2172
I1
ssbasg617
I00
sbasbsg1035
g2149
sg1063
I01
sbsg1086
I00
sg612
I00
sg1069
g2178
sg1087
I00
sg1088
g930
sbag0
(g1030
g2
Ntp2193
Rp2194
(dp2195
g1034
g930
sg1035
g0
(g1036
g2
Ntp2196
Rp2197
(dp2198
g1040
(lp2199
g0
(g592
g2
Ntp2200
Rp2201
(dp2202
g596
Nsg597
(lp2203
g0
(g599
g2
Ntp2204
Rp2205
(dp2206
g596
Nsg603
g0
(g604
g2
Ntp2207
Rp2208
(dp2209
g608
(dp2210
sg610
S'KITLG'
p2211
sg612
I00
sg613
(lp2212
S'KIT'
p2213
asbsg615
(dp2214
g2213
Nssbasg617
I00
sbag0
(g592
g2
Ntp2215
Rp2216
(dp2217
g596
Nsg597
(lp2218
g0
(g599
g2
Ntp2219
Rp2220
(dp2221
g596
Nsg603
g0
(g604
g2
Ntp2222
Rp2223
(dp2224
g608
(dp2225
sg610
g2213
sg612
I00
sg613
(lp2226
g2211
asbsg615
(dp2227
g2211
Nssbasg617
I00
sbasbsg610
g994
sg1063
I01
sg1064
g0
(g1065
g2
Ntp2228
Rp2229
(dp2230
g1069
g0
(g1036
g2
Ntp2231
Rp2232
(dp2233
g1040
(lp2234
g0
(g592
g2
Ntp2235
Rp2236
(dp2237
g596
Nsg597
(lp2238
g0
(g599
g2
Ntp2239
Rp2240
(dp2241
g596
Nsg603
g2208
sg615
(dp2242
g2213
I1
ssbag0
(g599
g2
Ntp2243
Rp2244
(dp2245
g596
Nsg603
g2223
sg615
(dp2246
g2211
I1
ssbasg617
I00
sbasbsg1035
g2197
sg1063
I01
sbsg1086
I00
sg612
I00
sg1069
g2232
sg1087
I00
sg1088
g930
sbag0
(g1030
g2
Ntp2247
Rp2248
(dp2249
g1034
g930
sg1035
g0
(g1036
g2
Ntp2250
Rp2251
(dp2252
g1040
(lp2253
g0
(g592
g2
Ntp2254
Rp2255
(dp2256
g596
Nsg597
(lp2257
g0
(g599
g2
Ntp2258
Rp2259
(dp2260
g596
Nsg603
g0
(g604
g2
Ntp2261
Rp2262
(dp2263
g608
(dp2264
sg610
S'CD74'
p2265
sg612
I00
sg613
(lp2266
S'MIF'
p2267
asbsg615
(dp2268
g2267
Nssbasg617
I00
sbag0
(g592
g2
Ntp2269
Rp2270
(dp2271
g596
Nsg597
(lp2272
g0
(g599
g2
Ntp2273
Rp2274
(dp2275
g596
Nsg603
g0
(g604
g2
Ntp2276
Rp2277
(dp2278
g608
(dp2279
sg610
g2267
sg612
I00
sg613
(lp2280
g2265
asbsg615
(dp2281
g2265
Nssbasg617
I00
sbasbsg610
g1018
sg1063
I01
sg1064
g0
(g1065
g2
Ntp2282
Rp2283
(dp2284
g1069
g0
(g1036
g2
Ntp2285
Rp2286
(dp2287
g1040
(lp2288
g0
(g592
g2
Ntp2289
Rp2290
(dp2291
g596
Nsg597
(lp2292
g0
(g599
g2
Ntp2293
Rp2294
(dp2295
g596
Nsg603
g2262
sg615
(dp2296
g2267
I1
ssbag0
(g599
g2
Ntp2297
Rp2298
(dp2299
g596
Nsg603
g2277
sg615
(dp2300
g2265
I1
ssbasg617
I00
sbasbsg1035
g2251
sg1063
I01
sbsg1086
I00
sg612
I00
sg1069
g2286
sg1087
I00
sg1088
g930
sbag0
(g1030
g2
Ntp2301
Rp2302
(dp2303
g1034
g930
sg1035
g0
(g1036
g2
Ntp2304
Rp2305
(dp2306
g1040
(lp2307
g0
(g592
g2
Ntp2308
Rp2309
(dp2310
g596
Nsg597
(lp2311
g0
(g599
g2
Ntp2312
Rp2313
(dp2314
g596
Nsg603
g0
(g604
g2
Ntp2315
Rp2316
(dp2317
g608
(dp2318
sg610
S'CREB1'
p2319
sg612
I00
sg613
(lp2320
S'CREBBP'
p2321
asbsg615
(dp2322
g2321
Nssbasg617
I00
sbag0
(g592
g2
Ntp2323
Rp2324
(dp2325
g596
Nsg597
(lp2326
g0
(g599
g2
Ntp2327
Rp2328
(dp2329
g596
Nsg603
g0
(g604
g2
Ntp2330
Rp2331
(dp2332
g608
(dp2333
sg610
g2321
sg612
I00
sg613
(lp2334
g2319
asbsg615
(dp2335
g2319
Nssbasg617
I00
sbasbsg610
g1005
sg1063
I01
sg1064
g0
(g1065
g2
Ntp2336
Rp2337
(dp2338
g1069
g0
(g1036
g2
Ntp2339
Rp2340
(dp2341
g1040
(lp2342
g0
(g592
g2
Ntp2343
Rp2344
(dp2345
g596
Nsg597
(lp2346
g0
(g599
g2
Ntp2347
Rp2348
(dp2349
g596
Nsg603
g2316
sg615
(dp2350
g2321
I1
ssbag0
(g599
g2
Ntp2351
Rp2352
(dp2353
g596
Nsg603
g2331
sg615
(dp2354
g2319
I1
ssbasg617
I00
sbasbsg1035
g2305
sg1063
I01
sbsg1086
I00
sg612
I00
sg1069
g2340
sg1087
I00
sg1088
g930
sbag0
(g1030
g2
Ntp2355
Rp2356
(dp2357
g1034
g930
sg1035
g0
(g1036
g2
Ntp2358
Rp2359
(dp2360
g1040
(lp2361
g0
(g592
g2
Ntp2362
Rp2363
(dp2364
g596
Nsg597
(lp2365
g0
(g599
g2
Ntp2366
Rp2367
(dp2368
g596
Nsg603
g1872
sg615
(dp2369
g664
Nssbasg617
I00
sbag0
(g592
g2
Ntp2370
Rp2371
(dp2372
g596
Nsg597
(lp2373
g0
(g599
g2
Ntp2374
Rp2375
(dp2376
g596
Nsg603
g657
sg615
(dp2377
g666
Nssbasg617
I00
sbasbsg610
g974
sg1063
I01
sg1064
g0
(g1065
g2
Ntp2378
Rp2379
(dp2380
g1069
g0
(g1036
g2
Ntp2381
Rp2382
(dp2383
g1040
(lp2384
g0
(g592
g2
Ntp2385
Rp2386
(dp2387
g596
Nsg597
(lp2388
g0
(g599
g2
Ntp2389
Rp2390
(dp2391
g596
Nsg603
g1872
sg615
(dp2392
g664
I1
ssbag0
(g599
g2
Ntp2393
Rp2394
(dp2395
g596
Nsg603
g657
sg615
(dp2396
g666
I1
ssbasg617
I00
sbasbsg1035
g2359
sg1063
I01
sbsg1086
I00
sg612
I00
sg1069
g2382
sg1087
I00
sg1088
g930
sbag0
(g1030
g2
Ntp2397
Rp2398
(dp2399
g1034
g930
sg1035
g0
(g1036
g2
Ntp2400
Rp2401
(dp2402
g1040
(lp2403
g0
(g592
g2
Ntp2404
Rp2405
(dp2406
g596
Nsg597
(lp2407
g0
(g599
g2
Ntp2408
Rp2409
(dp2410
g596
Nsg603
g1872
sg615
(dp2411
g1876
Nssbasg617
I00
sbag0
(g592
g2
Ntp2412
Rp2413
(dp2414
g596
Nsg597
(lp2415
g0
(g599
g2
Ntp2416
Rp2417
(dp2418
g596
Nsg603
g0
(g604
g2
Ntp2419
Rp2420
(dp2421
g608
(dp2422
sg610
g1876
sg612
I00
sg613
(lp2423
S'GRB2'
p2424
asbsg615
(dp2425
g2424
Nssbasg617
I00
sbasbsg610
g968
sg1063
I01
sg1064
g0
(g1065
g2
Ntp2426
Rp2427
(dp2428
g1069
g0
(g1036
g2
Ntp2429
Rp2430
(dp2431
g1040
(lp2432
g0
(g592
g2
Ntp2433
Rp2434
(dp2435
g596
Nsg597
(lp2436
g0
(g599
g2
Ntp2437
Rp2438
(dp2439
g596
Nsg603
g1872
sg615
(dp2440
g1876
I1
ssbag0
(g599
g2
Ntp2441
Rp2442
(dp2443
g596
Nsg603
g2420
sg615
(dp2444
g2424
I1
ssbasg617
I00
sbasbsg1035
g2401
sg1063
I01
sbsg1086
I00
sg612
I00
sg1069
g2430
sg1087
I00
sg1088
g930
sbag0
(g1030
g2
Ntp2445
Rp2446
(dp2447
g1034
g930
sg1035
g0
(g1036
g2
Ntp2448
Rp2449
(dp2450
g1040
(lp2451
g0
(g592
g2
Ntp2452
Rp2453
(dp2454
g596
Nsg597
(lp2455
g0
(g599
g2
Ntp2456
Rp2457
(dp2458
g596
Nsg603
g0
(g604
g2
Ntp2459
Rp2460
(dp2461
g608
(dp2462
sg610
g642
sg612
I00
sg613
(lp2463
g640
asbsg615
(dp2464
g640
Nssbasg617
I00
sbag0
(g592
g2
Ntp2465
Rp2466
(dp2467
g596
Nsg597
(lp2468
g0
(g599
g2
Ntp2469
Rp2470
(dp2471
g596
Nsg603
g633
sg615
(dp2472
g642
Nssbasg617
I00
sbasbsg610
g1013
sg1063
I01
sg1064
g0
(g1065
g2
Ntp2473
Rp2474
(dp2475
g1069
g0
(g1036
g2
Ntp2476
Rp2477
(dp2478
g1040
(lp2479
g0
(g592
g2
Ntp2480
Rp2481
(dp2482
g596
Nsg597
(lp2483
g0
(g599
g2
Ntp2484
Rp2485
(dp2486
g596
Nsg603
g2460
sg615
(dp2487
g640
I1
ssbag0
(g599
g2
Ntp2488
Rp2489
(dp2490
g596
Nsg603
g633
sg615
(dp2491
g642
I1
ssbasg617
I00
sbasbsg1035
g2449
sg1063
I01
sbsg1086
I00
sg612
I00
sg1069
g2477
sg1087
I00
sg1088
g930
sbag0
(g1030
g2
Ntp2492
Rp2493
(dp2494
g1034
g930
sg1035
g0
(g1036
g2
Ntp2495
Rp2496
(dp2497
g1040
(lp2498
g0
(g592
g2
Ntp2499
Rp2500
(dp2501
g596
Nsg597
(lp2502
g0
(g599
g2
Ntp2503
Rp2504
(dp2505
g596
Nsg603
g681
sg615
(dp2506
g689
Nssbasg617
I00
sbag0
(g592
g2
Ntp2507
Rp2508
(dp2509
g596
Nsg597
(lp2510
g0
(g599
g2
Ntp2511
Rp2512
(dp2513
g596
Nsg603
g0
(g604
g2
Ntp2514
Rp2515
(dp2516
g608
(dp2517
sg610
g689
sg612
I00
sg613
(lp2518
S'HRAS'
p2519
asbsg615
(dp2520
g2519
Nssbasg617
I00
sbasbsg610
g991
sg1063
I01
sg1064
g0
(g1065
g2
Ntp2521
Rp2522
(dp2523
g1069
g0
(g1036
g2
Ntp2524
Rp2525
(dp2526
g1040
(lp2527
g0
(g592
g2
Ntp2528
Rp2529
(dp2530
g596
Nsg597
(lp2531
g0
(g599
g2
Ntp2532
Rp2533
(dp2534
g596
Nsg603
g681
sg615
(dp2535
g689
I1
ssbag0
(g599
g2
Ntp2536
Rp2537
(dp2538
g596
Nsg603
g2515
sg615
(dp2539
g2519
I1
ssbasg617
I00
sbasbsg1035
g2496
sg1063
I01
sbsg1086
I00
sg612
I00
sg1069
g2525
sg1087
I00
sg1088
g930
sbag0
(g1030
g2
Ntp2540
Rp2541
(dp2542
g1034
g933
sg1035
g0
(g1036
g2
Ntp2543
Rp2544
(dp2545
g1040
(lp2546
g0
(g592
g2
Ntp2547
Rp2548
(dp2549
g596
Nsg597
(lp2550
g0
(g599
g2
Ntp2551
Rp2552
(dp2553
g596
Nsg603
g0
(g604
g2
Ntp2554
Rp2555
(dp2556
g608
(dp2557
g794
(lp2558
S'inactive'
p2559
aS'active'
p2560
assg610
S'JAK1'
p2561
sg612
I00
sg613
(lp2562
g794
asbsg615
(dp2563
g794
g888
ssbasg617
I00
sbag0
(g592
g2
Ntp2564
Rp2565
(dp2566
g596
Nsg597
(lp2567
g0
(g599
g2
Ntp2568
Rp2569
(dp2570
g596
Nsg603
g781
sg615
(dp2571
S'Y341'
p2572
g786
ssbasg617
I00
sbasbsg610
g1011
sg1063
I00
sg1064
g0
(g1065
g2
Ntp2573
Rp2574
(dp2575
g1069
g0
(g1036
g2
Ntp2576
Rp2577
(dp2578
g1040
(lp2579
g0
(g592
g2
Ntp2580
Rp2581
(dp2582
g596
Nsg597
(lp2583
g0
(g599
g2
Ntp2584
Rp2585
(dp2586
g596
Nsg603
g2555
sg615
(dp2587
g794
g888
ssbasg617
I00
sbag0
(g592
g2
Ntp2588
Rp2589
(dp2590
g596
Nsg597
(lp2591
g0
(g599
g2
Ntp2592
Rp2593
(dp2594
g596
Nsg603
g781
sg615
(dp2595
g2572
g787
ssbasg617
I00
sbasbsg1035
g2544
sg1063
I00
sbsg1086
I00
sg612
I00
sg1069
g2577
sg1087
I00
sg1088
Nsbag0
(g1030
g2
Ntp2596
Rp2597
(dp2598
g1034
g933
sg1035
g0
(g1036
g2
Ntp2599
Rp2600
(dp2601
g1040
(lp2602
g0
(g592
g2
Ntp2603
Rp2604
(dp2605
g596
Nsg597
(lp2606
g0
(g599
g2
Ntp2607
Rp2608
(dp2609
g596
Nsg603
g0
(g604
g2
Ntp2610
Rp2611
(dp2612
g608
(dp2613
g794
(lp2614
g2559
ag2560
assg610
S'PRKC_FAMILY'
p2615
sg612
I00
sg613
(lp2616
g794
asbsg615
(dp2617
g794
g888
ssbasg617
I00
sbag0
(g592
g2
Ntp2618
Rp2619
(dp2620
g596
Nsg597
(lp2621
g0
(g599
g2
Ntp2622
Rp2623
(dp2624
g596
Nsg603
g781
sg615
(dp2625
S'S499'
p2626
g786
ssbasg617
I00
sbasbsg610
g978
sg1063
I00
sg1064
g0
(g1065
g2
Ntp2627
Rp2628
(dp2629
g1069
g0
(g1036
g2
Ntp2630
Rp2631
(dp2632
g1040
(lp2633
g0
(g592
g2
Ntp2634
Rp2635
(dp2636
g596
Nsg597
(lp2637
g0
(g599
g2
Ntp2638
Rp2639
(dp2640
g596
Nsg603
g2611
sg615
(dp2641
g794
g888
ssbasg617
I00
sbag0
(g592
g2
Ntp2642
Rp2643
(dp2644
g596
Nsg597
(lp2645
g0
(g599
g2
Ntp2646
Rp2647
(dp2648
g596
Nsg603
g781
sg615
(dp2649
g2626
g787
ssbasg617
I00
sbasbsg1035
g2600
sg1063
I00
sbsg1086
I00
sg612
I00
sg1069
g2631
sg1087
I00
sg1088
Nsbag0
(g1030
g2
Ntp2650
Rp2651
(dp2652
g1034
g933
sg1035
g0
(g1036
g2
Ntp2653
Rp2654
(dp2655
g1040
(lp2656
g0
(g592
g2
Ntp2657
Rp2658
(dp2659
g596
Nsg597
(lp2660
g0
(g599
g2
Ntp2661
Rp2662
(dp2663
g596
Nsg603
g0
(g604
g2
Ntp2664
Rp2665
(dp2666
g608
(dp2667
g794
(lp2668
g2559
ag2560
assg610
S'PRKA_FAMILY'
p2669
sg612
I00
sg613
(lp2670
g794
asbsg615
(dp2671
g794
g888
ssbasg617
I00
sbag0
(g592
g2
Ntp2672
Rp2673
(dp2674
g596
Nsg597
(lp2675
g0
(g599
g2
Ntp2676
Rp2677
(dp2678
g596
Nsg603
g781
sg615
(dp2679
S'S43'
p2680
g786
ssbasg617
I00
sbasbsg610
g982
sg1063
I00
sg1064
g0
(g1065
g2
Ntp2681
Rp2682
(dp2683
g1069
g0
(g1036
g2
Ntp2684
Rp2685
(dp2686
g1040
(lp2687
g0
(g592
g2
Ntp2688
Rp2689
(dp2690
g596
Nsg597
(lp2691
g0
(g599
g2
Ntp2692
Rp2693
(dp2694
g596
Nsg603
g2665
sg615
(dp2695
g794
g888
ssbasg617
I00
sbag0
(g592
g2
Ntp2696
Rp2697
(dp2698
g596
Nsg597
(lp2699
g0
(g599
g2
Ntp2700
Rp2701
(dp2702
g596
Nsg603
g781
sg615
(dp2703
g2680
g787
ssbasg617
I00
sbasbsg1035
g2654
sg1063
I00
sbsg1086
I00
sg612
I00
sg1069
g2685
sg1087
I00
sg1088
Nsbag0
(g1030
g2
Ntp2704
Rp2705
(dp2706
g1034
g933
sg1035
g0
(g1036
g2
Ntp2707
Rp2708
(dp2709
g1040
(lp2710
g0
(g592
g2
Ntp2711
Rp2712
(dp2713
g596
Nsg597
(lp2714
g0
(g599
g2
Ntp2715
Rp2716
(dp2717
g596
Nsg603
g0
(g604
g2
Ntp2718
Rp2719
(dp2720
g608
(dp2721
g794
(lp2722
g2559
ag2560
assg610
S'P2_FAMILY'
p2723
sg612
I00
sg613
(lp2724
g794
asbsg615
(dp2725
g794
g888
ssbasg617
I00
sbag0
(g592
g2
Ntp2726
Rp2727
(dp2728
g596
Nsg597
(lp2729
g0
(g599
g2
Ntp2730
Rp2731
(dp2732
g596
Nsg603
g826
sg615
(dp2733
S'T25'
p2734
g786
ssbasg617
I00
sbasbsg610
g1006
sg1063
I00
sg1064
g0
(g1065
g2
Ntp2735
Rp2736
(dp2737
g1069
g0
(g1036
g2
Ntp2738
Rp2739
(dp2740
g1040
(lp2741
g0
(g592
g2
Ntp2742
Rp2743
(dp2744
g596
Nsg597
(lp2745
g0
(g599
g2
Ntp2746
Rp2747
(dp2748
g596
Nsg603
g2719
sg615
(dp2749
g794
g888
ssbasg617
I00
sbag0
(g592
g2
Ntp2750
Rp2751
(dp2752
g596
Nsg597
(lp2753
g0
(g599
g2
Ntp2754
Rp2755
(dp2756
g596
Nsg603
g826
sg615
(dp2757
g2734
g787
ssbasg617
I00
sbasbsg1035
g2708
sg1063
I00
sbsg1086
I00
sg612
I00
sg1069
g2739
sg1087
I00
sg1088
Nsbag0
(g1030
g2
Ntp2758
Rp2759
(dp2760
g1034
g933
sg1035
g0
(g1036
g2
Ntp2761
Rp2762
(dp2763
g1040
(lp2764
g0
(g592
g2
Ntp2765
Rp2766
(dp2767
g596
Nsg597
(lp2768
g0
(g599
g2
Ntp2769
Rp2770
(dp2771
g596
Nsg603
g0
(g604
g2
Ntp2772
Rp2773
(dp2774
g608
(dp2775
g794
(lp2776
g2559
ag2560
assg610
S'SRC'
p2777
sg612
I00
sg613
(lp2778
g794
asbsg615
(dp2779
g794
g888
ssbasg617
I00
sbag0
(g592
g2
Ntp2780
Rp2781
(dp2782
g596
Nsg597
(lp2783
g0
(g599
g2
Ntp2784
Rp2785
(dp2786
g596
Nsg603
g781
sg615
(dp2787
S'Y340'
p2788
g786
ssbasg617
I00
sbasbsg610
g993
sg1063
I00
sg1064
g0
(g1065
g2
Ntp2789
Rp2790
(dp2791
g1069
g0
(g1036
g2
Ntp2792
Rp2793
(dp2794
g1040
(lp2795
g0
(g592
g2
Ntp2796
Rp2797
(dp2798
g596
Nsg597
(lp2799
g0
(g599
g2
Ntp2800
Rp2801
(dp2802
g596
Nsg603
g2773
sg615
(dp2803
g794
g888
ssbasg617
I00
sbag0
(g592
g2
Ntp2804
Rp2805
(dp2806
g596
Nsg597
(lp2807
g0
(g599
g2
Ntp2808
Rp2809
(dp2810
g596
Nsg603
g781
sg615
(dp2811
g2788
g787
ssbasg617
I00
sbasbsg1035
g2762
sg1063
I00
sbsg1086
I00
sg612
I00
sg1069
g2793
sg1087
I00
sg1088
Nsbag0
(g1030
g2
Ntp2812
Rp2813
(dp2814
g1034
g933
sg1035
g0
(g1036
g2
Ntp2815
Rp2816
(dp2817
g1040
(lp2818
g0
(g592
g2
Ntp2819
Rp2820
(dp2821
g596
Nsg597
(lp2822
g0
(g599
g2
Ntp2823
Rp2824
(dp2825
g596
Nsg603
g0
(g604
g2
Ntp2826
Rp2827
(dp2828
g608
(dp2829
g794
(lp2830
g2559
ag2560
assg610
S'AKT_FAMILY'
p2831
sg612
I00
sg613
(lp2832
g794
asbsg615
(dp2833
g794
g888
ssbasg617
I00
sbag0
(g592
g2
Ntp2834
Rp2835
(dp2836
g596
Nsg597
(lp2837
g0
(g599
g2
Ntp2838
Rp2839
(dp2840
g596
Nsg603
g781
sg615
(dp2841
S'S259'
p2842
g786
ssbasg617
I00
sbasbsg610
g985
sg1063
I00
sg1064
g0
(g1065
g2
Ntp2843
Rp2844
(dp2845
g1069
g0
(g1036
g2
Ntp2846
Rp2847
(dp2848
g1040
(lp2849
g0
(g592
g2
Ntp2850
Rp2851
(dp2852
g596
Nsg597
(lp2853
g0
(g599
g2
Ntp2854
Rp2855
(dp2856
g596
Nsg603
g2827
sg615
(dp2857
g794
g888
ssbasg617
I00
sbag0
(g592
g2
Ntp2858
Rp2859
(dp2860
g596
Nsg597
(lp2861
g0
(g599
g2
Ntp2862
Rp2863
(dp2864
g596
Nsg603
g781
sg615
(dp2865
g2842
g787
ssbasg617
I00
sbasbsg1035
g2816
sg1063
I00
sbsg1086
I00
sg612
I00
sg1069
g2847
sg1087
I00
sg1088
Nsbag0
(g1030
g2
Ntp2866
Rp2867
(dp2868
g1034
g933
sg1035
g0
(g1036
g2
Ntp2869
Rp2870
(dp2871
g1040
(lp2872
g0
(g592
g2
Ntp2873
Rp2874
(dp2875
g596
Nsg597
(lp2876
g0
(g599
g2
Ntp2877
Rp2878
(dp2879
g596
Nsg603
g0
(g604
g2
Ntp2880
Rp2881
(dp2882
g608
(dp2883
g794
(lp2884
g2559
ag2560
assg610
S'RET'
p2885
sg612
I00
sg613
(lp2886
g794
asbsg615
(dp2887
g794
g888
ssbasg617
I00
sbag0
(g592
g2
Ntp2888
Rp2889
(dp2890
g596
Nsg597
(lp2891
g0
(g599
g2
Ntp2892
Rp2893
(dp2894
g596
Nsg603
g851
sg615
(dp2895
S'Y187'
p2896
g786
ssbasg617
I00
sbasbsg610
g1002
sg1063
I00
sg1064
g0
(g1065
g2
Ntp2897
Rp2898
(dp2899
g1069
g0
(g1036
g2
Ntp2900
Rp2901
(dp2902
g1040
(lp2903
g0
(g592
g2
Ntp2904
Rp2905
(dp2906
g596
Nsg597
(lp2907
g0
(g599
g2
Ntp2908
Rp2909
(dp2910
g596
Nsg603
g2881
sg615
(dp2911
g794
g888
ssbasg617
I00
sbag0
(g592
g2
Ntp2912
Rp2913
(dp2914
g596
Nsg597
(lp2915
g0
(g599
g2
Ntp2916
Rp2917
(dp2918
g596
Nsg603
g851
sg615
(dp2919
g2896
g787
ssbasg617
I00
sbasbsg1035
g2870
sg1063
I00
sbsg1086
I00
sg612
I00
sg1069
g2901
sg1087
I00
sg1088
Nsbag0
(g1030
g2
Ntp2920
Rp2921
(dp2922
g1034
g936
sg1035
g0
(g1036
g2
Ntp2923
Rp2924
(dp2925
g1040
(lp2926
g0
(g592
g2
Ntp2927
Rp2928
(dp2929
g596
Nsg597
(lp2930
g0
(g599
g2
Ntp2931
Rp2932
(dp2933
g596
Nsg603
g0
(g604
g2
Ntp2934
Rp2935
(dp2936
g608
(dp2937
sg610
S'DUSP4'
p2938
sg612
I00
sg613
(lp2939
sbsg615
(dp2940
sbasg617
I00
sbag0
(g592
g2
Ntp2941
Rp2942
(dp2943
g596
Nsg597
(lp2944
g0
(g599
g2
Ntp2945
Rp2946
(dp2947
g596
Nsg603
g851
sg615
(dp2948
S'T185'
p2949
g787
ssbasg617
I00
sbasbsg610
g1021
sg1063
I00
sg1064
g0
(g1065
g2
Ntp2950
Rp2951
(dp2952
g1069
g0
(g1036
g2
Ntp2953
Rp2954
(dp2955
g1040
(lp2956
g0
(g592
g2
Ntp2957
Rp2958
(dp2959
g596
Nsg597
(lp2960
g0
(g599
g2
Ntp2961
Rp2962
(dp2963
g596
Nsg603
g2935
sg615
(dp2964
sbasg617
I00
sbag0
(g592
g2
Ntp2965
Rp2966
(dp2967
g596
Nsg597
(lp2968
g0
(g599
g2
Ntp2969
Rp2970
(dp2971
g596
Nsg603
g851
sg615
(dp2972
g2949
g786
ssbasg617
I00
sbasbsg1035
g2924
sg1063
I00
sbsg1086
I00
sg612
I00
sg1069
g2954
sg1087
I00
sg1088
Nsbag0
(g1030
g2
Ntp2973
Rp2974
(dp2975
g1034
g939
sg1035
g0
(g1036
g2
Ntp2976
Rp2977
(dp2978
g1040
(lp2979
g0
(g592
g2
Ntp2980
Rp2981
(dp2982
g596
Nsg597
(lp2983
g0
(g599
g2
Ntp2984
Rp2985
(dp2986
g596
Nsg603
g826
sg615
(dp2987
S'S'
p2988
g787
sg794
g2559
ssbasg617
I00
sbasbsg610
g996
sg1063
I00
sg1064
g0
(g1065
g2
Ntp2989
Rp2990
(dp2991
g1069
g0
(g1036
g2
Ntp2992
Rp2993
(dp2994
g1040
(lp2995
g0
(g592
g2
Ntp2996
Rp2997
(dp2998
g596
Nsg597
(lp2999
g0
(g599
g2
Ntp3000
Rp3001
(dp3002
g596
Nsg603
g826
sg615
(dp3003
g2988
g787
sg794
g888
ssbasg617
I00
sbasbsg1035
g2977
sg1063
I00
sbsg1086
I00
sg612
I00
sg1069
g2993
sg1087
I00
sg1088
Nsbag0
(g1030
g2
Ntp3004
Rp3005
(dp3006
g1034
g939
sg1035
g0
(g1036
g2
Ntp3007
Rp3008
(dp3009
g1040
(lp3010
g0
(g592
g2
Ntp3011
Rp3012
(dp3013
g596
Nsg597
(lp3014
g0
(g599
g2
Ntp3015
Rp3016
(dp3017
g596
Nsg603
g851
sg615
(dp3018
S'Y'
p3019
g787
sg794
g2559
ssbasg617
I00
sbasbsg610
g999
sg1063
I00
sg1064
g0
(g1065
g2
Ntp3020
Rp3021
(dp3022
g1069
g0
(g1036
g2
Ntp3023
Rp3024
(dp3025
g1040
(lp3026
g0
(g592
g2
Ntp3027
Rp3028
(dp3029
g596
Nsg597
(lp3030
g0
(g599
g2
Ntp3031
Rp3032
(dp3033
g596
Nsg603
g851
sg615
(dp3034
g3019
g787
sg794
g888
ssbasg617
I00
sbasbsg1035
g3008
sg1063
I00
sbsg1086
I00
sg612
I00
sg1069
g3024
sg1087
I00
sg1088
Nsbag0
(g1030
g2
Ntp3035
Rp3036
(dp3037
g1034
g939
sg1035
g0
(g1036
g2
Ntp3038
Rp3039
(dp3040
g1040
(lp3041
g0
(g592
g2
Ntp3042
Rp3043
(dp3044
g596
Nsg597
(lp3045
g0
(g599
g2
Ntp3046
Rp3047
(dp3048
g596
Nsg603
g781
sg615
(dp3049
S'S339'
p3050
g787
sg794
g2559
ssbasg617
I00
sbasbsg610
g1000
sg1063
I00
sg1064
g0
(g1065
g2
Ntp3051
Rp3052
(dp3053
g1069
g0
(g1036
g2
Ntp3054
Rp3055
(dp3056
g1040
(lp3057
g0
(g592
g2
Ntp3058
Rp3059
(dp3060
g596
Nsg597
(lp3061
g0
(g599
g2
Ntp3062
Rp3063
(dp3064
g596
Nsg603
g781
sg615
(dp3065
g3050
g787
sg794
g888
ssbasg617
I00
sbasbsg1035
g3039
sg1063
I00
sbsg1086
I00
sg612
I00
sg1069
g3055
sg1087
I00
sg1088
Nsbag0
(g1030
g2
Ntp3066
Rp3067
(dp3068
g1034
g942
sg1035
g0
(g1036
g2
Ntp3069
Rp3070
(dp3071
g1040
(lp3072
g0
(g592
g2
Ntp3073
Rp3074
(dp3075
g596
Nsg597
(lp3076
g0
(g599
g2
Ntp3077
Rp3078
(dp3079
g596
Nsg603
g723
sg615
(dp3080
g726
g888
ssbasg617
I00
sbag0
(g592
g2
Ntp3081
Rp3082
(dp3083
g596
Nsg597
(lp3084
g0
(g599
g2
Ntp3085
Rp3086
(dp3087
g596
Nsg603
g740
sg615
(dp3088
g743
g2559
ssbasg617
I00
sbasbsg610
g1022
sg1063
I00
sg1064
g0
(g1065
g2
Ntp3089
Rp3090
(dp3091
g1069
g0
(g1036
g2
Ntp3092
Rp3093
(dp3094
g1040
(lp3095
g0
(g592
g2
Ntp3096
Rp3097
(dp3098
g596
Nsg597
(lp3099
g0
(g599
g2
Ntp3100
Rp3101
(dp3102
g596
Nsg603
g723
sg615
(dp3103
g726
g888
ssbasg617
I00
sbag0
(g592
g2
Ntp3104
Rp3105
(dp3106
g596
Nsg597
(lp3107
g0
(g599
g2
Ntp3108
Rp3109
(dp3110
g596
Nsg603
g740
sg615
(dp3111
g743
g888
ssbasg617
I00
sbasbsg1035
g3070
sg1063
I00
sbsg1086
I00
sg612
I00
sg1069
g3093
sg1087
I00
sg1088
Nsbag0
(g1030
g2
Ntp3112
Rp3113
(dp3114
g1034
g942
sg1035
g0
(g1036
g2
Ntp3115
Rp3116
(dp3117
g1040
(lp3118
g0
(g592
g2
Ntp3119
Rp3120
(dp3121
g596
Nsg597
(lp3122
g0
(g599
g2
Ntp3123
Rp3124
(dp3125
g596
Nsg603
g681
sg615
(dp3126
g684
g888
ssbasg617
I00
sbag0
(g592
g2
Ntp3127
Rp3128
(dp3129
g596
Nsg597
(lp3130
g0
(g599
g2
Ntp3131
Rp3132
(dp3133
g596
Nsg603
g740
sg615
(dp3134
S'Kinase'
p3135
g2559
ssbasg617
I00
sbasbsg610
g1019
sg1063
I00
sg1064
g0
(g1065
g2
Ntp3136
Rp3137
(dp3138
g1069
g0
(g1036
g2
Ntp3139
Rp3140
(dp3141
g1040
(lp3142
g0
(g592
g2
Ntp3143
Rp3144
(dp3145
g596
Nsg597
(lp3146
g0
(g599
g2
Ntp3147
Rp3148
(dp3149
g596
Nsg603
g681
sg615
(dp3150
g684
g888
ssbasg617
I00
sbag0
(g592
g2
Ntp3151
Rp3152
(dp3153
g596
Nsg597
(lp3154
g0
(g599
g2
Ntp3155
Rp3156
(dp3157
g596
Nsg603
g740
sg615
(dp3158
g3135
g888
ssbasg617
I00
sbasbsg1035
g3116
sg1063
I00
sbsg1086
I00
sg612
I00
sg1069
g3140
sg1087
I00
sg1088
Nsbag0
(g1030
g2
Ntp3159
Rp3160
(dp3161
g1034
g945
sg1035
g0
(g1036
g2
Ntp3162
Rp3163
(dp3164
g1040
(lp3165
g0
(g592
g2
Ntp3166
Rp3167
(dp3168
g596
Nsg597
(lp3169
g0
(g599
g2
Ntp3170
Rp3171
(dp3172
g596
Nsg603
g657
sg615
(dp3173
g660
g888
ssbasg617
I00
sbag0
(g592
g2
Ntp3174
Rp3175
(dp3176
g596
Nsg597
(lp3177
g0
(g599
g2
Ntp3178
Rp3179
(dp3180
g596
Nsg603
g681
sg615
(dp3181
g707
g2559
ssbasg617
I00
sbasbsg610
g971
sg1063
I00
sg1064
g0
(g1065
g2
Ntp3182
Rp3183
(dp3184
g1069
g0
(g1036
g2
Ntp3185
Rp3186
(dp3187
g1040
(lp3188
g0
(g592
g2
Ntp3189
Rp3190
(dp3191
g596
Nsg597
(lp3192
g0
(g599
g2
Ntp3193
Rp3194
(dp3195
g596
Nsg603
g657
sg615
(dp3196
g660
g888
ssbasg617
I00
sbag0
(g592
g2
Ntp3197
Rp3198
(dp3199
g596
Nsg597
(lp3200
g0
(g599
g2
Ntp3201
Rp3202
(dp3203
g596
Nsg603
g681
sg615
(dp3204
g707
g888
ssbasg617
I00
sbasbsg1035
g3163
sg1063
I00
sbsg1086
I00
sg612
I00
sg1069
g3186
sg1087
I00
sg1088
Nsbag0
(g1030
g2
Ntp3205
Rp3206
(dp3207
g1034
g942
sg1035
g0
(g1036
g2
Ntp3208
Rp3209
(dp3210
g1040
(lp3211
g0
(g592
g2
Ntp3212
Rp3213
(dp3214
g596
Nsg597
(lp3215
g0
(g599
g2
Ntp3216
Rp3217
(dp3218
g596
Nsg603
g0
(g604
g2
Ntp3219
Rp3220
(dp3221
g608
(dp3222
S'Kinase'
p3223
(lp3224
g638
ag639
assg610
S'MAP3K3'
p3225
sg612
I00
sg613
(lp3226
g3223
asbsg615
(dp3227
g3223
g888
ssbasg617
I00
sbag0
(g592
g2
Ntp3228
Rp3229
(dp3230
g596
Nsg597
(lp3231
g0
(g599
g2
Ntp3232
Rp3233
(dp3234
g596
Nsg603
g826
sg615
(dp3235
S'Kinase'
p3236
g2559
ssbasg617
I00
sbasbsg610
g976
sg1063
I00
sg1064
g0
(g1065
g2
Ntp3237
Rp3238
(dp3239
g1069
g0
(g1036
g2
Ntp3240
Rp3241
(dp3242
g1040
(lp3243
g0
(g592
g2
Ntp3244
Rp3245
(dp3246
g596
Nsg597
(lp3247
g0
(g599
g2
Ntp3248
Rp3249
(dp3250
g596
Nsg603
g3220
sg615
(dp3251
g3223
g888
ssbasg617
I00
sbag0
(g592
g2
Ntp3252
Rp3253
(dp3254
g596
Nsg597
(lp3255
g0
(g599
g2
Ntp3256
Rp3257
(dp3258
g596
Nsg603
g826
sg615
(dp3259
g3236
g888
ssbasg617
I00
sbasbsg1035
g3209
sg1063
I00
sbsg1086
I00
sg612
I00
sg1069
g3241
sg1087
I00
sg1088
Nsbag0
(g1030
g2
Ntp3260
Rp3261
(dp3262
g1034
g942
sg1035
g0
(g1036
g2
Ntp3263
Rp3264
(dp3265
g1040
(lp3266
g0
(g592
g2
Ntp3267
Rp3268
(dp3269
g596
Nsg597
(lp3270
g0
(g599
g2
Ntp3271
Rp3272
(dp3273
g596
Nsg603
g740
sg615
(dp3274
S'Kinase'
p3275
g888
ssbasg617
I00
sbag0
(g592
g2
Ntp3276
Rp3277
(dp3278
g596
Nsg597
(lp3279
g0
(g599
g2
Ntp3280
Rp3281
(dp3282
g596
Nsg603
g826
sg615
(dp3283
S'Kinase'
p3284
g2559
ssbasg617
I00
sbasbsg610
g973
sg1063
I00
sg1064
g0
(g1065
g2
Ntp3285
Rp3286
(dp3287
g1069
g0
(g1036
g2
Ntp3288
Rp3289
(dp3290
g1040
(lp3291
g0
(g592
g2
Ntp3292
Rp3293
(dp3294
g596
Nsg597
(lp3295
g0
(g599
g2
Ntp3296
Rp3297
(dp3298
g596
Nsg603
g740
sg615
(dp3299
g3275
g888
ssbasg617
I00
sbag0
(g592
g2
Ntp3300
Rp3301
(dp3302
g596
Nsg597
(lp3303
g0
(g599
g2
Ntp3304
Rp3305
(dp3306
g596
Nsg603
g826
sg615
(dp3307
g3284
g888
ssbasg617
I00
sbasbsg1035
g3264
sg1063
I00
sbsg1086
I00
sg612
I00
sg1069
g3289
sg1087
I00
sg1088
Nsbag0
(g1030
g2
Ntp3308
Rp3309
(dp3310
g1034
g942
sg1035
g0
(g1036
g2
Ntp3311
Rp3312
(dp3313
g1040
(lp3314
g0
(g592
g2
Ntp3315
Rp3316
(dp3317
g596
Nsg597
(lp3318
g0
(g599
g2
Ntp3319
Rp3320
(dp3321
g596
Nsg603
g781
sg615
(dp3322
S'Kinase'
p3323
g888
ssbasg617
I00
sbag0
(g592
g2
Ntp3324
Rp3325
(dp3326
g596
Nsg597
(lp3327
g0
(g599
g2
Ntp3328
Rp3329
(dp3330
g596
Nsg603
g826
sg615
(dp3331
S'Kinase'
p3332
g2559
ssbasg617
I00
sbasbsg610
g1008
sg1063
I00
sg1064
g0
(g1065
g2
Ntp3333
Rp3334
(dp3335
g1069
g0
(g1036
g2
Ntp3336
Rp3337
(dp3338
g1040
(lp3339
g0
(g592
g2
Ntp3340
Rp3341
(dp3342
g596
Nsg597
(lp3343
g0
(g599
g2
Ntp3344
Rp3345
(dp3346
g596
Nsg603
g781
sg615
(dp3347
g3323
g888
ssbasg617
I00
sbag0
(g592
g2
Ntp3348
Rp3349
(dp3350
g596
Nsg597
(lp3351
g0
(g599
g2
Ntp3352
Rp3353
(dp3354
g596
Nsg603
g826
sg615
(dp3355
g3332
g888
ssbasg617
I00
sbasbsg1035
g3312
sg1063
I00
sbsg1086
I00
sg612
I00
sg1069
g3337
sg1087
I00
sg1088
Nsbag0
(g1030
g2
Ntp3356
Rp3357
(dp3358
g1034
g942
sg1035
g0
(g1036
g2
Ntp3359
Rp3360
(dp3361
g1040
(lp3362
g0
(g592
g2
Ntp3363
Rp3364
(dp3365
g596
Nsg597
(lp3366
g0
(g599
g2
Ntp3367
Rp3368
(dp3369
g596
Nsg603
g0
(g604
g2
Ntp3370
Rp3371
(dp3372
g608
(dp3373
S'Kinase'
p3374
(lp3375
g638
ag639
assg610
S'RAF_FAMILY'
p3376
sg612
I00
sg613
(lp3377
g3374
asbsg615
(dp3378
g3374
g888
ssbasg617
I00
sbag0
(g592
g2
Ntp3379
Rp3380
(dp3381
g596
Nsg597
(lp3382
g0
(g599
g2
Ntp3383
Rp3384
(dp3385
g596
Nsg603
g826
sg615
(dp3386
S'Kinase'
p3387
g2559
ssbasg617
I00
sbasbsg610
g1026
sg1063
I00
sg1064
g0
(g1065
g2
Ntp3388
Rp3389
(dp3390
g1069
g0
(g1036
g2
Ntp3391
Rp3392
(dp3393
g1040
(lp3394
g0
(g592
g2
Ntp3395
Rp3396
(dp3397
g596
Nsg597
(lp3398
g0
(g599
g2
Ntp3399
Rp3400
(dp3401
g596
Nsg603
g3371
sg615
(dp3402
g3374
g888
ssbasg617
I00
sbag0
(g592
g2
Ntp3403
Rp3404
(dp3405
g596
Nsg597
(lp3406
g0
(g599
g2
Ntp3407
Rp3408
(dp3409
g596
Nsg603
g826
sg615
(dp3410
g3387
g888
ssbasg617
I00
sbasbsg1035
g3360
sg1063
I00
sbsg1086
I00
sg612
I00
sg1069
g3392
sg1087
I00
sg1088
Nsbag0
(g1030
g2
Ntp3411
Rp3412
(dp3413
g1034
g942
sg1035
g0
(g1036
g2
Ntp3414
Rp3415
(dp3416
g1040
(lp3417
g0
(g592
g2
Ntp3418
Rp3419
(dp3420
g596
Nsg597
(lp3421
g0
(g599
g2
Ntp3422
Rp3423
(dp3424
g596
Nsg603
g723
sg615
(dp3425
S'GtpBound'
p3426
g888
ssbasg617
I00
sbag0
(g592
g2
Ntp3427
Rp3428
(dp3429
g596
Nsg597
(lp3430
g0
(g599
g2
Ntp3431
Rp3432
(dp3433
g596
Nsg603
g781
sg615
(dp3434
S'Kinase'
p3435
g2559
ssbasg617
I00
sbasbsg610
g975
sg1063
I00
sg1064
g0
(g1065
g2
Ntp3436
Rp3437
(dp3438
g1069
g0
(g1036
g2
Ntp3439
Rp3440
(dp3441
g1040
(lp3442
g0
(g592
g2
Ntp3443
Rp3444
(dp3445
g596
Nsg597
(lp3446
g0
(g599
g2
Ntp3447
Rp3448
(dp3449
g596
Nsg603
g723
sg615
(dp3450
g3426
g888
ssbasg617
I00
sbag0
(g592
g2
Ntp3451
Rp3452
(dp3453
g596
Nsg597
(lp3454
g0
(g599
g2
Ntp3455
Rp3456
(dp3457
g596
Nsg603
g781
sg615
(dp3458
g3435
g888
ssbasg617
I00
sbasbsg1035
g3415
sg1063
I00
sbsg1086
I00
sg612
I00
sg1069
g3440
sg1087
I00
sg1088
Nsbag0
(g1030
g2
Ntp3459
Rp3460
(dp3461
g1034
g948
sg1035
g0
(g1036
g2
Ntp3462
Rp3463
(dp3464
g1040
(lp3465
g0
(g592
g2
Ntp3466
Rp3467
(dp3468
g596
Nsg597
(lp3469
g0
(g599
g2
Ntp3470
Rp3471
(dp3472
g596
Nsg603
g0
(g604
g2
Ntp3473
Rp3474
(dp3475
g608
(dp3476
S'Catalytic'
p3477
(lp3478
g882
ag883
assg610
S'RASA4'
p3479
sg612
I00
sg613
(lp3480
g3477
asbsg615
(dp3481
g3477
g888
ssbasg617
I00
sbag0
(g592
g2
Ntp3482
Rp3483
(dp3484
g596
Nsg597
(lp3485
g0
(g599
g2
Ntp3486
Rp3487
(dp3488
g596
Nsg603
g723
sg615
(dp3489
g707
g888
ssbasg617
I00
sbasbsg610
g1001
sg1063
I00
sg1064
g0
(g1065
g2
Ntp3490
Rp3491
(dp3492
g1069
g0
(g1036
g2
Ntp3493
Rp3494
(dp3495
g1040
(lp3496
g0
(g592
g2
Ntp3497
Rp3498
(dp3499
g596
Nsg597
(lp3500
g0
(g599
g2
Ntp3501
Rp3502
(dp3503
g596
Nsg603
g3474
sg615
(dp3504
g3477
g888
ssbasg617
I00
sbag0
(g592
g2
Ntp3505
Rp3506
(dp3507
g596
Nsg597
(lp3508
g0
(g599
g2
Ntp3509
Rp3510
(dp3511
g596
Nsg603
g723
sg615
(dp3512
g707
g2559
ssbasg617
I00
sbasbsg1035
g3463
sg1063
I00
sbsg1086
I00
sg612
I00
sg1069
g3494
sg1087
I00
sg1088
Nsbag0
(g1030
g2
Ntp3513
Rp3514
(dp3515
g1034
g948
sg1035
g0
(g1036
g2
Ntp3516
Rp3517
(dp3518
g1040
(lp3519
g0
(g592
g2
Ntp3520
Rp3521
(dp3522
g596
Nsg597
(lp3523
g0
(g599
g2
Ntp3524
Rp3525
(dp3526
g596
Nsg603
g877
sg615
(dp3527
g880
g888
ssbasg617
I00
sbag0
(g592
g2
Ntp3528
Rp3529
(dp3530
g596
Nsg597
(lp3531
g0
(g599
g2
Ntp3532
Rp3533
(dp3534
g596
Nsg603
g704
sg615
(dp3535
g707
g888
ssbasg617
I00
sbasbsg610
g984
sg1063
I00
sg1064
g0
(g1065
g2
Ntp3536
Rp3537
(dp3538
g1069
g0
(g1036
g2
Ntp3539
Rp3540
(dp3541
g1040
(lp3542
g0
(g592
g2
Ntp3543
Rp3544
(dp3545
g596
Nsg597
(lp3546
g0
(g599
g2
Ntp3547
Rp3548
(dp3549
g596
Nsg603
g877
sg615
(dp3550
g880
g888
ssbasg617
I00
sbag0
(g592
g2
Ntp3551
Rp3552
(dp3553
g596
Nsg597
(lp3554
g0
(g599
g2
Ntp3555
Rp3556
(dp3557
g596
Nsg603
g704
sg615
(dp3558
g707
g2559
ssbasg617
I00
sbasbsg1035
g3517
sg1063
I00
sbsg1086
I00
sg612
I00
sg1069
g3540
sg1087
I00
sg1088
Nsbag0
(g1030
g2
Ntp3559
Rp3560
(dp3561
g1034
g945
sg1035
g0
(g1036
g2
Ntp3562
Rp3563
(dp3564
g1040
(lp3565
g0
(g592
g2
Ntp3566
Rp3567
(dp3568
g596
Nsg597
(lp3569
g0
(g599
g2
Ntp3570
Rp3571
(dp3572
g596
Nsg603
g657
sg615
(dp3573
S'Catalytic'
p3574
g888
ssbasg617
I00
sbag0
(g592
g2
Ntp3575
Rp3576
(dp3577
g596
Nsg597
(lp3578
g0
(g599
g2
Ntp3579
Rp3580
(dp3581
g596
Nsg603
g723
sg615
(dp3582
g707
g2559
ssbasg617
I00
sbasbsg610
g972
sg1063
I00
sg1064
g0
(g1065
g2
Ntp3583
Rp3584
(dp3585
g1069
g0
(g1036
g2
Ntp3586
Rp3587
(dp3588
g1040
(lp3589
g0
(g592
g2
Ntp3590
Rp3591
(dp3592
g596
Nsg597
(lp3593
g0
(g599
g2
Ntp3594
Rp3595
(dp3596
g596
Nsg603
g657
sg615
(dp3597
g3574
g888
ssbasg617
I00
sbag0
(g592
g2
Ntp3598
Rp3599
(dp3600
g596
Nsg597
(lp3601
g0
(g599
g2
Ntp3602
Rp3603
(dp3604
g596
Nsg603
g723
sg615
(dp3605
g707
g888
ssbasg617
I00
sbasbsg1035
g3563
sg1063
I00
sbsg1086
I00
sg612
I00
sg1069
g3587
sg1087
I00
sg1088
Nsbag0
(g1030
g2
Ntp3606
Rp3607
(dp3608
g1034
g942
sg1035
g0
(g1036
g2
Ntp3609
Rp3610
(dp3611
g1040
(lp3612
g0
(g592
g2
Ntp3613
Rp3614
(dp3615
g596
Nsg597
(lp3616
g0
(g599
g2
Ntp3617
Rp3618
(dp3619
g596
Nsg603
g763
sg615
(dp3620
g766
g888
ssbasg617
I00
sbag0
(g592
g2
Ntp3621
Rp3622
(dp3623
g596
Nsg597
(lp3624
g0
(g599
g2
Ntp3625
Rp3626
(dp3627
g596
Nsg603
g826
sg615
(dp3628
S'Kinase'
p3629
g2559
ssbasg617
I00
sbasbsg610
g1020
sg1063
I00
sg1064
g0
(g1065
g2
Ntp3630
Rp3631
(dp3632
g1069
g0
(g1036
g2
Ntp3633
Rp3634
(dp3635
g1040
(lp3636
g0
(g592
g2
Ntp3637
Rp3638
(dp3639
g596
Nsg597
(lp3640
g0
(g599
g2
Ntp3641
Rp3642
(dp3643
g596
Nsg603
g763
sg615
(dp3644
g766
g888
ssbasg617
I00
sbag0
(g592
g2
Ntp3645
Rp3646
(dp3647
g596
Nsg597
(lp3648
g0
(g599
g2
Ntp3649
Rp3650
(dp3651
g596
Nsg603
g826
sg615
(dp3652
g3629
g888
ssbasg617
I00
sbasbsg1035
g3610
sg1063
I00
sbsg1086
I00
sg612
I00
sg1069
g3634
sg1087
I00
sg1088
Nsbag0
(g1030
g2
Ntp3653
Rp3654
(dp3655
g1034
g948
sg1035
g0
(g1036
g2
Ntp3656
Rp3657
(dp3658
g1040
(lp3659
g0
(g592
g2
Ntp3660
Rp3661
(dp3662
g596
Nsg597
(lp3663
g0
(g599
g2
Ntp3664
Rp3665
(dp3666
g596
Nsg603
g902
sg615
(dp3667
g905
g888
ssbasg617
I00
sbag0
(g592
g2
Ntp3668
Rp3669
(dp3670
g596
Nsg597
(lp3671
g0
(g599
g2
Ntp3672
Rp3673
(dp3674
g596
Nsg603
g723
sg615
(dp3675
g707
g888
ssbasg617
I00
sbasbsg610
g977
sg1063
I00
sg1064
g0
(g1065
g2
Ntp3676
Rp3677
(dp3678
g1069
g0
(g1036
g2
Ntp3679
Rp3680
(dp3681
g1040
(lp3682
g0
(g592
g2
Ntp3683
Rp3684
(dp3685
g596
Nsg597
(lp3686
g0
(g599
g2
Ntp3687
Rp3688
(dp3689
g596
Nsg603
g902
sg615
(dp3690
g905
g888
ssbasg617
I00
sbag0
(g592
g2
Ntp3691
Rp3692
(dp3693
g596
Nsg597
(lp3694
g0
(g599
g2
Ntp3695
Rp3696
(dp3697
g596
Nsg603
g723
sg615
(dp3698
g707
g2559
ssbasg617
I00
sbasbsg1035
g3657
sg1063
I00
sbsg1086
I00
sg612
I00
sg1069
g3680
sg1087
I00
sg1088
Nsbag0
(g1030
g2
Ntp3699
Rp3700
(dp3701
g1034
g945
sg1035
g0
(g1036
g2
Ntp3702
Rp3703
(dp3704
g1040
(lp3705
g0
(g592
g2
Ntp3706
Rp3707
(dp3708
g596
Nsg597
(lp3709
g0
(g599
g2
Ntp3710
Rp3711
(dp3712
g596
Nsg603
g657
sg615
(dp3713
S'Catalytic'
p3714
g888
ssbasg617
I00
sbag0
(g592
g2
Ntp3715
Rp3716
(dp3717
g596
Nsg597
(lp3718
g0
(g599
g2
Ntp3719
Rp3720
(dp3721
g596
Nsg603
g704
sg615
(dp3722
g707
g2559
ssbasg617
I00
sbasbsg610
g992
sg1063
I00
sg1064
g0
(g1065
g2
Ntp3723
Rp3724
(dp3725
g1069
g0
(g1036
g2
Ntp3726
Rp3727
(dp3728
g1040
(lp3729
g0
(g592
g2
Ntp3730
Rp3731
(dp3732
g596
Nsg597
(lp3733
g0
(g599
g2
Ntp3734
Rp3735
(dp3736
g596
Nsg603
g657
sg615
(dp3737
g3714
g888
ssbasg617
I00
sbag0
(g592
g2
Ntp3738
Rp3739
(dp3740
g596
Nsg597
(lp3741
g0
(g599
g2
Ntp3742
Rp3743
(dp3744
g596
Nsg603
g704
sg615
(dp3745
g707
g888
ssbasg617
I00
sbasbsg1035
g3703
sg1063
I00
sbsg1086
I00
sg612
I00
sg1069
g3727
sg1087
I00
sg1088
Nsbag0
(g1030
g2
Ntp3746
Rp3747
(dp3748
g1034
g942
sg1035
g0
(g1036
g2
Ntp3749
Rp3750
(dp3751
g1040
(lp3752
g0
(g592
g2
Ntp3753
Rp3754
(dp3755
g596
Nsg597
(lp3756
g0
(g599
g2
Ntp3757
Rp3758
(dp3759
g596
Nsg603
g633
sg615
(dp3760
g636
g888
ssbasg617
I00
sbag0
(g592
g2
Ntp3761
Rp3762
(dp3763
g596
Nsg597
(lp3764
g0
(g599
g2
Ntp3765
Rp3766
(dp3767
g596
Nsg603
g657
sg615
(dp3768
S'Catalytic'
p3769
g2559
ssbasg617
I00
sbasbsg610
g963
sg1063
I00
sg1064
g0
(g1065
g2
Ntp3770
Rp3771
(dp3772
g1069
g0
(g1036
g2
Ntp3773
Rp3774
(dp3775
g1040
(lp3776
g0
(g592
g2
Ntp3777
Rp3778
(dp3779
g596
Nsg597
(lp3780
g0
(g599
g2
Ntp3781
Rp3782
(dp3783
g596
Nsg603
g633
sg615
(dp3784
g636
g888
ssbasg617
I00
sbag0
(g592
g2
Ntp3785
Rp3786
(dp3787
g596
Nsg597
(lp3788
g0
(g599
g2
Ntp3789
Rp3790
(dp3791
g596
Nsg603
g657
sg615
(dp3792
g3769
g888
ssbasg617
I00
sbasbsg1035
g3750
sg1063
I00
sbsg1086
I00
sg612
I00
sg1069
g3774
sg1087
I00
sg1088
Nsbag0
(g1030
g2
Ntp3793
Rp3794
(dp3795
g1034
g942
sg1035
g0
(g1036
g2
Ntp3796
Rp3797
(dp3798
g1040
(lp3799
g0
(g592
g2
Ntp3800
Rp3801
(dp3802
g596
Nsg597
(lp3803
g0
(g599
g2
Ntp3804
Rp3805
(dp3806
g596
Nsg603
g826
sg615
(dp3807
S'Kinase'
p3808
g888
ssbasg617
I00
sbag0
(g592
g2
Ntp3809
Rp3810
(dp3811
g596
Nsg597
(lp3812
g0
(g599
g2
Ntp3813
Rp3814
(dp3815
g596
Nsg603
g851
sg615
(dp3816
S'Kinase'
p3817
g2559
ssbasg617
I00
sbasbsg610
g1016
sg1063
I00
sg1064
g0
(g1065
g2
Ntp3818
Rp3819
(dp3820
g1069
g0
(g1036
g2
Ntp3821
Rp3822
(dp3823
g1040
(lp3824
g0
(g592
g2
Ntp3825
Rp3826
(dp3827
g596
Nsg597
(lp3828
g0
(g599
g2
Ntp3829
Rp3830
(dp3831
g596
Nsg603
g826
sg615
(dp3832
g3808
g888
ssbasg617
I00
sbag0
(g592
g2
Ntp3833
Rp3834
(dp3835
g596
Nsg597
(lp3836
g0
(g599
g2
Ntp3837
Rp3838
(dp3839
g596
Nsg603
g851
sg615
(dp3840
g3817
g888
ssbasg617
I00
sbasbsg1035
g3797
sg1063
I00
sbsg1086
I00
sg612
I00
sg1069
g3822
sg1087
I00
sg1088
Nsbag0
(g1030
g2
Ntp3841
Rp3842
(dp3843
g1034
g942
sg1035
g0
(g1036
g2
Ntp3844
Rp3845
(dp3846
g1040
(lp3847
g0
(g592
g2
Ntp3848
Rp3849
(dp3850
g596
Nsg597
(lp3851
g0
(g599
g2
Ntp3852
Rp3853
(dp3854
g596
Nsg603
g704
sg615
(dp3855
S'GtpBound'
p3856
g888
ssbasg617
I00
sbag0
(g592
g2
Ntp3857
Rp3858
(dp3859
g596
Nsg597
(lp3860
g0
(g599
g2
Ntp3861
Rp3862
(dp3863
g596
Nsg603
g740
sg615
(dp3864
S'Kinase'
p3865
g2559
ssbasg617
I00
sbasbsg610
g1003
sg1063
I00
sg1064
g0
(g1065
g2
Ntp3866
Rp3867
(dp3868
g1069
g0
(g1036
g2
Ntp3869
Rp3870
(dp3871
g1040
(lp3872
g0
(g592
g2
Ntp3873
Rp3874
(dp3875
g596
Nsg597
(lp3876
g0
(g599
g2
Ntp3877
Rp3878
(dp3879
g596
Nsg603
g704
sg615
(dp3880
g3856
g888
ssbasg617
I00
sbag0
(g592
g2
Ntp3881
Rp3882
(dp3883
g596
Nsg597
(lp3884
g0
(g599
g2
Ntp3885
Rp3886
(dp3887
g596
Nsg603
g740
sg615
(dp3888
g3865
g888
ssbasg617
I00
sbasbsg1035
g3845
sg1063
I00
sbsg1086
I00
sg612
I00
sg1069
g3870
sg1087
I00
sg1088
Nsbag0
(g1030
g2
Ntp3889
Rp3890
(dp3891
g1034
g942
sg1035
g0
(g1036
g2
Ntp3892
Rp3893
(dp3894
g1040
(lp3895
g0
(g592
g2
Ntp3896
Rp3897
(dp3898
g596
Nsg597
(lp3899
g0
(g599
g2
Ntp3900
Rp3901
(dp3902
g596
Nsg603
g723
sg615
(dp3903
S'GtpBound'
p3904
g888
ssbasg617
I00
sbag0
(g592
g2
Ntp3905
Rp3906
(dp3907
g596
Nsg597
(lp3908
g0
(g599
g2
Ntp3909
Rp3910
(dp3911
g596
Nsg603
g763
sg615
(dp3912
S'Kinase'
p3913
g2559
ssbasg617
I00
sbasbsg610
g1028
sg1063
I00
sg1064
g0
(g1065
g2
Ntp3914
Rp3915
(dp3916
g1069
g0
(g1036
g2
Ntp3917
Rp3918
(dp3919
g1040
(lp3920
g0
(g592
g2
Ntp3921
Rp3922
(dp3923
g596
Nsg597
(lp3924
g0
(g599
g2
Ntp3925
Rp3926
(dp3927
g596
Nsg603
g723
sg615
(dp3928
g3904
g888
ssbasg617
I00
sbag0
(g592
g2
Ntp3929
Rp3930
(dp3931
g596
Nsg597
(lp3932
g0
(g599
g2
Ntp3933
Rp3934
(dp3935
g596
Nsg603
g763
sg615
(dp3936
g3913
g888
ssbasg617
I00
sbasbsg1035
g3893
sg1063
I00
sbsg1086
I00
sg612
I00
sg1069
g3918
sg1087
I00
sg1088
Nsbag0
(g1030
g2
Ntp3937
Rp3938
(dp3939
g1034
g942
sg1035
g0
(g1036
g2
Ntp3940
Rp3941
(dp3942
g1040
(lp3943
g0
(g592
g2
Ntp3944
Rp3945
(dp3946
g596
Nsg597
(lp3947
g0
(g599
g2
Ntp3948
Rp3949
(dp3950
g596
Nsg603
g704
sg615
(dp3951
S'GtpBound'
p3952
g888
ssbasg617
I00
sbag0
(g592
g2
Ntp3953
Rp3954
(dp3955
g596
Nsg597
(lp3956
g0
(g599
g2
Ntp3957
Rp3958
(dp3959
g596
Nsg603
g763
sg615
(dp3960
S'Kinase'
p3961
g2559
ssbasg617
I00
sbasbsg610
g1025
sg1063
I00
sg1064
g0
(g1065
g2
Ntp3962
Rp3963
(dp3964
g1069
g0
(g1036
g2
Ntp3965
Rp3966
(dp3967
g1040
(lp3968
g0
(g592
g2
Ntp3969
Rp3970
(dp3971
g596
Nsg597
(lp3972
g0
(g599
g2
Ntp3973
Rp3974
(dp3975
g596
Nsg603
g704
sg615
(dp3976
g3952
g888
ssbasg617
I00
sbag0
(g592
g2
Ntp3977
Rp3978
(dp3979
g596
Nsg597
(lp3980
g0
(g599
g2
Ntp3981
Rp3982
(dp3983
g596
Nsg603
g763
sg615
(dp3984
g3961
g888
ssbasg617
I00
sbasbsg1035
g3941
sg1063
I00
sbsg1086
I00
sg612
I00
sg1069
g3966
sg1087
I00
sg1088
Nsbag0
(g1030
g2
Ntp3985
Rp3986
(dp3987
g1034
g948
sg1035
g0
(g1036
g2
Ntp3988
Rp3989
(dp3990
g1040
(lp3991
g0
(g592
g2
Ntp3992
Rp3993
(dp3994
g596
Nsg597
(lp3995
g0
(g599
g2
Ntp3996
Rp3997
(dp3998
g596
Nsg603
g0
(g604
g2
Ntp3999
Rp4000
(dp4001
g608
(dp4002
S'Catalytic'
p4003
(lp4004
g882
ag883
assg610
S'DAB2IP'
p4005
sg612
I00
sg613
(lp4006
g4003
asbsg615
(dp4007
g4003
g888
ssbasg617
I00
sbag0
(g592
g2
Ntp4008
Rp4009
(dp4010
g596
Nsg597
(lp4011
g0
(g599
g2
Ntp4012
Rp4013
(dp4014
g596
Nsg603
g723
sg615
(dp4015
g707
g888
ssbasg617
I00
sbasbsg610
g995
sg1063
I00
sg1064
g0
(g1065
g2
Ntp4016
Rp4017
(dp4018
g1069
g0
(g1036
g2
Ntp4019
Rp4020
(dp4021
g1040
(lp4022
g0
(g592
g2
Ntp4023
Rp4024
(dp4025
g596
Nsg597
(lp4026
g0
(g599
g2
Ntp4027
Rp4028
(dp4029
g596
Nsg603
g4000
sg615
(dp4030
g4003
g888
ssbasg617
I00
sbag0
(g592
g2
Ntp4031
Rp4032
(dp4033
g596
Nsg597
(lp4034
g0
(g599
g2
Ntp4035
Rp4036
(dp4037
g596
Nsg603
g723
sg615
(dp4038
g707
g2559
ssbasg617
I00
sbasbsg1035
g3989
sg1063
I00
sbsg1086
I00
sg612
I00
sg1069
g4020
sg1087
I00
sg1088
Nsbag0
(g1030
g2
Ntp4039
Rp4040
(dp4041
g1034
g945
sg1035
g0
(g1036
g2
Ntp4042
Rp4043
(dp4044
g1040
(lp4045
g0
(g592
g2
Ntp4046
Rp4047
(dp4048
g596
Nsg597
(lp4049
g0
(g599
g2
Ntp4050
Rp4051
(dp4052
g596
Nsg603
g902
sg615
(dp4053
S'Catalytic'
p4054
g888
ssbasg617
I00
sbag0
(g592
g2
Ntp4055
Rp4056
(dp4057
g596
Nsg597
(lp4058
g0
(g599
g2
Ntp4059
Rp4060
(dp4061
g596
Nsg603
g681
sg615
(dp4062
g707
g2559
ssbasg617
I00
sbasbsg610
g966
sg1063
I00
sg1064
g0
(g1065
g2
Ntp4063
Rp4064
(dp4065
g1069
g0
(g1036
g2
Ntp4066
Rp4067
(dp4068
g1040
(lp4069
g0
(g592
g2
Ntp4070
Rp4071
(dp4072
g596
Nsg597
(lp4073
g0
(g599
g2
Ntp4074
Rp4075
(dp4076
g596
Nsg603
g902
sg615
(dp4077
g4054
g888
ssbasg617
I00
sbag0
(g592
g2
Ntp4078
Rp4079
(dp4080
g596
Nsg597
(lp4081
g0
(g599
g2
Ntp4082
Rp4083
(dp4084
g596
Nsg603
g681
sg615
(dp4085
g707
g888
ssbasg617
I00
sbasbsg1035
g4043
sg1063
I00
sbsg1086
I00
sg612
I00
sg1069
g4067
sg1087
I00
sg1088
Nsbag0
(g1030
g2
Ntp4086
Rp4087
(dp4088
g1034
g945
sg1035
g0
(g1036
g2
Ntp4089
Rp4090
(dp4091
g1040
(lp4092
g0
(g592
g2
Ntp4093
Rp4094
(dp4095
g596
Nsg597
(lp4096
g0
(g599
g2
Ntp4097
Rp4098
(dp4099
g596
Nsg603
g0
(g604
g2
Ntp4100
Rp4101
(dp4102
g608
(dp4103
S'Catalytic'
p4104
(lp4105
g662
ag663
assg610
S'SOS_FAMILY'
p4106
sg612
I00
sg613
(lp4107
g4104
asbsg615
(dp4108
g4104
g888
ssbasg617
I00
sbag0
(g592
g2
Ntp4109
Rp4110
(dp4111
g596
Nsg597
(lp4112
g0
(g599
g2
Ntp4113
Rp4114
(dp4115
g596
Nsg603
g704
sg615
(dp4116
g707
g2559
ssbasg617
I00
sbasbsg610
g990
sg1063
I00
sg1064
g0
(g1065
g2
Ntp4117
Rp4118
(dp4119
g1069
g0
(g1036
g2
Ntp4120
Rp4121
(dp4122
g1040
(lp4123
g0
(g592
g2
Ntp4124
Rp4125
(dp4126
g596
Nsg597
(lp4127
g0
(g599
g2
Ntp4128
Rp4129
(dp4130
g596
Nsg603
g4101
sg615
(dp4131
g4104
g888
ssbasg617
I00
sbag0
(g592
g2
Ntp4132
Rp4133
(dp4134
g596
Nsg597
(lp4135
g0
(g599
g2
Ntp4136
Rp4137
(dp4138
g596
Nsg603
g704
sg615
(dp4139
g707
g888
ssbasg617
I00
sbasbsg1035
g4090
sg1063
I00
sbsg1086
I00
sg612
I00
sg1069
g4121
sg1087
I00
sg1088
Nsbag0
(g1030
g2
Ntp4140
Rp4141
(dp4142
g1034
g942
sg1035
g0
(g1036
g2
Ntp4143
Rp4144
(dp4145
g1040
(lp4146
g0
(g592
g2
Ntp4147
Rp4148
(dp4149
g596
Nsg597
(lp4150
g0
(g599
g2
Ntp4151
Rp4152
(dp4153
g596
Nsg603
g681
sg615
(dp4154
S'GtpBound'
p4155
g888
ssbasg617
I00
sbag0
(g592
g2
Ntp4156
Rp4157
(dp4158
g596
Nsg597
(lp4159
g0
(g599
g2
Ntp4160
Rp4161
(dp4162
g596
Nsg603
g781
sg615
(dp4163
S'Kinase'
p4164
g2559
ssbasg617
I00
sbasbsg610
g1010
sg1063
I00
sg1064
g0
(g1065
g2
Ntp4165
Rp4166
(dp4167
g1069
g0
(g1036
g2
Ntp4168
Rp4169
(dp4170
g1040
(lp4171
g0
(g592
g2
Ntp4172
Rp4173
(dp4174
g596
Nsg597
(lp4175
g0
(g599
g2
Ntp4176
Rp4177
(dp4178
g596
Nsg603
g681
sg615
(dp4179
g4155
g888
ssbasg617
I00
sbag0
(g592
g2
Ntp4180
Rp4181
(dp4182
g596
Nsg597
(lp4183
g0
(g599
g2
Ntp4184
Rp4185
(dp4186
g596
Nsg603
g781
sg615
(dp4187
g4164
g888
ssbasg617
I00
sbasbsg1035
g4144
sg1063
I00
sbsg1086
I00
sg612
I00
sg1069
g4169
sg1087
I00
sg1088
Nsbag0
(g1030
g2
Ntp4188
Rp4189
(dp4190
g1034
g948
sg1035
g0
(g1036
g2
Ntp4191
Rp4192
(dp4193
g1040
(lp4194
g0
(g592
g2
Ntp4195
Rp4196
(dp4197
g596
Nsg597
(lp4198
g0
(g599
g2
Ntp4199
Rp4200
(dp4201
g596
Nsg603
g0
(g604
g2
Ntp4202
Rp4203
(dp4204
g608
(dp4205
S'Catalytic'
p4206
(lp4207
g882
ag883
assg610
S'RASAL1'
p4208
sg612
I00
sg613
(lp4209
g4206
asbsg615
(dp4210
g4206
g888
ssbasg617
I00
sbag0
(g592
g2
Ntp4211
Rp4212
(dp4213
g596
Nsg597
(lp4214
g0
(g599
g2
Ntp4215
Rp4216
(dp4217
g596
Nsg603
g704
sg615
(dp4218
g707
g888
ssbasg617
I00
sbasbsg610
g987
sg1063
I00
sg1064
g0
(g1065
g2
Ntp4219
Rp4220
(dp4221
g1069
g0
(g1036
g2
Ntp4222
Rp4223
(dp4224
g1040
(lp4225
g0
(g592
g2
Ntp4226
Rp4227
(dp4228
g596
Nsg597
(lp4229
g0
(g599
g2
Ntp4230
Rp4231
(dp4232
g596
Nsg603
g4203
sg615
(dp4233
g4206
g888
ssbasg617
I00
sbag0
(g592
g2
Ntp4234
Rp4235
(dp4236
g596
Nsg597
(lp4237
g0
(g599
g2
Ntp4238
Rp4239
(dp4240
g596
Nsg603
g704
sg615
(dp4241
g707
g2559
ssbasg617
I00
sbasbsg1035
g4192
sg1063
I00
sbsg1086
I00
sg612
I00
sg1069
g4223
sg1087
I00
sg1088
Nsbag0
(g1030
g2
Ntp4242
Rp4243
(dp4244
g1034
g942
sg1035
g0
(g1036
g2
Ntp4245
Rp4246
(dp4247
g1040
(lp4248
g0
(g592
g2
Ntp4249
Rp4250
(dp4251
g596
Nsg597
(lp4252
g0
(g599
g2
Ntp4253
Rp4254
(dp4255
g596
Nsg603
g0
(g604
g2
Ntp4256
Rp4257
(dp4258
g608
(dp4259
S'Kinase'
p4260
(lp4261
g638
ag639
assg610
S'MAP3K1'
p4262
sg612
I00
sg613
(lp4263
g4260
asbsg615
(dp4264
g4260
g888
ssbasg617
I00
sbag0
(g592
g2
Ntp4265
Rp4266
(dp4267
g596
Nsg597
(lp4268
g0
(g599
g2
Ntp4269
Rp4270
(dp4271
g596
Nsg603
g826
sg615
(dp4272
S'Kinase'
p4273
g2559
ssbasg617
I00
sbasbsg610
g981
sg1063
I00
sg1064
g0
(g1065
g2
Ntp4274
Rp4275
(dp4276
g1069
g0
(g1036
g2
Ntp4277
Rp4278
(dp4279
g1040
(lp4280
g0
(g592
g2
Ntp4281
Rp4282
(dp4283
g596
Nsg597
(lp4284
g0
(g599
g2
Ntp4285
Rp4286
(dp4287
g596
Nsg603
g4257
sg615
(dp4288
g4260
g888
ssbasg617
I00
sbag0
(g592
g2
Ntp4289
Rp4290
(dp4291
g596
Nsg597
(lp4292
g0
(g599
g2
Ntp4293
Rp4294
(dp4295
g596
Nsg603
g826
sg615
(dp4296
g4273
g888
ssbasg617
I00
sbasbsg1035
g4246
sg1063
I00
sbsg1086
I00
sg612
I00
sg1069
g4278
sg1087
I00
sg1088
Nsbag0
(g1030
g2
Ntp4297
Rp4298
(dp4299
g1034
g942
sg1035
g0
(g1036
g2
Ntp4300
Rp4301
(dp4302
g1040
(lp4303
g0
(g592
g2
Ntp4304
Rp4305
(dp4306
g596
Nsg597
(lp4307
g0
(g599
g2
Ntp4308
Rp4309
(dp4310
g596
Nsg603
g681
sg615
(dp4311
S'GtpBound'
p4312
g888
ssbasg617
I00
sbag0
(g592
g2
Ntp4313
Rp4314
(dp4315
g596
Nsg597
(lp4316
g0
(g599
g2
Ntp4317
Rp4318
(dp4319
g596
Nsg603
g763
sg615
(dp4320
S'Kinase'
p4321
g2559
ssbasg617
I00
sbasbsg610
g980
sg1063
I00
sg1064
g0
(g1065
g2
Ntp4322
Rp4323
(dp4324
g1069
g0
(g1036
g2
Ntp4325
Rp4326
(dp4327
g1040
(lp4328
g0
(g592
g2
Ntp4329
Rp4330
(dp4331
g596
Nsg597
(lp4332
g0
(g599
g2
Ntp4333
Rp4334
(dp4335
g596
Nsg603
g681
sg615
(dp4336
g4312
g888
ssbasg617
I00
sbag0
(g592
g2
Ntp4337
Rp4338
(dp4339
g596
Nsg597
(lp4340
g0
(g599
g2
Ntp4341
Rp4342
(dp4343
g596
Nsg603
g763
sg615
(dp4344
g4321
g888
ssbasg617
I00
sbasbsg1035
g4301
sg1063
I00
sbsg1086
I00
sg612
I00
sg1069
g4326
sg1087
I00
sg1088
Nsbag0
(g1030
g2
Ntp4345
Rp4346
(dp4347
g1034
g942
sg1035
g0
(g1036
g2
Ntp4348
Rp4349
(dp4350
g1040
(lp4351
g0
(g592
g2
Ntp4352
Rp4353
(dp4354
g596
Nsg597
(lp4355
g0
(g599
g2
Ntp4356
Rp4357
(dp4358
g596
Nsg603
g606
sg615
(dp4359
sbasg617
I00
sbag0
(g592
g2
Ntp4360
Rp4361
(dp4362
g596
Nsg597
(lp4363
g0
(g599
g2
Ntp4364
Rp4365
(dp4366
g596
Nsg603
g633
sg615
(dp4367
g794
g2559
ssbasg617
I00
sbasbsg610
g1014
sg1063
I00
sg1064
g0
(g1065
g2
Ntp4368
Rp4369
(dp4370
g1069
g0
(g1036
g2
Ntp4371
Rp4372
(dp4373
g1040
(lp4374
g0
(g592
g2
Ntp4375
Rp4376
(dp4377
g596
Nsg597
(lp4378
g0
(g599
g2
Ntp4379
Rp4380
(dp4381
g596
Nsg603
g606
sg615
(dp4382
sbasg617
I00
sbag0
(g592
g2
Ntp4383
Rp4384
(dp4385
g596
Nsg597
(lp4386
g0
(g599
g2
Ntp4387
Rp4388
(dp4389
g596
Nsg603
g633
sg615
(dp4390
g794
g888
ssbasg617
I00
sbasbsg1035
g4349
sg1063
I00
sbsg1086
I00
sg612
I00
sg1069
g4372
sg1087
I00
sg1088
Nsbasg956
(dp4391
g963
g3747
sg964
g1132
sg965
g2146
sg966
g4040
sg967
g1413
sg968
g2398
sg969
g1560
sg970
g2000
sg971
g3160
sg972
g3560
sg973
g3261
sg974
g2356
sg975
g3412
sg976
g3206
sg977
g3654
sg978
g2597
sg979
g1843
sg980
g4298
sg981
g4243
sg982
g2651
sg983
g1348
sg984
g3514
sg985
g2813
sg986
g1032
sg987
g4189
sg988
g1294
sg989
g1090
sg990
g4087
sg991
g2493
sg992
g3700
sg993
g2759
sg994
g2194
sg995
g3986
sg996
g2974
sg997
g1495
sg998
g1898
sg999
g3005
sg1000
g3036
sg1001
g3460
sg1002
g2867
sg1003
g3842
sg1004
g2055
sg1005
g2302
sg1006
g2705
sg1007
g1604
sg1008
g3309
sg1009
g1240
sg1010
g4141
sg1011
g2541
sg1012
g1782
sg1013
g2446
sg1014
g4346
sg1015
g1728
sg1016
g3794
sg1017
g2099
sg1018
g2248
sg1019
g3113
sg1020
g3607
sg1021
g2921
sg1022
g3067
sg1023
g1186
sg1024
g1652
sg1025
g3938
sg1026
g3357
sg1027
g1946
sg1028
g3890
ssbsS'odes'
p4392
(lp4393
csympy.core.numbers
Zero
p4394
(tRp4395
(dp4396
bag14
(csympy.core.numbers
NegativeOne
p4397
(tRp4398
(dp4399
bg73
g80
g87
tp4400
Rp4401
(dp4402
bag14
(g4398
g73
g146
g153
tp4403
Rp4404
(dp4405
bacsympy.core.add
Add
p4406
(g124
g243
g14
(g4398
g18
g202
g29
tp4407
Rp4408
(dp4409
bg14
(g4398
g18
g29
g36
tp4410
Rp4411
(dp4412
bg14
(g4398
g52
g59
g29
tp4413
Rp4414
(dp4415
bg14
(g4398
g52
g258
g29
tp4416
Rp4417
(dp4418
btp4419
Rp4420
(dp4421
bag4406
(g475
g14
(g4398
g52
g258
g349
tp4422
Rp4423
(dp4424
btp4425
Rp4426
(dp4427
bag4406
(g489
g14
(g4398
g52
g258
g321
tp4428
Rp4429
(dp4430
btp4431
Rp4432
(dp4433
bag4406
(g14
(g4398
g73
g101
g132
tp4434
Rp4435
(dp4436
bg14
(g4398
g73
g223
g132
tp4437
Rp4438
(dp4439
bg14
(g4398
g73
g413
g132
tp4440
Rp4441
(dp4442
bg14
(g4398
g73
g427
g132
tp4443
Rp4444
(dp4445
bg14
(g4398
g73
g469
g132
tp4446
Rp4447
(dp4448
btp4449
Rp4450
(dp4451
bag4406
(g124
g229
g14
(g4398
g18
g101
g36
tp4452
Rp4453
(dp4454
bg14
(g4398
g18
g29
g36
tp4455
Rp4456
(dp4457
bg14
(g4398
g73
g101
g36
tp4458
Rp4459
(dp4460
bg14
(g4398
g73
g223
g36
tp4461
Rp4462
(dp4463
bg14
(g4398
g73
g413
g36
tp4464
Rp4465
(dp4466
bg14
(g4398
g73
g427
g36
tp4467
Rp4468
(dp4469
bg14
(g4398
g73
g469
g36
tp4470
Rp4471
(dp4472
btp4473
Rp4474
(dp4475
bag4406
(g14
(g4398
g73
g101
g174
tp4476
Rp4477
(dp4478
bg14
(g4398
g73
g223
g174
tp4479
Rp4480
(dp4481
bg14
(g4398
g73
g413
g174
tp4482
Rp4483
(dp4484
bg14
(g4398
g73
g427
g174
tp4485
Rp4486
(dp4487
btp4488
Rp4489
(dp4490
bag4406
(g14
(g4398
g73
g286
g293
tp4491
Rp4492
(dp4493
bg14
(g4398
g73
g307
g293
tp4494
Rp4495
(dp4496
bg14
(g4398
g73
g202
g293
tp4497
Rp4498
(dp4499
bg14
(g4398
g73
g237
g293
tp4500
Rp4501
(dp4502
bg14
(g4398
g73
g413
g293
tp4503
Rp4504
(dp4505
btp4506
Rp4507
(dp4508
bag14
(g4398
g73
g497
g504
tp4509
Rp4510
(dp4511
bag4395
ag4395
ag4406
(g14
(g4398
g18
g115
tp4512
Rp4513
(dp4514
bg42
g14
(g4398
g52
g59
g115
tp4515
Rp4516
(dp4517
bg14
(g4398
g52
g115
g258
tp4518
Rp4519
(dp4520
bg14
(g4398
g73
g115
g101
tp4521
Rp4522
(dp4523
bg14
(g4398
g73
g115
g223
tp4524
Rp4525
(dp4526
bg14
(g4398
g73
g115
g413
tp4527
Rp4528
(dp4529
bg14
(g4398
g73
g115
g427
tp4530
Rp4531
(dp4532
bg14
(g4398
g73
g115
g469
tp4533
Rp4534
(dp4535
btp4536
Rp4537
(dp4538
bag4406
(g229
g419
g65
g264
g14
(g4398
g18
g101
g202
tp4539
Rp4540
(dp4541
bg14
(g4398
g18
g101
g36
tp4542
Rp4543
(dp4544
btp4545
Rp4546
(dp4547
bag93
ag4406
(g14
(g4398
g18
g223
tp4548
Rp4549
(dp4550
bg14
(g4398
g73
g402
tp4551
Rp4552
(dp4553
bg107
g166
g271
g14
(g4398
g73
g101
g223
tp4554
Rp4555
(dp4556
bg14
(g4398
g73
g223
g413
tp4557
Rp4558
(dp4559
bg14
(g4398
g73
g223
g427
tp4560
Rp4561
(dp4562
bg14
(g4398
g73
g223
g469
tp4563
Rp4564
(dp4565
btp4566
Rp4567
(dp4568
bag4406
(g138
g250
g440
g433
g517
tp4569
Rp4570
(dp4571
bag159
ag4406
(g180
g369
g566
g447
tp4572
Rp4573
(dp4574
bag4406
(g243
g419
g187
g383
g573
g524
g545
g14
(g4398
g18
g101
g202
tp4575
Rp4576
(dp4577
bg14
(g4398
g18
g202
g29
tp4578
Rp4579
(dp4580
btp4581
Rp4582
(dp4583
bag4406
(g14
(g4398
g18
g237
tp4584
Rp4585
(dp4586
bg208
g194
g390
g580
g531
g552
g14
(g4398
g52
g59
g237
tp4587
Rp4588
(dp4589
bg14
(g4398
g52
g258
g237
tp4590
Rp4591
(dp4592
btp4593
Rp4594
(dp4595
bag4406
(g405
g14
(g4398
g18
g413
tp4596
Rp4597
(dp4598
bg215
g362
g278
g376
g14
(g73
g223
g413
tp4599
Rp4600
(dp4601
bg538
g559
tp4602
Rp4603
(dp4604
bag4406
(g299
g313
g334
g341
g482
tp4605
Rp4606
(dp4607
bag4406
(g327
g14
(g4398
g455
g59
g427
tp4608
Rp4609
(dp4610
btp4611
Rp4612
(dp4613
bag4406
(g355
g14
(g4398
g455
g462
g469
tp4614
Rp4615
(dp4616
btp4617
Rp4618
(dp4619
bag510
asg612
I01
sS'compartments'
p4620
g0
(g912
g2
Ntp4621
Rp4622
(dp4623
g916
(dp4624
sg927
(lp4625
sg956
(dp4626
sbsS'monomers'
p4627
g0
(g912
g2
Ntp4628
Rp4629
(dp4630
g916
(dp4631
g1257
I8
sg2265
I38
sg4262
I66
sg1876
I43
sg2020
I35
sg711
I61
sg686
I3
sg640
I45
sg1203
I6
sg1313
I11
sg2267
I39
sg3376
I58
sg834
I34
sg811
I20
sg2669
I49
sg2017
I31
sg4208
I65
sg1860
I26
sg808
I15
sg802
I1
sg611
I67
sg4106
I64
sg2831
I52
sg2321
I41
sg815
I28
sg1259
I9
sg1151
I5
sg814
I25
sg2615
I48
sg810
I19
sg769
I17
sg807
I14
sg812
I21
sg2561
I47
sg805
I12
sg2938
I54
sg907
I62
sg813
I22
sg1205
I7
sg2777
I51
sg1965
I30
sg836
I33
sg1311
I10
sg4005
I63
sg770
I18
sg2319
I40
sg806
I13
sg2885
I53
sg3479
I59
sg1745
I23
sg2211
I36
sg884
I60
sg728
I55
sg2723
I50
sg664
I42
sg2019
I32
sg1747
I24
sg642
I44
sg1963
I29
sg2213
I37
sg1862
I27
sg688
I2
sg3225
I57
sg1149
I4
sg747
I56
sg689
I46
sg804
I0
sg809
I16
ssg927
(lp4632
g1050
ag781
ag763
ag681
ag1146
ag1161
ag1200
ag1215
ag1254
ag1269
ag1308
ag1323
ag1362
ag1376
ag1427
ag1441
ag1454
ag1517
ag1531
ag1626
ag1674
ag851
ag1695
ag1742
ag1757
ag1796
ag1857
ag1872
ag1920
ag1960
ag1975
ag2014
ag2030
ag2113
ag826
ag2168
ag2208
ag2223
ag2262
ag2277
ag2316
ag2331
ag657
ag2420
ag2460
ag633
ag2515
ag2555
ag2611
ag2665
ag2719
ag2773
ag2827
ag2881
ag2935
ag723
ag740
ag3220
ag3371
ag3474
ag877
ag704
ag902
ag4000
ag4101
ag4203
ag4257
ag606
asg956
(dp4633
g1257
g1254
sg2265
g2262
sg4262
g4257
sg1876
g2420
sg2020
g2168
sg711
g704
sg686
g681
sg640
g633
sg1203
g1200
sg1313
g1323
sg2267
g2277
sg3376
g3371
sg834
g826
sg811
g1674
sg2669
g2665
sg2017
g2014
sg4208
g4203
sg1860
g1857
sg808
g1441
sg802
g781
sg611
g606
sg4106
g4101
sg2831
g2827
sg2321
g2331
sg815
g1920
sg1259
g1269
sg1151
g1161
sg814
g1796
sg2615
g2611
sg810
g1626
sg769
g1517
sg807
g1427
sg812
g851
sg2561
g2555
sg805
g1362
sg2938
g2935
sg907
g902
sg813
g1695
sg1205
g1215
sg2777
g2773
sg1965
g1975
sg836
g2113
sg1311
g1308
sg4005
g4000
sg770
g1531
sg2319
g2316
sg806
g1376
sg2885
g2881
sg3479
g3474
sg1745
g1742
sg2211
g2208
sg884
g877
sg728
g723
sg2723
g2719
sg664
g657
sg2019
g2030
sg1747
g1757
sg642
g2460
sg1963
g1960
sg2213
g2223
sg1862
g1872
sg688
g763
sg3225
g3220
sg1149
g1146
sg747
g740
sg689
g2515
sg804
g1050
sg809
g1454
ssbsS'base'
p4634
NsS'annotations'
p4635
(lp4636
sS'reactions_bidirectional'
p4637
(lp4638
(dp4639
g9
g10
sg44
g45
sg13
g4406
(g14
(g4398
g18
g115
tp4640
Rp4641
(dp4642
bg42
tp4643
Rp4644
(dp4645
bsS'reversible'
p4646
I01
sg11
g12
sa(dp4647
g9
g48
sg44
g67
sg13
g65
sg4646
I00
sg11
g49
sa(dp4648
g9
g69
sg44
g95
sg13
g93
sg4646
I00
sg11
g70
sa(dp4649
g9
g97
sg44
g109
sg13
g4406
(g14
(g4398
g18
g223
tp4650
Rp4651
(dp4652
bg107
tp4653
Rp4654
(dp4655
bsg4646
I01
sg11
g98
sa(dp4656
g9
g128
sg44
g140
sg13
g138
sg4646
I00
sg11
g129
sa(dp4657
g9
g142
sg44
g161
sg13
g159
sg4646
I00
sg11
g143
sa(dp4658
g9
g163
sg44
g168
sg13
g166
sg4646
I00
sg11
g164
sa(dp4659
g9
g170
sg44
g182
sg13
g180
sg4646
I00
sg11
g171
sa(dp4660
g9
g184
sg44
g189
sg13
g187
sg4646
I00
sg11
g185
sa(dp4661
g9
g191
sg44
g196
sg13
g194
sg4646
I00
sg11
g192
sa(dp4662
g9
g198
sg44
g210
sg13
g4406
(g14
(g4398
g18
g237
tp4663
Rp4664
(dp4665
bg208
tp4666
Rp4667
(dp4668
bsg4646
I01
sg11
g199
sa(dp4669
g9
g212
sg44
g217
sg13
g4406
(g14
(g4398
g18
g413
tp4670
Rp4671
(dp4672
bg215
tp4673
Rp4674
(dp4675
bsg4646
I01
sg11
g213
sa(dp4676
g9
g247
sg44
g252
sg13
g250
sg4646
I00
sg11
g248
sa(dp4677
g9
g254
sg44
g266
sg13
g264
sg4646
I00
sg11
g255
sa(dp4678
g9
g268
sg44
g273
sg13
g271
sg4646
I00
sg11
g269
sa(dp4679
g9
g275
sg44
g280
sg13
g278
sg4646
I00
sg11
g276
sa(dp4680
g9
g282
sg44
g301
sg13
g299
sg4646
I00
sg11
g283
sa(dp4681
g9
g303
sg44
g315
sg13
g313
sg4646
I00
sg11
g304
sa(dp4682
g9
g317
sg44
g329
sg13
g327
sg4646
I00
sg11
g318
sa(dp4683
g9
g331
sg44
g336
sg13
g334
sg4646
I00
sg11
g332
sa(dp4684
g9
g338
sg44
g343
sg13
g341
sg4646
I00
sg11
g339
sa(dp4685
g9
g345
sg44
g357
sg13
g355
sg4646
I00
sg11
g346
sa(dp4686
g9
g359
sg44
g364
sg13
g362
sg4646
I00
sg11
g360
sa(dp4687
g9
g366
sg44
g371
sg13
g369
sg4646
I00
sg11
g367
sa(dp4688
g9
g373
sg44
g378
sg13
g376
sg4646
I00
sg11
g374
sa(dp4689
g9
g380
sg44
g385
sg13
g383
sg4646
I00
sg11
g381
sa(dp4690
g9
g387
sg44
g392
sg13
g390
sg4646
I00
sg11
g388
sa(dp4691
g9
g394
sg44
g407
sg13
g405
sg4646
I00
sg11
g395
sa(dp4692
g9
g423
sg44
g435
sg13
g433
sg4646
I00
sg11
g424
sa(dp4693
g9
g437
sg44
g442
sg13
g440
sg4646
I00
sg11
g438
sa(dp4694
g9
g444
sg44
g449
sg13
g447
sg4646
I00
sg11
g445
sa(dp4695
g9
g451
sg44
g477
sg13
g475
sg4646
I00
sg11
g452
sa(dp4696
g9
g479
sg44
g484
sg13
g482
sg4646
I00
sg11
g480
sa(dp4697
g9
g486
sg44
g491
sg13
g489
sg4646
I00
sg11
g487
sa(dp4698
g9
g493
sg44
g512
sg13
g510
sg4646
I00
sg11
g494
sa(dp4699
g9
g514
sg44
g519
sg13
g517
sg4646
I00
sg11
g515
sa(dp4700
g9
g521
sg44
g526
sg13
g524
sg4646
I00
sg11
g522
sa(dp4701
g9
g528
sg44
g533
sg13
g531
sg4646
I00
sg11
g529
sa(dp4702
g9
g535
sg44
g540
sg13
g538
sg4646
I00
sg11
g536
sa(dp4703
g9
g542
sg44
g547
sg13
g545
sg4646
I00
sg11
g543
sa(dp4704
g9
g549
sg44
g554
sg13
g552
sg4646
I00
sg11
g550
sa(dp4705
g9
g556
sg44
g561
sg13
g559
sg4646
I00
sg11
g557
sa(dp4706
g9
g563
sg44
g568
sg13
g566
sg4646
I00
sg11
g564
sa(dp4707
g9
g570
sg44
g575
sg13
g573
sg4646
I00
sg11
g571
sa(dp4708
g9
g577
sg44
g582
sg13
g580
sg4646
I00
sg11
g578
sa(dp4709
g9
g584
sg44
g589
sg13
g587
sg4646
I00
sg11
g585
sasS'observables'
p4710
g0
(g912
g2
Ntp4711
Rp4712
(dp4713
g916
(dp4714
S'MEKact'
p4715
I1
sS'ERKact'
p4716
I0
ssg927
(lp4717
cpysb.core
Observable
p4718
(g4716
g0
(g1036
g2
Ntp4719
Rp4720
(dp4721
g1040
(lp4722
g0
(g592
g2
Ntp4723
Rp4724
(dp4725
g596
Nsg597
(lp4726
g0
(g599
g2
Ntp4727
Rp4728
(dp4729
g596
Nsg603
g851
sg615
(dp4730
g794
g888
ssbasg617
I00
sbasbS'molecules'
p4731
I00
tp4732
Rp4733
(dp4734
S'coefficients'
p4735
(lp4736
I1
asS'reaction_pattern'
p4737
g4720
sS'match'
p4738
g4731
sg612
I00
sS'species'
p4739
(lp4740
I26
asbag4718
(g4715
g0
(g1036
g2
Ntp4741
Rp4742
(dp4743
g1040
(lp4744
g0
(g592
g2
Ntp4745
Rp4746
(dp4747
g596
Nsg597
(lp4748
g0
(g599
g2
Ntp4749
Rp4750
(dp4751
g596
Nsg603
g826
sg615
(dp4752
g794
g888
ssbasg617
I00
sbasbg4731
I00
tp4753
Rp4754
(dp4755
g4735
(lp4756
I1
asg4737
g4742
sg4738
g4731
sg612
I00
sg4739
(lp4757
I23
asbasg956
(dp4758
g4715
g4754
sg4716
g4733
ssbsS'expressions'
p4759
g0
(g912
g2
Ntp4760
Rp4761
(dp4762
g916
(dp4763
sg927
(lp4764
sg956
(dp4765
sbsg4739
(lp4766
g0
(g592
g2
Ntp4767
Rp4768
(dp4769
g596
Nsg597
(lp4770
g0
(g599
g2
Ntp4771
Rp4772
(dp4773
g596
Nsg603
g606
sg615
(dp4774
sbasg617
I00
sbag0
(g592
g2
Ntp4775
Rp4776
(dp4777
g596
Nsg597
(lp4778
g0
(g599
g2
Ntp4779
Rp4780
(dp4781
g596
Nsg603
g633
sg615
(dp4782
S'ERBB2'
p4783
NsS'Kinase'
p4784
S'inactive'
p4785
ssbasg617
I00
sbag0
(g592
g2
Ntp4786
Rp4787
(dp4788
g596
Nsg597
(lp4789
g0
(g599
g2
Ntp4790
Rp4791
(dp4792
g596
Nsg603
g657
sg615
(dp4793
S'GRB2'
p4794
NsS'Catalytic'
p4795
S'inactive'
p4796
ssbasg617
I00
sbag0
(g592
g2
Ntp4797
Rp4798
(dp4799
g596
Nsg597
(lp4800
g0
(g599
g2
Ntp4801
Rp4802
(dp4803
g596
Nsg603
g681
sg615
(dp4804
S'BRAF'
p4805
NsS'GtpBound'
p4806
S'inactive'
p4807
sS'BCL2'
p4808
Nssbasg617
I00
sbag0
(g592
g2
Ntp4809
Rp4810
(dp4811
g596
Nsg597
(lp4812
g0
(g599
g2
Ntp4813
Rp4814
(dp4815
g596
Nsg603
g704
sg615
(dp4816
S'GtpBound'
p4817
S'inactive'
p4818
ssbasg617
I00
sbag0
(g592
g2
Ntp4819
Rp4820
(dp4821
g596
Nsg597
(lp4822
g0
(g599
g2
Ntp4823
Rp4824
(dp4825
g596
Nsg603
g723
sg615
(dp4826
S'GtpBound'
p4827
S'inactive'
p4828
ssbasg617
I00
sbag0
(g592
g2
Ntp4829
Rp4830
(dp4831
g596
Nsg597
(lp4832
g0
(g599
g2
Ntp4833
Rp4834
(dp4835
g596
Nsg603
g740
sg615
(dp4836
S'Kinase'
p4837
S'inactive'
p4838
ssbasg617
I00
sbag0
(g592
g2
Ntp4839
Rp4840
(dp4841
g596
Nsg597
(lp4842
g0
(g599
g2
Ntp4843
Rp4844
(dp4845
g596
Nsg603
g763
sg615
(dp4846
S'HRAS'
p4847
NsS'PRKCE'
p4848
NsS'Kinase'
p4849
S'inactive'
p4850
sS'RPS6KB2'
p4851
Nssbasg617
I00
sbag0
(g592
g2
Ntp4852
Rp4853
(dp4854
g596
Nsg597
(lp4855
g0
(g599
g2
Ntp4856
Rp4857
(dp4858
g596
Nsg603
g781
sg615
(dp4859
S'Y340'
p4860
g786
sS'PEBP1'
p4861
NsS'YWHAQ'
p4862
NsS'PRKCZ'
p4863
NsS'S259'
p4864
g786
sS'S499'
p4865
g786
sS'Kinase'
p4866
S'inactive'
p4867
sS'RB1'
p4868
NsS'CFLAR'
p4869
NsS'MAPK1'
p4870
NsS'ARRB2'
p4871
NsS'P3579'
p4872
NsS'S43'
p4873
g786
sS'YWHAB'
p4874
NsS'Y341'
p4875
g786
sS'S339'
p4876
g786
sS'KRT8'
p4877
NsS'PAK2'
p4878
NsS'KRT18'
p4879
Nssbasg617
I00
sbag0
(g592
g2
Ntp4880
Rp4881
(dp4882
g596
Nsg597
(lp4883
g0
(g599
g2
Ntp4884
Rp4885
(dp4886
g596
Nsg603
g826
sg615
(dp4887
S'S'
p4888
g786
sS'T25'
p4889
g786
sS'GIT1'
p4890
NsS'Kinase'
p4891
S'inactive'
p4892
ssbasg617
I00
sbag0
(g592
g2
Ntp4893
Rp4894
(dp4895
g596
Nsg597
(lp4896
g0
(g599
g2
Ntp4897
Rp4898
(dp4899
g596
Nsg603
g851
sg615
(dp4900
S'T185'
p4901
g786
sS'Kinase'
p4902
S'inactive'
p4903
sS'Y187'
p4904
g786
sS'ARRB2'
p4905
NsS'P3579'
p4906
NsS'Y'
p4907
g786
sS'RAF1'
p4908
Nssbasg617
I00
sbag0
(g592
g2
Ntp4909
Rp4910
(dp4911
g596
Nsg597
(lp4912
g0
(g599
g2
Ntp4913
Rp4914
(dp4915
g596
Nsg603
g877
sg615
(dp4916
S'Catalytic'
p4917
S'active'
p4918
ssbasg617
I00
sbag0
(g592
g2
Ntp4919
Rp4920
(dp4921
g596
Nsg597
(lp4922
g0
(g599
g2
Ntp4923
Rp4924
(dp4925
g596
Nsg603
g902
sg615
(dp4926
S'Catalytic'
p4927
S'active'
p4928
ssbasg617
I00
sbag0
(g592
g2
Ntp4929
Rp4930
(dp4931
g596
Nsg597
(lp4932
g0
(g599
g2
Ntp4933
Rp4934
(dp4935
g596
Nsg603
g763
sg615
(dp4936
S'HRAS'
p4937
I1
sS'PRKCE'
p4938
NsS'Kinase'
p4939
S'inactive'
p4940
sS'RPS6KB2'
p4941
Nssbag0
(g599
g2
Ntp4942
Rp4943
(dp4944
g596
Nsg603
g681
sg615
(dp4945
S'BRAF'
p4946
I1
sS'GtpBound'
p4947
S'inactive'
p4948
sS'BCL2'
p4949
Nssbasg617
I00
sbag0
(g592
g2
Ntp4950
Rp4951
(dp4952
g596
Nsg597
(lp4953
g0
(g599
g2
Ntp4954
Rp4955
(dp4956
g596
Nsg603
g681
sg615
(dp4957
S'BRAF'
p4958
NsS'GtpBound'
p4959
S'active'
p4960
sS'BCL2'
p4961
Nssbasg617
I00
sbag0
(g592
g2
Ntp4962
Rp4963
(dp4964
g596
Nsg597
(lp4965
g0
(g599
g2
Ntp4966
Rp4967
(dp4968
g596
Nsg603
g633
sg615
(dp4969
S'ERBB2'
p4970
NsS'Kinase'
p4971
S'active'
p4972
ssbasg617
I00
sbag0
(g592
g2
Ntp4973
Rp4974
(dp4975
g596
Nsg597
(lp4976
g0
(g599
g2
Ntp4977
Rp4978
(dp4979
g596
Nsg603
g763
sg615
(dp4980
S'HRAS'
p4981
I1
sS'PRKCE'
p4982
NsS'Kinase'
p4983
S'inactive'
p4984
sS'RPS6KB2'
p4985
Nssbag0
(g599
g2
Ntp4986
Rp4987
(dp4988
g596
Nsg603
g681
sg615
(dp4989
S'BRAF'
p4990
I1
sS'GtpBound'
p4991
S'active'
p4992
sS'BCL2'
p4993
Nssbasg617
I00
sbag0
(g592
g2
Ntp4994
Rp4995
(dp4996
g596
Nsg597
(lp4997
g0
(g599
g2
Ntp4998
Rp4999
(dp5000
g596
Nsg603
g740
sg615
(dp5001
S'Kinase'
p5002
S'active'
p5003
ssbasg617
I00
sbag0
(g592
g2
Ntp5004
Rp5005
(dp5006
g596
Nsg597
(lp5007
g0
(g599
g2
Ntp5008
Rp5009
(dp5010
g596
Nsg603
g657
sg615
(dp5011
S'GRB2'
p5012
NsS'Catalytic'
p5013
S'active'
p5014
ssbasg617
I00
sbag0
(g592
g2
Ntp5015
Rp5016
(dp5017
g596
Nsg597
(lp5018
g0
(g599
g2
Ntp5019
Rp5020
(dp5021
g596
Nsg603
g781
sg615
(dp5022
S'Y340'
p5023
g786
sS'PEBP1'
p5024
NsS'YWHAQ'
p5025
NsS'PRKCZ'
p5026
NsS'S259'
p5027
g786
sS'S499'
p5028
g786
sS'Kinase'
p5029
S'active'
p5030
sS'RB1'
p5031
NsS'CFLAR'
p5032
NsS'MAPK1'
p5033
NsS'ARRB2'
p5034
NsS'P3579'
p5035
NsS'S43'
p5036
g786
sS'YWHAB'
p5037
NsS'Y341'
p5038
g786
sS'S339'
p5039
g786
sS'KRT8'
p5040
NsS'PAK2'
p5041
NsS'KRT18'
p5042
Nssbasg617
I00
sbag0
(g592
g2
Ntp5043
Rp5044
(dp5045
g596
Nsg597
(lp5046
g0
(g599
g2
Ntp5047
Rp5048
(dp5049
g596
Nsg603
g763
sg615
(dp5050
S'HRAS'
p5051
NsS'PRKCE'
p5052
NsS'Kinase'
p5053
S'active'
p5054
sS'RPS6KB2'
p5055
Nssbasg617
I00
sbag0
(g592
g2
Ntp5056
Rp5057
(dp5058
g596
Nsg597
(lp5059
g0
(g599
g2
Ntp5060
Rp5061
(dp5062
g596
Nsg603
g763
sg615
(dp5063
S'HRAS'
p5064
I1
sS'PRKCE'
p5065
NsS'Kinase'
p5066
S'active'
p5067
sS'RPS6KB2'
p5068
Nssbag0
(g599
g2
Ntp5069
Rp5070
(dp5071
g596
Nsg603
g681
sg615
(dp5072
S'BRAF'
p5073
I1
sS'GtpBound'
p5074
S'inactive'
p5075
sS'BCL2'
p5076
Nssbasg617
I00
sbag0
(g592
g2
Ntp5077
Rp5078
(dp5079
g596
Nsg597
(lp5080
g0
(g599
g2
Ntp5081
Rp5082
(dp5083
g596
Nsg603
g763
sg615
(dp5084
S'HRAS'
p5085
I1
sS'PRKCE'
p5086
NsS'Kinase'
p5087
S'active'
p5088
sS'RPS6KB2'
p5089
Nssbag0
(g599
g2
Ntp5090
Rp5091
(dp5092
g596
Nsg603
g681
sg615
(dp5093
S'BRAF'
p5094
I1
sS'GtpBound'
p5095
S'active'
p5096
sS'BCL2'
p5097
Nssbasg617
I00
sbag0
(g592
g2
Ntp5098
Rp5099
(dp5100
g596
Nsg597
(lp5101
g0
(g599
g2
Ntp5102
Rp5103
(dp5104
g596
Nsg603
g826
sg615
(dp5105
g4888
g786
sS'T25'
p5106
g786
sS'GIT1'
p5107
NsS'Kinase'
p5108
S'active'
p5109
ssbasg617
I00
sbag0
(g592
g2
Ntp5110
Rp5111
(dp5112
g596
Nsg597
(lp5113
g0
(g599
g2
Ntp5114
Rp5115
(dp5116
g596
Nsg603
g723
sg615
(dp5117
S'GtpBound'
p5118
S'active'
p5119
ssbasg617
I00
sbag0
(g592
g2
Ntp5120
Rp5121
(dp5122
g596
Nsg597
(lp5123
g0
(g599
g2
Ntp5124
Rp5125
(dp5126
g596
Nsg603
g704
sg615
(dp5127
S'GtpBound'
p5128
S'active'
p5129
ssbasg617
I00
sbag0
(g592
g2
Ntp5130
Rp5131
(dp5132
g596
Nsg597
(lp5133
g0
(g599
g2
Ntp5134
Rp5135
(dp5136
g596
Nsg603
g851
sg615
(dp5137
S'T185'
p5138
g786
sS'Kinase'
p5139
S'active'
p5140
sS'Y187'
p5141
g786
sS'ARRB2'
p5142
NsS'P3579'
p5143
Nsg4907
g786
sS'RAF1'
p5144
Nssbasg617
I00
sbasb.