ccopy_reg
_reconstructor
p0
(cpysb.core
Model
p1
c__builtin__
object
p2
Ntp3
Rp4
(dp5
S'reactions'
p6
(lp7
(dp8
S'reactants'
p9
(I3
I7
tp10
sS'products'
p11
(I13
tp12
sS'rate'
p13
csympy.core.mul
Mul
p14
(csympy.core.symbol
Symbol
p15
(S'kf_bind'
p16
tp17
Rp18
(dp19
S'_assumptions'
p20
g0
(csympy.core.assumptions
StdFactKB
p21
c__builtin__
dict
p22
(dp23
S'commutative'
p24
I01
stp25
Rp26
sbg15
(S's3'
p27
tp28
Rp29
(dp30
g20
g0
(g21
g22
(dp31
g24
I01
stp32
Rp33
sbg15
(S's7'
p34
tp35
Rp36
(dp37
g20
g0
(g21
g22
(dp38
g24
I01
stp39
Rp40
sbtp41
Rp42
(dp43
bsS'rule'
p44
S'BRAF_HRAS_bind'
p45
sS'reverse'
p46
I00
sa(dp47
g9
(I3
I12
tp48
sg11
(I12
I14
tp49
sg13
g14
(g15
(S'kf_gef'
p50
tp51
Rp52
(dp53
g20
g0
(g21
g22
(dp54
g24
I01
stp55
Rp56
sbg15
(S's12'
p57
tp58
Rp59
(dp60
g20
g0
(g21
g22
(dp61
g24
I01
stp62
Rp63
sbg29
tp64
Rp65
(dp66
bsg44
S'RASA3_activates_HRAS'
p67
sg46
I00
sa(dp68
g9
(I0
I1
tp69
sg11
(I0
I15
tp70
sg13
g14
(g15
(S'kf_one_step_activate'
p71
tp72
Rp73
(dp74
g20
g0
(g21
g22
(dp75
g24
I01
stp76
Rp77
sbg15
(S's0'
p78
tp79
Rp80
(dp81
g20
g0
(g21
g22
(dp82
g24
I01
stp83
Rp84
sbg15
(S's1'
p85
tp86
Rp87
(dp88
g20
g0
(g21
g22
(dp89
g24
I01
stp90
Rp91
sbtp92
Rp93
(dp94
bsg44
S'EGF_activates_EGFR'
p95
sg46
I00
sa(dp96
g9
(I7
I14
tp97
sg11
(I16
tp98
sg13
g14
(g18
g15
(S's14'
p99
tp100
Rp101
(dp102
g20
g0
(g21
g22
(dp103
g24
I01
stp104
Rp105
sbg36
tp106
Rp107
(dp108
bsg44
S'BRAF_HRAS_bind'
p109
sg46
I00
sa(dp110
g9
(I13
tp111
sg11
(I3
I7
tp112
sg13
g14
(g18
g15
(S's13'
p113
tp114
Rp115
(dp116
g20
g0
(g21
g22
(dp117
g24
I01
stp118
Rp119
sbtp120
Rp121
(dp122
bsg44
S'BRAF_HRAS_bind'
p123
sg46
I01
sa(dp124
g9
(I8
I14
tp125
sg11
(I14
I17
tp126
sg13
g14
(g73
g101
g15
(S's8'
p127
tp128
Rp129
(dp130
g20
g0
(g21
g22
(dp131
g24
I01
stp132
Rp133
sbtp134
Rp135
(dp136
bsg44
S'HRAS_GtpBound_activates_RAF1_Kinase'
p137
sg46
I00
sa(dp138
g9
(I6
I14
tp139
sg11
(I14
I18
tp140
sg13
g14
(g73
g101
g15
(S's6'
p141
tp142
Rp143
(dp144
g20
g0
(g21
g22
(dp145
g24
I01
stp146
Rp147
sbtp148
Rp149
(dp150
bsg44
S'HRAS_GtpBound_activates_ARAF_Kinase'
p151
sg46
I00
sa(dp152
g9
(I12
I13
tp153
sg11
(I12
I16
tp154
sg13
g14
(g52
g59
g115
tp155
Rp156
(dp157
bsg44
S'RASA3_activates_HRAS'
p158
sg46
I00
sa(dp159
g9
(I7
I14
tp160
sg11
(I14
I19
tp161
sg13
g14
(g73
g101
g36
tp162
Rp163
(dp164
bsg44
S'HRAS_GtpBound_activates_BRAF_Kinase'
p165
sg46
I00
sa(dp166
g9
(I13
I14
tp167
sg11
(I14
I20
tp168
sg13
g14
(g73
g115
g101
tp169
Rp170
(dp171
bsg44
S'HRAS_GtpBound_activates_BRAF_Kinase'
p172
sg46
I00
sa(dp173
g9
(I2
I15
tp174
sg11
(I15
I21
tp175
sg13
g14
(g73
g15
(S's15'
p176
tp177
Rp178
(dp179
g20
g0
(g21
g22
(dp180
g24
I01
stp181
Rp182
sbg15
(S's2'
p183
tp184
Rp185
(dp186
g20
g0
(g21
g22
(dp187
g24
I01
stp188
Rp189
sbtp190
Rp191
(dp192
bsg44
S'EGFR_Kinase_activates_SOS1_Catalytic'
p193
sg46
I00
sa(dp194
g9
(I3
I19
tp195
sg11
(I20
tp196
sg13
g14
(g18
g15
(S's19'
p197
tp198
Rp199
(dp200
g20
g0
(g21
g22
(dp201
g24
I01
stp202
Rp203
sbg29
tp204
Rp205
(dp206
bsg44
S'BRAF_HRAS_bind'
p207
sg46
I00
sa(dp208
g9
(I14
I19
tp209
sg11
(I22
tp210
sg13
g14
(g18
g101
g199
tp211
Rp212
(dp213
bsg44
S'BRAF_HRAS_bind'
p214
sg46
I00
sa(dp215
g9
(I16
tp216
sg11
(I7
I14
tp217
sg13
g14
(g18
g15
(S's16'
p218
tp219
Rp220
(dp221
g20
g0
(g21
g22
(dp222
g24
I01
stp223
Rp224
sbtp225
Rp226
(dp227
bsg44
S'BRAF_HRAS_bind'
p228
sg46
I01
sa(dp229
g9
(I20
tp230
sg11
(I3
I19
tp231
sg13
g14
(g18
g15
(S's20'
p232
tp233
Rp234
(dp235
g20
g0
(g21
g22
(dp236
g24
I01
stp237
Rp238
sbtp239
Rp240
(dp241
bsg44
S'BRAF_HRAS_bind'
p242
sg46
I01
sa(dp243
g9
(I5
I21
tp244
sg11
(I21
I23
tp245
sg13
g14
(g52
g15
(S's21'
p246
tp247
Rp248
(dp249
g20
g0
(g21
g22
(dp250
g24
I01
stp251
Rp252
sbg15
(S's5'
p253
tp254
Rp255
(dp256
g20
g0
(g21
g22
(dp257
g24
I01
stp258
Rp259
sbtp260
Rp261
(dp262
bsg44
S'SOS1_activates_KRAS'
p263
sg46
I00
sa(dp264
g9
(I8
I16
tp265
sg11
(I16
I17
tp266
sg13
g14
(g73
g220
g129
tp267
Rp268
(dp269
bsg44
S'HRAS_GtpBound_activates_RAF1_Kinase'
p270
sg46
I00
sa(dp271
g9
(I3
I21
tp272
sg11
(I14
I21
tp273
sg13
g14
(g52
g248
g29
tp274
Rp275
(dp276
bsg44
S'SOS1_activates_HRAS'
p277
sg46
I00
sa(dp278
g9
(I13
I21
tp279
sg11
(I16
I21
tp280
sg13
g14
(g52
g115
g248
tp281
Rp282
(dp283
bsg44
S'SOS1_activates_HRAS'
p284
sg46
I00
sa(dp285
g9
(I20
I21
tp286
sg11
(I21
I22
tp287
sg13
g14
(g52
g234
g248
tp288
Rp289
(dp290
bsg44
S'SOS1_activates_HRAS'
p291
sg46
I00
sa(dp292
g9
(I6
I16
tp293
sg11
(I16
I18
tp294
sg13
g14
(g73
g220
g143
tp295
Rp296
(dp297
bsg44
S'HRAS_GtpBound_activates_ARAF_Kinase'
p298
sg46
I00
sa(dp299
g9
(I9
I17
tp300
sg11
(I17
I24
tp301
sg13
g14
(g73
g15
(S's17'
p302
tp303
Rp304
(dp305
g20
g0
(g21
g22
(dp306
g24
I01
stp307
Rp308
sbg15
(S's9'
p309
tp310
Rp311
(dp312
g20
g0
(g21
g22
(dp313
g24
I01
stp314
Rp315
sbtp316
Rp317
(dp318
bsg44
S'RAF1_Kinase_activates_MAP2K1_Kinase'
p319
sg46
I00
sa(dp320
g9
(I4
I21
tp321
sg11
(I21
I25
tp322
sg13
g14
(g52
g248
g15
(S's4'
p323
tp324
Rp325
(dp326
g20
g0
(g21
g22
(dp327
g24
I01
stp328
Rp329
sbtp330
Rp331
(dp332
bsg44
S'SOS1_activates_NRAS'
p333
sg46
I00
sa(dp334
g9
(I9
I18
tp335
sg11
(I18
I24
tp336
sg13
g14
(g73
g15
(S's18'
p337
tp338
Rp339
(dp340
g20
g0
(g21
g22
(dp341
g24
I01
stp342
Rp343
sbg311
tp344
Rp345
(dp346
bsg44
S'ARAF_Kinase_activates_MAP2K1_Kinase'
p347
sg46
I00
sa(dp348
g9
(I12
I20
tp349
sg11
(I12
I22
tp350
sg13
g14
(g52
g59
g234
tp351
Rp352
(dp353
bsg44
S'RASA3_activates_HRAS'
p354
sg46
I00
sa(dp355
g9
(I14
I16
tp356
sg11
(I14
I22
tp357
sg13
g14
(g73
g101
g220
tp358
Rp359
(dp360
bsg44
S'HRAS_GtpBound_activates_BRAF_Kinase'
p361
sg46
I00
sa(dp362
g9
(I7
I16
tp363
sg11
(I16
I19
tp364
sg13
g14
(g73
g220
g36
tp365
Rp366
(dp367
bsg44
S'HRAS_GtpBound_activates_BRAF_Kinase'
p368
sg46
I00
sa(dp369
g9
(I13
I16
tp370
sg11
(I16
I20
tp371
sg13
g14
(g73
g115
g220
tp372
Rp373
(dp374
bsg44
S'HRAS_GtpBound_activates_BRAF_Kinase'
p375
sg46
I00
sa(dp376
g9
(I16
I16
tp377
sg11
(I16
I22
tp378
sg13
g14
(g73
csympy.core.power
Pow
p379
(g220
csympy.core.numbers
Integer
p380
(I2
tp381
Rp382
(dp383
btp384
Rp385
(dp386
btp387
Rp388
(dp389
bsg44
S'HRAS_GtpBound_activates_BRAF_Kinase'
p390
sg46
I00
sa(dp391
g9
(I9
I19
tp392
sg11
(I19
I24
tp393
sg13
g14
(g73
g199
g311
tp394
Rp395
(dp396
bsg44
S'BRAF_Kinase_activates_MAP2K1_Kinase'
p397
sg46
I00
sa(dp398
g9
(I9
I20
tp399
sg11
(I20
I24
tp400
sg13
g14
(g73
g234
g311
tp401
Rp402
(dp403
bsg44
S'BRAF_Kinase_activates_MAP2K1_Kinase'
p404
sg46
I00
sa(dp405
g9
(I22
tp406
sg11
(I14
I19
tp407
sg13
g14
(g18
g15
(S's22'
p408
tp409
Rp410
(dp411
g20
g0
(g21
g22
(dp412
g24
I01
stp413
Rp414
sbtp415
Rp416
(dp417
bsg44
S'BRAF_HRAS_bind'
p418
sg46
I01
sa(dp419
g9
(I12
I23
tp420
sg11
(I5
I12
tp421
sg13
g14
(g15
(S'kf_gap'
p422
tp423
Rp424
(dp425
g20
g0
(g21
g22
(dp426
g24
I01
stp427
Rp428
sbg59
g15
(S's23'
p429
tp430
Rp431
(dp432
g20
g0
(g21
g22
(dp433
g24
I01
stp434
Rp435
sbtp436
Rp437
(dp438
bsg44
S'RASA3_inactivates_KRAS'
p439
sg46
I00
sa(dp440
g9
(I8
I22
tp441
sg11
(I17
I22
tp442
sg13
g14
(g73
g410
g129
tp443
Rp444
(dp445
bsg44
S'HRAS_GtpBound_activates_RAF1_Kinase'
p446
sg46
I00
sa(dp447
g9
(I6
I22
tp448
sg11
(I18
I22
tp449
sg13
g14
(g73
g410
g143
tp450
Rp451
(dp452
bsg44
S'HRAS_GtpBound_activates_ARAF_Kinase'
p453
sg46
I00
sa(dp454
g9
(I11
I25
tp455
sg11
(I4
I11
tp456
sg13
g14
(g424
g15
(S's11'
p457
tp458
Rp459
(dp460
g20
g0
(g21
g22
(dp461
g24
I01
stp462
Rp463
sbg15
(S's25'
p464
tp465
Rp466
(dp467
g20
g0
(g21
g22
(dp468
g24
I01
stp469
Rp470
sbtp471
Rp472
(dp473
bsg44
S'RASA2_inactivates_NRAS'
p474
sg46
I00
sa(dp475
g9
(I6
I23
tp476
sg11
(I18
I23
tp477
sg13
g14
(g73
g431
g143
tp478
Rp479
(dp480
bsg44
S'KRAS_GtpBound_activates_ARAF_Kinase'
p481
sg46
I00
sa(dp482
g9
(I8
I23
tp483
sg11
(I17
I23
tp484
sg13
g14
(g73
g431
g129
tp485
Rp486
(dp487
bsg44
S'KRAS_GtpBound_activates_RAF1_Kinase'
p488
sg46
I00
sa(dp489
g9
(I10
I24
tp490
sg11
(I24
I26
tp491
sg13
g14
(g73
g15
(S's10'
p492
tp493
Rp494
(dp495
g20
g0
(g21
g22
(dp496
g24
I01
stp497
Rp498
sbg15
(S's24'
p499
tp500
Rp501
(dp502
g20
g0
(g21
g22
(dp503
g24
I01
stp504
Rp505
sbtp506
Rp507
(dp508
bsg44
S'MAP2K1_Kinase_activates_MAPK1_Kinase'
p509
sg46
I00
sa(dp510
g9
(I7
I22
tp511
sg11
(I19
I22
tp512
sg13
g14
(g73
g410
g36
tp513
Rp514
(dp515
bsg44
S'HRAS_GtpBound_activates_BRAF_Kinase'
p516
sg46
I00
sa(dp517
g9
(I13
I22
tp518
sg11
(I20
I22
tp519
sg13
g14
(g73
g115
g410
tp520
Rp521
(dp522
bsg44
S'HRAS_GtpBound_activates_BRAF_Kinase'
p523
sg46
I00
sa(dp524
g9
(I16
I22
tp525
sg11
(I22
I22
tp526
sg13
g14
(g73
g220
g410
tp527
Rp528
(dp529
bsg44
S'HRAS_GtpBound_activates_BRAF_Kinase'
p530
sg46
I00
sa(dp531
g9
(I9
I22
tp532
sg11
(I22
I24
tp533
sg13
g14
(g73
g410
g311
tp534
Rp535
(dp536
bsg44
S'BRAF_Kinase_activates_MAP2K1_Kinase'
p537
sg46
I00
sa(dp538
g9
(I6
I25
tp539
sg11
(I18
I25
tp540
sg13
g14
(g73
g466
g143
tp541
Rp542
(dp543
bsg44
S'NRAS_GtpBound_activates_ARAF_Kinase'
p544
sg46
I00
sa(dp545
g9
(I7
I25
tp546
sg11
(I19
I25
tp547
sg13
g14
(g73
g466
g36
tp548
Rp549
(dp550
bsg44
S'NRAS_GtpBound_activates_BRAF_Kinase'
p551
sg46
I00
sa(dp552
g9
(I13
I25
tp553
sg11
(I20
I25
tp554
sg13
g14
(g73
g115
g466
tp555
Rp556
(dp557
bsg44
S'NRAS_GtpBound_activates_BRAF_Kinase'
p558
sg46
I00
sa(dp559
g9
(I16
I25
tp560
sg11
(I22
I25
tp561
sg13
g14
(g73
g220
g466
tp562
Rp563
(dp564
bsg44
S'NRAS_GtpBound_activates_BRAF_Kinase'
p565
sg46
I00
sa(dp566
g9
(I7
I23
tp567
sg11
(I19
I23
tp568
sg13
g14
(g73
g431
g36
tp569
Rp570
(dp571
bsg44
S'KRAS_GtpBound_activates_BRAF_Kinase'
p572
sg46
I00
sa(dp573
g9
(I13
I23
tp574
sg11
(I20
I23
tp575
sg13
g14
(g73
g115
g431
tp576
Rp577
(dp578
bsg44
S'KRAS_GtpBound_activates_BRAF_Kinase'
p579
sg46
I00
sa(dp580
g9
(I16
I23
tp581
sg11
(I22
I23
tp582
sg13
g14
(g73
g220
g431
tp583
Rp584
(dp585
bsg44
S'KRAS_GtpBound_activates_BRAF_Kinase'
p586
sg46
I00
sasS'initial_conditions'
p587
(lp588
(g0
(cpysb.core
ComplexPattern
p589
g2
Ntp590
Rp591
(dp592
S'compartment'
p593
NsS'monomer_patterns'
p594
(lp595
g0
(cpysb.core
MonomerPattern
p596
g2
Ntp597
Rp598
(dp599
g593
NsS'monomer'
p600
g0
(cpysb.core
Monomer
p601
g2
Ntp602
Rp603
(dp604
S'site_states'
p605
(dp606
sS'name'
p607
S'EGF'
p608
sS'_export'
p609
I00
sS'sites'
p610
(lp611
sbsS'site_conditions'
p612
(dp613
sbasS'match_once'
p614
I00
sbcpysb.core
Parameter
p615
(S'EGF_0'
p616
F10000.0
I00
tp617
Rp618
(dp619
g609
I00
sS'value'
p620
F10000.0
sbtp621
a(g0
(g589
g2
Ntp622
Rp623
(dp624
g593
Nsg594
(lp625
g0
(g596
g2
Ntp626
Rp627
(dp628
g593
Nsg600
g0
(g601
g2
Ntp629
Rp630
(dp631
g605
(dp632
S'Kinase'
p633
(lp634
S'inactive'
p635
aS'active'
p636
assg607
S'EGFR'
p637
sg609
I00
sg610
(lp638
S'ERBB2'
p639
ag633
asbsg612
(dp640
g639
Nsg633
g635
ssbasg614
I00
sbg615
(S'EGFR_0'
p641
F70000.0
I00
tp642
Rp643
(dp644
g609
I00
sg620
F70000.0
sbtp645
a(g0
(g589
g2
Ntp646
Rp647
(dp648
g593
Nsg594
(lp649
g0
(g596
g2
Ntp650
Rp651
(dp652
g593
Nsg600
g0
(g601
g2
Ntp653
Rp654
(dp655
g605
(dp656
S'Catalytic'
p657
(lp658
S'inactive'
p659
aS'active'
p660
assg607
S'SOS1'
p661
sg609
I00
sg610
(lp662
S'GRB2'
p663
ag657
asbsg612
(dp664
g663
Nsg657
g659
ssbasg614
I00
sbg615
(S'SOS_0'
p665
F5000000.0
I00
tp666
Rp667
(dp668
g609
I00
sg620
F5000000.0
sbtp669
a(g0
(g589
g2
Ntp670
Rp671
(dp672
g593
Nsg594
(lp673
g0
(g596
g2
Ntp674
Rp675
(dp676
g593
Nsg600
g0
(g601
g2
Ntp677
Rp678
(dp679
g605
(dp680
S'GtpBound'
p681
(lp682
g635
ag636
assg607
S'HRAS'
p683
sg609
I00
sg610
(lp684
S'BRAF'
p685
aS'BCL2'
p686
ag681
asbsg612
(dp687
g686
Nsg685
Nsg681
g635
ssbasg614
I00
sbg615
(S'RAS_0'
p688
F58000.0
I00
tp689
Rp690
(dp691
g609
I00
sg620
F58000.0
sbtp692
a(g0
(g589
g2
Ntp693
Rp694
(dp695
g593
Nsg594
(lp696
g0
(g596
g2
Ntp697
Rp698
(dp699
g593
Nsg600
g0
(g601
g2
Ntp700
Rp701
(dp702
g605
(dp703
S'GtpBound'
p704
(lp705
S'inactive'
p706
aS'active'
p707
assg607
S'NRAS'
p708
sg609
I00
sg610
(lp709
g704
asbsg612
(dp710
g704
g706
ssbasg614
I00
sbg690
tp711
a(g0
(g589
g2
Ntp712
Rp713
(dp714
g593
Nsg594
(lp715
g0
(g596
g2
Ntp716
Rp717
(dp718
g593
Nsg600
g0
(g601
g2
Ntp719
Rp720
(dp721
g605
(dp722
g704
(lp723
S'inactive'
p724
aS'active'
p725
assg607
S'KRAS'
p726
sg609
I00
sg610
(lp727
g704
asbsg612
(dp728
g704
g724
ssbasg614
I00
sbg690
tp729
a(g0
(g589
g2
Ntp730
Rp731
(dp732
g593
Nsg594
(lp733
g0
(g596
g2
Ntp734
Rp735
(dp736
g593
Nsg600
g0
(g601
g2
Ntp737
Rp738
(dp739
g605
(dp740
S'Kinase'
p741
(lp742
S'inactive'
p743
aS'active'
p744
assg607
S'ARAF'
p745
sg609
I00
sg610
(lp746
g741
asbsg612
(dp747
g741
g743
ssbasg614
I00
sbg615
(S'RAF_0'
p748
F40000.0
I00
tp749
Rp750
(dp751
g609
I00
sg620
F40000.0
sbtp752
a(g0
(g589
g2
Ntp753
Rp754
(dp755
g593
Nsg594
(lp756
g0
(g596
g2
Ntp757
Rp758
(dp759
g593
Nsg600
g0
(g601
g2
Ntp760
Rp761
(dp762
g605
(dp763
S'Kinase'
p764
(lp765
g743
ag744
assg607
g685
sg609
I00
sg610
(lp766
g683
aS'PRKCE'
p767
aS'RPS6KB2'
p768
ag764
asbsg612
(dp769
g683
Nsg767
Nsg764
g743
sg768
Nssbasg614
I00
sbg750
tp770
a(g0
(g589
g2
Ntp771
Rp772
(dp773
g593
Nsg594
(lp774
g0
(g596
g2
Ntp775
Rp776
(dp777
g593
Nsg600
g0
(g601
g2
Ntp778
Rp779
(dp780
g605
(dp781
S'Y340'
p782
(lp783
S'u'
p784
aS'p'
p785
asS'S259'
p786
(lp787
g784
ag785
asS'Y341'
p788
(lp789
g784
ag785
asS'S499'
p790
(lp791
g784
ag785
asS'Kinase'
p792
(lp793
S'inactive'
p794
aS'active'
p795
asS'S43'
p796
(lp797
g784
ag785
asS'S339'
p798
(lp799
g784
ag785
assg607
S'RAF1'
p800
sg609
I00
sg610
(lp801
S'PAK2'
p802
aS'PRKCZ'
p803
aS'YWHAB'
p804
aS'KRT18'
p805
aS'CFLAR'
p806
aS'KRT8'
p807
aS'RB1'
p808
aS'ARRB2'
p809
aS'P3579'
p810
aS'MAPK1'
p811
aS'YWHAQ'
p812
aS'PEBP1'
p813
ag786
ag790
ag788
ag796
ag782
ag798
ag792
asbsg612
(dp814
g786
g784
sg788
g784
sg792
g794
sg803
Nsg809
Nsg796
g784
sg807
Nsg782
g784
sg813
Nsg790
g784
sg812
Nsg808
Nsg806
Nsg811
Nsg810
Nsg804
Nsg798
g784
sg802
Nsg805
Nssbasg614
I00
sbg750
tp815
a(g0
(g589
g2
Ntp816
Rp817
(dp818
g593
Nsg594
(lp819
g0
(g596
g2
Ntp820
Rp821
(dp822
g593
Nsg600
g0
(g601
g2
Ntp823
Rp824
(dp825
g605
(dp826
S'S'
p827
(lp828
g784
ag785
asS'T25'
p829
(lp830
g784
ag785
asg792
(lp831
g794
ag795
assg607
S'MAP2K1'
p832
sg609
I00
sg610
(lp833
S'GIT1'
p834
ag829
ag827
ag792
asbsg612
(dp835
g827
g784
sg829
g784
sg834
Nsg792
g794
ssbasg614
I00
sbg615
(S'MAP2K1_0'
p836
F3020000.0
I00
tp837
Rp838
(dp839
g609
I00
sg620
F3020000.0
sbtp840
a(g0
(g589
g2
Ntp841
Rp842
(dp843
g593
Nsg594
(lp844
g0
(g596
g2
Ntp845
Rp846
(dp847
g593
Nsg600
g0
(g601
g2
Ntp848
Rp849
(dp850
g605
(dp851
S'Y'
p852
(lp853
g784
ag785
asS'Y187'
p854
(lp855
g784
ag785
asS'T185'
p856
(lp857
g784
ag785
asg792
(lp858
g794
ag795
assg607
g811
sg609
I00
sg610
(lp859
g809
ag810
aS'RAF1'
p860
ag854
ag856
ag852
ag792
asbsg612
(dp861
g854
g784
sg809
Nsg810
Nsg852
g784
sg860
Nsg856
g784
sg792
g794
ssbasg614
I00
sbg615
(S'MAPK1_0'
p862
F695000.0
I00
tp863
Rp864
(dp865
g609
I00
sg620
F695000.0
sbtp866
a(g0
(g589
g2
Ntp867
Rp868
(dp869
g593
Nsg594
(lp870
g0
(g596
g2
Ntp871
Rp872
(dp873
g593
Nsg600
g0
(g601
g2
Ntp874
Rp875
(dp876
g605
(dp877
S'Catalytic'
p878
(lp879
S'inactive'
p880
aS'active'
p881
assg607
S'RASA2'
p882
sg609
I00
sg610
(lp883
g878
asbsg612
(dp884
S'Catalytic'
p885
S'active'
p886
ssbasg614
I00
sbg615
(S'init_default'
p887
F10000.0
I00
tp888
Rp889
(dp890
g609
I00
sg620
F10000.0
sbtp891
a(g0
(g589
g2
Ntp892
Rp893
(dp894
g593
Nsg594
(lp895
g0
(g596
g2
Ntp896
Rp897
(dp898
g593
Nsg600
g0
(g601
g2
Ntp899
Rp900
(dp901
g605
(dp902
S'Catalytic'
p903
(lp904
g880
ag881
assg607
S'RASA3'
p905
sg609
I00
sg610
(lp906
g903
asbsg612
(dp907
g885
g886
ssbasg614
I00
sbg889
tp908
asg607
NsS'parameters'
p909
g0
(cpysb.core
ComponentSet
p910
g2
Ntp911
Rp912
(dp913
S'_index_map'
p914
(dp915
g862
I15
sg688
I12
sg641
I10
sS'AKT_0'
p916
I16
sg836
I14
sg665
I11
sS'kf_bind'
p917
I0
sS'kf_gef'
p918
I5
sg887
I8
sS'kf_gap'
p919
I4
sS'default_ic'
p920
I7
sS'kf_phospho'
p921
I1
sg748
I13
sS'kf_dephospho'
p922
I2
sg616
I9
sS'kf_one_step_activate'
p923
I6
sS'kf_activation'
p924
I3
ssS'_elements'
p925
(lp926
g615
(g917
F1e-06
I00
tp927
Rp928
(dp929
g609
I00
sg620
F1e-06
sbag615
(g921
F1e-06
I00
tp930
Rp931
(dp932
g609
I00
sg620
F1e-06
sbag615
(g922
F1e-06
I00
tp933
Rp934
(dp935
g609
I00
sg620
F1e-06
sbag615
(g924
F1e-06
I00
tp936
Rp937
(dp938
g609
I00
sg620
F1e-06
sbag615
(g919
F1e-06
I00
tp939
Rp940
(dp941
g609
I00
sg620
F1e-06
sbag615
(g918
F1e-06
I00
tp942
Rp943
(dp944
g609
I00
sg620
F1e-06
sbag615
(g923
F1e-06
I00
tp945
Rp946
(dp947
g609
I00
sg620
F1e-06
sbag615
(g920
F100.0
I00
tp948
Rp949
(dp950
g609
I00
sg620
F100.0
sbag889
ag618
ag643
ag667
ag690
ag750
ag838
ag864
ag615
(g916
F905000.0
I00
tp951
Rp952
(dp953
g609
I00
sg620
F905000.0
sbasS'_map'
p954
(dp955
g862
g864
sg688
g690
sg641
g643
sg916
g952
sg836
g838
sg665
g667
sg917
g928
sg918
g943
sg887
g889
sg919
g940
sg920
g949
sg921
g931
sg748
g750
sg922
g934
sg616
g618
sg923
g946
sg924
g937
ssbsS'rules'
p956
g0
(g910
g2
Ntp957
Rp958
(dp959
g914
(dp960
S'EGFR_Kinase_activates_SOS1_Catalytic'
p961
I59
sS'LPAR2_SLC9A3R2_bind'
p962
I2
sS'RASA3_activates_HRAS'
p963
I56
sS'PRKCE_RPS6KB2_BRAF_bind'
p964
I8
sS'GRB2_ACP1_bind'
p965
I25
sS'RET_phospho_MAPK1_Y187'
p966
I34
sS'ESTRADIOL_ESR1_bind'
p967
I17
sS'HRAS_GtpBound_activates_ARAF_Kinase'
p968
I47
sS'SOS1_activates_KRAS'
p969
I40
sS'ARAF_Kinase_activates_MAP2K1_Kinase'
p970
I55
sS'EGFR_ERBB2_bind'
p971
I26
sS'MAP3K1_Kinase_activates_MAP2K1_Kinase'
p972
I44
sS'GRB2_SOS1_bind'
p973
I24
sS'KRAS_GtpBound_activates_RAF1_Kinase'
p974
I50
sS'RASA2_inactivates_NRAS'
p975
I48
sS'DAB2IP_inactivates_KRAS'
p976
I43
sS'PRKC_FAMILY_phospho_RAF1_S499'
p977
I29
sS'KRT18_CFLAR_RAF1_KRT8_bind'
p978
I7
sS'DAB2_GRB2_bind'
p979
I14
sS'HRAS_GtpBound_activates_BRAF_Kinase'
p980
I57
sS'ITGA6_ITGB4_bind'
p981
I5
sS'PRKA_FAMILY_phospho_RAF1_S43'
p982
I32
sS'RASA3_inactivates_KRAS'
p983
I39
sS'MAP3K3_Kinase_activates_MAP2K1_Kinase'
p984
I61
sS'PAK2_RAF1_bind'
p985
I0
sS'RASAL1_inactivates_NRAS'
p986
I62
sS'MAP2K1_Kinase_activates_MAPK1_Kinase'
p987
I54
sS'RAF1_PEBP1_bind'
p988
I15
sS'SOS_FAMILY_activates_NRAS'
p989
I45
sS'RAF1_S339p_DirectlyIncreases_Kinase'
p990
I38
sS'HRAS_BCL2_bind'
p991
I27
sS'MAPK3_HSF1_bind'
p992
I4
sS'SRC_phospho_RAF1_Y340'
p993
I33
sS'KITLG_KIT_bind'
p994
I21
sS'MAP2K1_Sp_DirectlyIncreases_Kinase'
p995
I36
sS'BRAF_HRAS_bind'
p996
I1
sS'SOS1_activates_NRAS'
p997
I53
sS'PRKCZ_RAF1_YWHAQ_bind'
p998
I13
sS'DUSP4_dephospho_MAPK1_T185'
p999
I35
sS'RASA4_inactivates_KRAS'
p1000
I51
sS'NRAS_GtpBound_activates_ARAF_Kinase'
p1001
I60
sS'RAF1_PRKCZ_bind'
p1002
I18
sS'CREB1_CREBBP_bind'
p1003
I23
sS'P2_FAMILY_phospho_MAP2K1_T25'
p1004
I30
sS'RAF1_RB1_bind'
p1005
I10
sS'RAF1_Kinase_activates_MAP2K1_Kinase'
p1006
I52
sS'GPER_ESTRADIOL_bind'
p1007
I20
sS'PRKCZ_RAF1_YWHAB_bind'
p1008
I6
sS'JAK1_phospho_RAF1_Y341'
p1009
I31
sS'HRAS_GtpBound_activates_RAF1_Kinase'
p1010
I42
sS'EGF_activates_EGFR'
p1011
I65
sS'LCP2_VAV1_bind'
p1012
I12
sS'GIT1_MAP2K1_bind'
p1013
I19
sS'AKT_FAMILY_phospho_RAF1_S259'
p1014
I28
sS'SOS1_activates_HRAS'
p1015
I46
sS'BRAF_Kinase_activates_MAP2K1_Kinase'
p1016
I58
sS'ARRB2_P3579_RAF1_MAPK1_bind'
p1017
I11
sS'RAF1_KRT8_bind'
p1018
I9
sS'MIF_CD74_bind'
p1019
I22
sS'KRAS_GtpBound_activates_ARAF_Kinase'
p1020
I49
sS'ITGA5_ITGB1_bind'
p1021
I3
sS'MAPK1_Yp_DirectlyIncreases_Kinase'
p1022
I37
sS'NRAS_GtpBound_activates_BRAF_Kinase'
p1023
I63
sS'RAF_FAMILY_Kinase_activates_MAP2K1_Kinase'
p1024
I41
sS'ITGAV_ITGB3_bind'
p1025
I16
sS'KRAS_GtpBound_activates_BRAF_Kinase'
p1026
I64
ssg925
(lp1027
g0
(cpysb.core
Rule
p1028
g2
Ntp1029
Rp1030
(dp1031
S'rate_forward'
p1032
g928
sS'reactant_pattern'
p1033
g0
(cpysb.core
ReactionPattern
p1034
g2
Ntp1035
Rp1036
(dp1037
S'complex_patterns'
p1038
(lp1039
g0
(g589
g2
Ntp1040
Rp1041
(dp1042
g593
Nsg594
(lp1043
g0
(g596
g2
Ntp1044
Rp1045
(dp1046
g593
Nsg600
g0
(g601
g2
Ntp1047
Rp1048
(dp1049
g605
(dp1050
sg607
g802
sg609
I00
sg610
(lp1051
g800
asbsg612
(dp1052
g800
Nssbasg614
I00
sbag0
(g589
g2
Ntp1053
Rp1054
(dp1055
g593
Nsg594
(lp1056
g0
(g596
g2
Ntp1057
Rp1058
(dp1059
g593
Nsg600
g779
sg612
(dp1060
g802
Nssbasg614
I00
sbasbsg607
g985
sS'is_reversible'
p1061
I01
sS'rule_expression'
p1062
g0
(cpysb.core
RuleExpression
p1063
g2
Ntp1064
Rp1065
(dp1066
S'product_pattern'
p1067
g0
(g1034
g2
Ntp1068
Rp1069
(dp1070
g1038
(lp1071
g0
(g589
g2
Ntp1072
Rp1073
(dp1074
g593
Nsg594
(lp1075
g0
(g596
g2
Ntp1076
Rp1077
(dp1078
g593
Nsg600
g1048
sg612
(dp1079
g800
I1
ssbag0
(g596
g2
Ntp1080
Rp1081
(dp1082
g593
Nsg600
g779
sg612
(dp1083
g802
I1
ssbasg614
I00
sbasbsg1033
g1036
sg1061
I01
sbsS'move_connected'
p1084
I00
sg609
I00
sg1067
g1069
sS'delete_molecules'
p1085
I00
sS'rate_reverse'
p1086
g928
sbag0
(g1028
g2
Ntp1087
Rp1088
(dp1089
g1032
g928
sg1033
g0
(g1034
g2
Ntp1090
Rp1091
(dp1092
g1038
(lp1093
g0
(g589
g2
Ntp1094
Rp1095
(dp1096
g593
Nsg594
(lp1097
g0
(g596
g2
Ntp1098
Rp1099
(dp1100
g593
Nsg600
g761
sg612
(dp1101
g683
Nssbasg614
I00
sbag0
(g589
g2
Ntp1102
Rp1103
(dp1104
g593
Nsg594
(lp1105
g0
(g596
g2
Ntp1106
Rp1107
(dp1108
g593
Nsg600
g678
sg612
(dp1109
g685
Nssbasg614
I00
sbasbsg607
g996
sg1061
I01
sg1062
g0
(g1063
g2
Ntp1110
Rp1111
(dp1112
g1067
g0
(g1034
g2
Ntp1113
Rp1114
(dp1115
g1038
(lp1116
g0
(g589
g2
Ntp1117
Rp1118
(dp1119
g593
Nsg594
(lp1120
g0
(g596
g2
Ntp1121
Rp1122
(dp1123
g593
Nsg600
g761
sg612
(dp1124
g683
I1
ssbag0
(g596
g2
Ntp1125
Rp1126
(dp1127
g593
Nsg600
g678
sg612
(dp1128
g685
I1
ssbasg614
I00
sbasbsg1033
g1091
sg1061
I01
sbsg1084
I00
sg609
I00
sg1067
g1114
sg1085
I00
sg1086
g928
sbag0
(g1028
g2
Ntp1129
Rp1130
(dp1131
g1032
g928
sg1033
g0
(g1034
g2
Ntp1132
Rp1133
(dp1134
g1038
(lp1135
g0
(g589
g2
Ntp1136
Rp1137
(dp1138
g593
Nsg594
(lp1139
g0
(g596
g2
Ntp1140
Rp1141
(dp1142
g593
Nsg600
g0
(g601
g2
Ntp1143
Rp1144
(dp1145
g605
(dp1146
sg607
S'LPAR2'
p1147
sg609
I00
sg610
(lp1148
S'SLC9A3R2'
p1149
asbsg612
(dp1150
g1149
Nssbasg614
I00
sbag0
(g589
g2
Ntp1151
Rp1152
(dp1153
g593
Nsg594
(lp1154
g0
(g596
g2
Ntp1155
Rp1156
(dp1157
g593
Nsg600
g0
(g601
g2
Ntp1158
Rp1159
(dp1160
g605
(dp1161
sg607
g1149
sg609
I00
sg610
(lp1162
g1147
asbsg612
(dp1163
g1147
Nssbasg614
I00
sbasbsg607
g962
sg1061
I01
sg1062
g0
(g1063
g2
Ntp1164
Rp1165
(dp1166
g1067
g0
(g1034
g2
Ntp1167
Rp1168
(dp1169
g1038
(lp1170
g0
(g589
g2
Ntp1171
Rp1172
(dp1173
g593
Nsg594
(lp1174
g0
(g596
g2
Ntp1175
Rp1176
(dp1177
g593
Nsg600
g1144
sg612
(dp1178
g1149
I1
ssbag0
(g596
g2
Ntp1179
Rp1180
(dp1181
g593
Nsg600
g1159
sg612
(dp1182
g1147
I1
ssbasg614
I00
sbasbsg1033
g1133
sg1061
I01
sbsg1084
I00
sg609
I00
sg1067
g1168
sg1085
I00
sg1086
g928
sbag0
(g1028
g2
Ntp1183
Rp1184
(dp1185
g1032
g928
sg1033
g0
(g1034
g2
Ntp1186
Rp1187
(dp1188
g1038
(lp1189
g0
(g589
g2
Ntp1190
Rp1191
(dp1192
g593
Nsg594
(lp1193
g0
(g596
g2
Ntp1194
Rp1195
(dp1196
g593
Nsg600
g0
(g601
g2
Ntp1197
Rp1198
(dp1199
g605
(dp1200
sg607
S'ITGA5'
p1201
sg609
I00
sg610
(lp1202
S'ITGB1'
p1203
asbsg612
(dp1204
g1203
Nssbasg614
I00
sbag0
(g589
g2
Ntp1205
Rp1206
(dp1207
g593
Nsg594
(lp1208
g0
(g596
g2
Ntp1209
Rp1210
(dp1211
g593
Nsg600
g0
(g601
g2
Ntp1212
Rp1213
(dp1214
g605
(dp1215
sg607
g1203
sg609
I00
sg610
(lp1216
g1201
asbsg612
(dp1217
g1201
Nssbasg614
I00
sbasbsg607
g1021
sg1061
I01
sg1062
g0
(g1063
g2
Ntp1218
Rp1219
(dp1220
g1067
g0
(g1034
g2
Ntp1221
Rp1222
(dp1223
g1038
(lp1224
g0
(g589
g2
Ntp1225
Rp1226
(dp1227
g593
Nsg594
(lp1228
g0
(g596
g2
Ntp1229
Rp1230
(dp1231
g593
Nsg600
g1198
sg612
(dp1232
g1203
I1
ssbag0
(g596
g2
Ntp1233
Rp1234
(dp1235
g593
Nsg600
g1213
sg612
(dp1236
g1201
I1
ssbasg614
I00
sbasbsg1033
g1187
sg1061
I01
sbsg1084
I00
sg609
I00
sg1067
g1222
sg1085
I00
sg1086
g928
sbag0
(g1028
g2
Ntp1237
Rp1238
(dp1239
g1032
g928
sg1033
g0
(g1034
g2
Ntp1240
Rp1241
(dp1242
g1038
(lp1243
g0
(g589
g2
Ntp1244
Rp1245
(dp1246
g593
Nsg594
(lp1247
g0
(g596
g2
Ntp1248
Rp1249
(dp1250
g593
Nsg600
g0
(g601
g2
Ntp1251
Rp1252
(dp1253
g605
(dp1254
sg607
S'MAPK3'
p1255
sg609
I00
sg610
(lp1256
S'HSF1'
p1257
asbsg612
(dp1258
g1257
Nssbasg614
I00
sbag0
(g589
g2
Ntp1259
Rp1260
(dp1261
g593
Nsg594
(lp1262
g0
(g596
g2
Ntp1263
Rp1264
(dp1265
g593
Nsg600
g0
(g601
g2
Ntp1266
Rp1267
(dp1268
g605
(dp1269
sg607
g1257
sg609
I00
sg610
(lp1270
g1255
asbsg612
(dp1271
g1255
Nssbasg614
I00
sbasbsg607
g992
sg1061
I01
sg1062
g0
(g1063
g2
Ntp1272
Rp1273
(dp1274
g1067
g0
(g1034
g2
Ntp1275
Rp1276
(dp1277
g1038
(lp1278
g0
(g589
g2
Ntp1279
Rp1280
(dp1281
g593
Nsg594
(lp1282
g0
(g596
g2
Ntp1283
Rp1284
(dp1285
g593
Nsg600
g1252
sg612
(dp1286
g1257
I1
ssbag0
(g596
g2
Ntp1287
Rp1288
(dp1289
g593
Nsg600
g1267
sg612
(dp1290
g1255
I1
ssbasg614
I00
sbasbsg1033
g1241
sg1061
I01
sbsg1084
I00
sg609
I00
sg1067
g1276
sg1085
I00
sg1086
g928
sbag0
(g1028
g2
Ntp1291
Rp1292
(dp1293
g1032
g928
sg1033
g0
(g1034
g2
Ntp1294
Rp1295
(dp1296
g1038
(lp1297
g0
(g589
g2
Ntp1298
Rp1299
(dp1300
g593
Nsg594
(lp1301
g0
(g596
g2
Ntp1302
Rp1303
(dp1304
g593
Nsg600
g0
(g601
g2
Ntp1305
Rp1306
(dp1307
g605
(dp1308
sg607
S'ITGA6'
p1309
sg609
I00
sg610
(lp1310
S'ITGB4'
p1311
asbsg612
(dp1312
g1311
Nssbasg614
I00
sbag0
(g589
g2
Ntp1313
Rp1314
(dp1315
g593
Nsg594
(lp1316
g0
(g596
g2
Ntp1317
Rp1318
(dp1319
g593
Nsg600
g0
(g601
g2
Ntp1320
Rp1321
(dp1322
g605
(dp1323
sg607
g1311
sg609
I00
sg610
(lp1324
g1309
asbsg612
(dp1325
g1309
Nssbasg614
I00
sbasbsg607
g981
sg1061
I01
sg1062
g0
(g1063
g2
Ntp1326
Rp1327
(dp1328
g1067
g0
(g1034
g2
Ntp1329
Rp1330
(dp1331
g1038
(lp1332
g0
(g589
g2
Ntp1333
Rp1334
(dp1335
g593
Nsg594
(lp1336
g0
(g596
g2
Ntp1337
Rp1338
(dp1339
g593
Nsg600
g1306
sg612
(dp1340
g1311
I1
ssbag0
(g596
g2
Ntp1341
Rp1342
(dp1343
g593
Nsg600
g1321
sg612
(dp1344
g1309
I1
ssbasg614
I00
sbasbsg1033
g1295
sg1061
I01
sbsg1084
I00
sg609
I00
sg1067
g1330
sg1085
I00
sg1086
g928
sbag0
(g1028
g2
Ntp1345
Rp1346
(dp1347
g1032
g928
sg1033
g0
(g1034
g2
Ntp1348
Rp1349
(dp1350
g1038
(lp1351
g0
(g589
g2
Ntp1352
Rp1353
(dp1354
g593
Nsg594
(lp1355
g0
(g596
g2
Ntp1356
Rp1357
(dp1358
g593
Nsg600
g0
(g601
g2
Ntp1359
Rp1360
(dp1361
g605
(dp1362
sg607
g803
sg609
I00
sg610
(lp1363
S'RAF1'
p1364
ag804
ag812
asbsg612
(dp1365
g804
Nsg1364
Nssbasg614
I00
sbag0
(g589
g2
Ntp1366
Rp1367
(dp1368
g593
Nsg594
(lp1369
g0
(g596
g2
Ntp1370
Rp1371
(dp1372
g593
Nsg600
g779
sg612
(dp1373
g804
Nsg803
Nssbasg614
I00
sbag0
(g589
g2
Ntp1374
Rp1375
(dp1376
g593
Nsg594
(lp1377
g0
(g596
g2
Ntp1378
Rp1379
(dp1380
g593
Nsg600
g0
(g601
g2
Ntp1381
Rp1382
(dp1383
g605
(dp1384
sg607
g804
sg609
I00
sg610
(lp1385
g803
ag1364
asbsg612
(dp1386
g803
Nsg1364
Nssbasg614
I00
sbasbsg607
g1008
sg1061
I01
sg1062
g0
(g1063
g2
Ntp1387
Rp1388
(dp1389
g1067
g0
(g1034
g2
Ntp1390
Rp1391
(dp1392
g1038
(lp1393
g0
(g589
g2
Ntp1394
Rp1395
(dp1396
g593
Nsg594
(lp1397
g0
(g596
g2
Ntp1398
Rp1399
(dp1400
g593
Nsg600
g1360
sg612
(dp1401
g804
I2
sg1364
I1
ssbag0
(g596
g2
Ntp1402
Rp1403
(dp1404
g593
Nsg600
g779
sg612
(dp1405
g804
I3
sg803
I1
ssbag0
(g596
g2
Ntp1406
Rp1407
(dp1408
g593
Nsg600
g1382
sg612
(dp1409
g803
I2
sg1364
I3
ssbasg614
I00
sbasbsg1033
g1349
sg1061
I01
sbsg1084
I00
sg609
I00
sg1067
g1391
sg1085
I00
sg1086
g928
sbag0
(g1028
g2
Ntp1410
Rp1411
(dp1412
g1032
g928
sg1033
g0
(g1034
g2
Ntp1413
Rp1414
(dp1415
g1038
(lp1416
g0
(g589
g2
Ntp1417
Rp1418
(dp1419
g593
Nsg594
(lp1420
g0
(g596
g2
Ntp1421
Rp1422
(dp1423
g593
Nsg600
g0
(g601
g2
Ntp1424
Rp1425
(dp1426
g605
(dp1427
sg607
g805
sg609
I00
sg610
(lp1428
g806
aS'RAF1'
p1429
ag807
asbsg612
(dp1430
g806
Nsg807
Nsg1429
Nssbasg614
I00
sbag0
(g589
g2
Ntp1431
Rp1432
(dp1433
g593
Nsg594
(lp1434
g0
(g596
g2
Ntp1435
Rp1436
(dp1437
g593
Nsg600
g0
(g601
g2
Ntp1438
Rp1439
(dp1440
g605
(dp1441
sg607
g806
sg609
I00
sg610
(lp1442
g805
ag1429
ag807
asbsg612
(dp1443
g807
Nsg1429
Nsg805
Nssbasg614
I00
sbag0
(g589
g2
Ntp1444
Rp1445
(dp1446
g593
Nsg594
(lp1447
g0
(g596
g2
Ntp1448
Rp1449
(dp1450
g593
Nsg600
g779
sg612
(dp1451
g806
Nsg807
Nsg805
Nssbasg614
I00
sbag0
(g589
g2
Ntp1452
Rp1453
(dp1454
g593
Nsg594
(lp1455
g0
(g596
g2
Ntp1456
Rp1457
(dp1458
g593
Nsg600
g0
(g601
g2
Ntp1459
Rp1460
(dp1461
g605
(dp1462
sg607
g807
sg609
I00
sg610
(lp1463
g805
ag806
ag1429
asbsg612
(dp1464
g806
Nsg1429
Nsg805
Nssbasg614
I00
sbasbsg607
g978
sg1061
I01
sg1062
g0
(g1063
g2
Ntp1465
Rp1466
(dp1467
g1067
g0
(g1034
g2
Ntp1468
Rp1469
(dp1470
g1038
(lp1471
g0
(g589
g2
Ntp1472
Rp1473
(dp1474
g593
Nsg594
(lp1475
g0
(g596
g2
Ntp1476
Rp1477
(dp1478
g593
Nsg600
g1425
sg612
(dp1479
g806
I1
sg807
I3
sg1429
I2
ssbag0
(g596
g2
Ntp1480
Rp1481
(dp1482
g593
Nsg600
g1439
sg612
(dp1483
g807
I5
sg1429
I4
sg805
I1
ssbag0
(g596
g2
Ntp1484
Rp1485
(dp1486
g593
Nsg600
g779
sg612
(dp1487
g806
I4
sg807
I6
sg805
I2
ssbag0
(g596
g2
Ntp1488
Rp1489
(dp1490
g593
Nsg600
g1460
sg612
(dp1491
g806
I5
sg1429
I6
sg805
I3
ssbasg614
I00
sbasbsg1033
g1414
sg1061
I01
sbsg1084
I00
sg609
I00
sg1067
g1469
sg1085
I00
sg1086
g928
sbag0
(g1028
g2
Ntp1492
Rp1493
(dp1494
g1032
g928
sg1033
g0
(g1034
g2
Ntp1495
Rp1496
(dp1497
g1038
(lp1498
g0
(g589
g2
Ntp1499
Rp1500
(dp1501
g593
Nsg594
(lp1502
g0
(g596
g2
Ntp1503
Rp1504
(dp1505
g593
Nsg600
g0
(g601
g2
Ntp1506
Rp1507
(dp1508
g605
(dp1509
sg607
g767
sg609
I00
sg610
(lp1510
g768
aS'BRAF'
p1511
asbsg612
(dp1512
g1511
Nsg768
Nssbasg614
I00
sbag0
(g589
g2
Ntp1513
Rp1514
(dp1515
g593
Nsg594
(lp1516
g0
(g596
g2
Ntp1517
Rp1518
(dp1519
g593
Nsg600
g0
(g601
g2
Ntp1520
Rp1521
(dp1522
g605
(dp1523
sg607
g768
sg609
I00
sg610
(lp1524
g767
ag1511
asbsg612
(dp1525
g767
Nsg1511
Nssbasg614
I00
sbag0
(g589
g2
Ntp1526
Rp1527
(dp1528
g593
Nsg594
(lp1529
g0
(g596
g2
Ntp1530
Rp1531
(dp1532
g593
Nsg600
g761
sg612
(dp1533
g767
Nsg768
Nssbasg614
I00
sbasbsg607
g964
sg1061
I01
sg1062
g0
(g1063
g2
Ntp1534
Rp1535
(dp1536
g1067
g0
(g1034
g2
Ntp1537
Rp1538
(dp1539
g1038
(lp1540
g0
(g589
g2
Ntp1541
Rp1542
(dp1543
g593
Nsg594
(lp1544
g0
(g596
g2
Ntp1545
Rp1546
(dp1547
g593
Nsg600
g1507
sg612
(dp1548
g1511
I2
sg768
I1
ssbag0
(g596
g2
Ntp1549
Rp1550
(dp1551
g593
Nsg600
g1521
sg612
(dp1552
g767
I1
sg1511
I3
ssbag0
(g596
g2
Ntp1553
Rp1554
(dp1555
g593
Nsg600
g761
sg612
(dp1556
g767
I2
sg768
I3
ssbasg614
I00
sbasbsg1033
g1496
sg1061
I01
sbsg1084
I00
sg609
I00
sg1067
g1538
sg1085
I00
sg1086
g928
sbag0
(g1028
g2
Ntp1557
Rp1558
(dp1559
g1032
g928
sg1033
g0
(g1034
g2
Ntp1560
Rp1561
(dp1562
g1038
(lp1563
g0
(g589
g2
Ntp1564
Rp1565
(dp1566
g593
Nsg594
(lp1567
g0
(g596
g2
Ntp1568
Rp1569
(dp1570
g593
Nsg600
g779
sg612
(dp1571
S'KRT8'
p1572
Nssbasg614
I00
sbag0
(g589
g2
Ntp1573
Rp1574
(dp1575
g593
Nsg594
(lp1576
g0
(g596
g2
Ntp1577
Rp1578
(dp1579
g593
Nsg600
g1460
sg612
(dp1580
S'RAF1'
p1581
Nssbasg614
I00
sbasbsg607
g1018
sg1061
I01
sg1062
g0
(g1063
g2
Ntp1582
Rp1583
(dp1584
g1067
g0
(g1034
g2
Ntp1585
Rp1586
(dp1587
g1038
(lp1588
g0
(g589
g2
Ntp1589
Rp1590
(dp1591
g593
Nsg594
(lp1592
g0
(g596
g2
Ntp1593
Rp1594
(dp1595
g593
Nsg600
g779
sg612
(dp1596
g1572
I1
ssbag0
(g596
g2
Ntp1597
Rp1598
(dp1599
g593
Nsg600
g1460
sg612
(dp1600
g1581
I1
ssbasg614
I00
sbasbsg1033
g1561
sg1061
I01
sbsg1084
I00
sg609
I00
sg1067
g1586
sg1085
I00
sg1086
g928
sbag0
(g1028
g2
Ntp1601
Rp1602
(dp1603
g1032
g928
sg1033
g0
(g1034
g2
Ntp1604
Rp1605
(dp1606
g1038
(lp1607
g0
(g589
g2
Ntp1608
Rp1609
(dp1610
g593
Nsg594
(lp1611
g0
(g596
g2
Ntp1612
Rp1613
(dp1614
g593
Nsg600
g779
sg612
(dp1615
g808
Nssbasg614
I00
sbag0
(g589
g2
Ntp1616
Rp1617
(dp1618
g593
Nsg594
(lp1619
g0
(g596
g2
Ntp1620
Rp1621
(dp1622
g593
Nsg600
g0
(g601
g2
Ntp1623
Rp1624
(dp1625
g605
(dp1626
sg607
g808
sg609
I00
sg610
(lp1627
S'RAF1'
p1628
asbsg612
(dp1629
g1628
Nssbasg614
I00
sbasbsg607
g1005
sg1061
I01
sg1062
g0
(g1063
g2
Ntp1630
Rp1631
(dp1632
g1067
g0
(g1034
g2
Ntp1633
Rp1634
(dp1635
g1038
(lp1636
g0
(g589
g2
Ntp1637
Rp1638
(dp1639
g593
Nsg594
(lp1640
g0
(g596
g2
Ntp1641
Rp1642
(dp1643
g593
Nsg600
g779
sg612
(dp1644
g808
I1
ssbag0
(g596
g2
Ntp1645
Rp1646
(dp1647
g593
Nsg600
g1624
sg612
(dp1648
g1628
I1
ssbasg614
I00
sbasbsg1033
g1605
sg1061
I01
sbsg1084
I00
sg609
I00
sg1067
g1634
sg1085
I00
sg1086
g928
sbag0
(g1028
g2
Ntp1649
Rp1650
(dp1651
g1032
g928
sg1033
g0
(g1034
g2
Ntp1652
Rp1653
(dp1654
g1038
(lp1655
g0
(g589
g2
Ntp1656
Rp1657
(dp1658
g593
Nsg594
(lp1659
g0
(g596
g2
Ntp1660
Rp1661
(dp1662
g593
Nsg600
g0
(g601
g2
Ntp1663
Rp1664
(dp1665
g605
(dp1666
sg607
g809
sg609
I00
sg610
(lp1667
g810
ag860
ag811
asbsg612
(dp1668
g811
Nsg860
Nsg810
Nssbasg614
I00
sbag0
(g589
g2
Ntp1669
Rp1670
(dp1671
g593
Nsg594
(lp1672
g0
(g596
g2
Ntp1673
Rp1674
(dp1675
g593
Nsg600
g0
(g601
g2
Ntp1676
Rp1677
(dp1678
g605
(dp1679
sg607
g810
sg609
I00
sg610
(lp1680
g809
ag860
ag811
asbsg612
(dp1681
g860
Nsg811
Nsg809
Nssbasg614
I00
sbag0
(g589
g2
Ntp1682
Rp1683
(dp1684
g593
Nsg594
(lp1685
g0
(g596
g2
Ntp1686
Rp1687
(dp1688
g593
Nsg600
g779
sg612
(dp1689
g811
Nsg809
Nsg810
Nssbasg614
I00
sbag0
(g589
g2
Ntp1690
Rp1691
(dp1692
g593
Nsg594
(lp1693
g0
(g596
g2
Ntp1694
Rp1695
(dp1696
g593
Nsg600
g849
sg612
(dp1697
g860
Nsg809
Nsg810
Nssbasg614
I00
sbasbsg607
g1017
sg1061
I01
sg1062
g0
(g1063
g2
Ntp1698
Rp1699
(dp1700
g1067
g0
(g1034
g2
Ntp1701
Rp1702
(dp1703
g1038
(lp1704
g0
(g589
g2
Ntp1705
Rp1706
(dp1707
g593
Nsg594
(lp1708
g0
(g596
g2
Ntp1709
Rp1710
(dp1711
g593
Nsg600
g1664
sg612
(dp1712
g811
I3
sg860
I2
sg810
I1
ssbag0
(g596
g2
Ntp1713
Rp1714
(dp1715
g593
Nsg600
g1677
sg612
(dp1716
g860
I4
sg811
I5
sg809
I1
ssbag0
(g596
g2
Ntp1717
Rp1718
(dp1719
g593
Nsg600
g779
sg612
(dp1720
g811
I6
sg809
I2
sg810
I4
ssbag0
(g596
g2
Ntp1721
Rp1722
(dp1723
g593
Nsg600
g849
sg612
(dp1724
g860
I6
sg809
I3
sg810
I5
ssbasg614
I00
sbasbsg1033
g1653
sg1061
I01
sbsg1084
I00
sg609
I00
sg1067
g1702
sg1085
I00
sg1086
g928
sbag0
(g1028
g2
Ntp1725
Rp1726
(dp1727
g1032
g928
sg1033
g0
(g1034
g2
Ntp1728
Rp1729
(dp1730
g1038
(lp1731
g0
(g589
g2
Ntp1732
Rp1733
(dp1734
g593
Nsg594
(lp1735
g0
(g596
g2
Ntp1736
Rp1737
(dp1738
g593
Nsg600
g0
(g601
g2
Ntp1739
Rp1740
(dp1741
g605
(dp1742
sg607
S'LCP2'
p1743
sg609
I00
sg610
(lp1744
S'VAV1'
p1745
asbsg612
(dp1746
g1745
Nssbasg614
I00
sbag0
(g589
g2
Ntp1747
Rp1748
(dp1749
g593
Nsg594
(lp1750
g0
(g596
g2
Ntp1751
Rp1752
(dp1753
g593
Nsg600
g0
(g601
g2
Ntp1754
Rp1755
(dp1756
g605
(dp1757
sg607
g1745
sg609
I00
sg610
(lp1758
g1743
asbsg612
(dp1759
g1743
Nssbasg614
I00
sbasbsg607
g1012
sg1061
I01
sg1062
g0
(g1063
g2
Ntp1760
Rp1761
(dp1762
g1067
g0
(g1034
g2
Ntp1763
Rp1764
(dp1765
g1038
(lp1766
g0
(g589
g2
Ntp1767
Rp1768
(dp1769
g593
Nsg594
(lp1770
g0
(g596
g2
Ntp1771
Rp1772
(dp1773
g593
Nsg600
g1740
sg612
(dp1774
g1745
I1
ssbag0
(g596
g2
Ntp1775
Rp1776
(dp1777
g593
Nsg600
g1755
sg612
(dp1778
g1743
I1
ssbasg614
I00
sbasbsg1033
g1729
sg1061
I01
sbsg1084
I00
sg609
I00
sg1067
g1764
sg1085
I00
sg1086
g928
sbag0
(g1028
g2
Ntp1779
Rp1780
(dp1781
g1032
g928
sg1033
g0
(g1034
g2
Ntp1782
Rp1783
(dp1784
g1038
(lp1785
g0
(g589
g2
Ntp1786
Rp1787
(dp1788
g593
Nsg594
(lp1789
g0
(g596
g2
Ntp1790
Rp1791
(dp1792
g593
Nsg600
g1360
sg612
(dp1793
g812
NsS'RAF1'
p1794
Nssbasg614
I00
sbag0
(g589
g2
Ntp1795
Rp1796
(dp1797
g593
Nsg594
(lp1798
g0
(g596
g2
Ntp1799
Rp1800
(dp1801
g593
Nsg600
g779
sg612
(dp1802
S'PRKCZ'
p1803
Nsg812
Nssbasg614
I00
sbag0
(g589
g2
Ntp1804
Rp1805
(dp1806
g593
Nsg594
(lp1807
g0
(g596
g2
Ntp1808
Rp1809
(dp1810
g593
Nsg600
g0
(g601
g2
Ntp1811
Rp1812
(dp1813
g605
(dp1814
sg607
g812
sg609
I00
sg610
(lp1815
g1803
ag1794
asbsg612
(dp1816
g1803
Nsg1794
Nssbasg614
I00
sbasbsg607
g998
sg1061
I01
sg1062
g0
(g1063
g2
Ntp1817
Rp1818
(dp1819
g1067
g0
(g1034
g2
Ntp1820
Rp1821
(dp1822
g1038
(lp1823
g0
(g589
g2
Ntp1824
Rp1825
(dp1826
g593
Nsg594
(lp1827
g0
(g596
g2
Ntp1828
Rp1829
(dp1830
g593
Nsg600
g1360
sg612
(dp1831
g812
I2
sg1794
I1
ssbag0
(g596
g2
Ntp1832
Rp1833
(dp1834
g593
Nsg600
g779
sg612
(dp1835
g1803
I1
sg812
I3
ssbag0
(g596
g2
Ntp1836
Rp1837
(dp1838
g593
Nsg600
g1812
sg612
(dp1839
g1803
I2
sg1794
I3
ssbasg614
I00
sbasbsg1033
g1783
sg1061
I01
sbsg1084
I00
sg609
I00
sg1067
g1821
sg1085
I00
sg1086
g928
sbag0
(g1028
g2
Ntp1840
Rp1841
(dp1842
g1032
g928
sg1033
g0
(g1034
g2
Ntp1843
Rp1844
(dp1845
g1038
(lp1846
g0
(g589
g2
Ntp1847
Rp1848
(dp1849
g593
Nsg594
(lp1850
g0
(g596
g2
Ntp1851
Rp1852
(dp1853
g593
Nsg600
g0
(g601
g2
Ntp1854
Rp1855
(dp1856
g605
(dp1857
sg607
S'DAB2'
p1858
sg609
I00
sg610
(lp1859
S'GRB2'
p1860
asbsg612
(dp1861
g1860
Nssbasg614
I00
sbag0
(g589
g2
Ntp1862
Rp1863
(dp1864
g593
Nsg594
(lp1865
g0
(g596
g2
Ntp1866
Rp1867
(dp1868
g593
Nsg600
g0
(g601
g2
Ntp1869
Rp1870
(dp1871
g605
(dp1872
sg607
g1860
sg609
I00
sg610
(lp1873
g1858
ag661
aS'ACP1'
p1874
asbsg612
(dp1875
g1858
Nssbasg614
I00
sbasbsg607
g979
sg1061
I01
sg1062
g0
(g1063
g2
Ntp1876
Rp1877
(dp1878
g1067
g0
(g1034
g2
Ntp1879
Rp1880
(dp1881
g1038
(lp1882
g0
(g589
g2
Ntp1883
Rp1884
(dp1885
g593
Nsg594
(lp1886
g0
(g596
g2
Ntp1887
Rp1888
(dp1889
g593
Nsg600
g1855
sg612
(dp1890
g1860
I1
ssbag0
(g596
g2
Ntp1891
Rp1892
(dp1893
g593
Nsg600
g1870
sg612
(dp1894
g1858
I1
ssbasg614
I00
sbasbsg1033
g1844
sg1061
I01
sbsg1084
I00
sg609
I00
sg1067
g1880
sg1085
I00
sg1086
g928
sbag0
(g1028
g2
Ntp1895
Rp1896
(dp1897
g1032
g928
sg1033
g0
(g1034
g2
Ntp1898
Rp1899
(dp1900
g1038
(lp1901
g0
(g589
g2
Ntp1902
Rp1903
(dp1904
g593
Nsg594
(lp1905
g0
(g596
g2
Ntp1906
Rp1907
(dp1908
g593
Nsg600
g779
sg612
(dp1909
g813
Nssbasg614
I00
sbag0
(g589
g2
Ntp1910
Rp1911
(dp1912
g593
Nsg594
(lp1913
g0
(g596
g2
Ntp1914
Rp1915
(dp1916
g593
Nsg600
g0
(g601
g2
Ntp1917
Rp1918
(dp1919
g605
(dp1920
sg607
g813
sg609
I00
sg610
(lp1921
S'RAF1'
p1922
asbsg612
(dp1923
g1922
Nssbasg614
I00
sbasbsg607
g988
sg1061
I01
sg1062
g0
(g1063
g2
Ntp1924
Rp1925
(dp1926
g1067
g0
(g1034
g2
Ntp1927
Rp1928
(dp1929
g1038
(lp1930
g0
(g589
g2
Ntp1931
Rp1932
(dp1933
g593
Nsg594
(lp1934
g0
(g596
g2
Ntp1935
Rp1936
(dp1937
g593
Nsg600
g779
sg612
(dp1938
g813
I1
ssbag0
(g596
g2
Ntp1939
Rp1940
(dp1941
g593
Nsg600
g1918
sg612
(dp1942
g1922
I1
ssbasg614
I00
sbasbsg1033
g1899
sg1061
I01
sbsg1084
I00
sg609
I00
sg1067
g1928
sg1085
I00
sg1086
g928
sbag0
(g1028
g2
Ntp1943
Rp1944
(dp1945
g1032
g928
sg1033
g0
(g1034
g2
Ntp1946
Rp1947
(dp1948
g1038
(lp1949
g0
(g589
g2
Ntp1950
Rp1951
(dp1952
g593
Nsg594
(lp1953
g0
(g596
g2
Ntp1954
Rp1955
(dp1956
g593
Nsg600
g0
(g601
g2
Ntp1957
Rp1958
(dp1959
g605
(dp1960
sg607
S'ITGAV'
p1961
sg609
I00
sg610
(lp1962
S'ITGB3'
p1963
asbsg612
(dp1964
g1963
Nssbasg614
I00
sbag0
(g589
g2
Ntp1965
Rp1966
(dp1967
g593
Nsg594
(lp1968
g0
(g596
g2
Ntp1969
Rp1970
(dp1971
g593
Nsg600
g0
(g601
g2
Ntp1972
Rp1973
(dp1974
g605
(dp1975
sg607
g1963
sg609
I00
sg610
(lp1976
g1961
asbsg612
(dp1977
g1961
Nssbasg614
I00
sbasbsg607
g1025
sg1061
I01
sg1062
g0
(g1063
g2
Ntp1978
Rp1979
(dp1980
g1067
g0
(g1034
g2
Ntp1981
Rp1982
(dp1983
g1038
(lp1984
g0
(g589
g2
Ntp1985
Rp1986
(dp1987
g593
Nsg594
(lp1988
g0
(g596
g2
Ntp1989
Rp1990
(dp1991
g593
Nsg600
g1958
sg612
(dp1992
g1963
I1
ssbag0
(g596
g2
Ntp1993
Rp1994
(dp1995
g593
Nsg600
g1973
sg612
(dp1996
g1961
I1
ssbasg614
I00
sbasbsg1033
g1947
sg1061
I01
sbsg1084
I00
sg609
I00
sg1067
g1982
sg1085
I00
sg1086
g928
sbag0
(g1028
g2
Ntp1997
Rp1998
(dp1999
g1032
g928
sg1033
g0
(g1034
g2
Ntp2000
Rp2001
(dp2002
g1038
(lp2003
g0
(g589
g2
Ntp2004
Rp2005
(dp2006
g593
Nsg594
(lp2007
g0
(g596
g2
Ntp2008
Rp2009
(dp2010
g593
Nsg600
g0
(g601
g2
Ntp2011
Rp2012
(dp2013
g605
(dp2014
sg607
S'ESTRADIOL'
p2015
sg609
I00
sg610
(lp2016
S'ESR1'
p2017
aS'GPER'
p2018
asbsg612
(dp2019
g2017
Nssbasg614
I00
sbag0
(g589
g2
Ntp2020
Rp2021
(dp2022
g593
Nsg594
(lp2023
g0
(g596
g2
Ntp2024
Rp2025
(dp2026
g593
Nsg600
g0
(g601
g2
Ntp2027
Rp2028
(dp2029
g605
(dp2030
sg607
g2017
sg609
I00
sg610
(lp2031
g2015
asbsg612
(dp2032
g2015
Nssbasg614
I00
sbasbsg607
g967
sg1061
I01
sg1062
g0
(g1063
g2
Ntp2033
Rp2034
(dp2035
g1067
g0
(g1034
g2
Ntp2036
Rp2037
(dp2038
g1038
(lp2039
g0
(g589
g2
Ntp2040
Rp2041
(dp2042
g593
Nsg594
(lp2043
g0
(g596
g2
Ntp2044
Rp2045
(dp2046
g593
Nsg600
g2012
sg612
(dp2047
g2017
I1
ssbag0
(g596
g2
Ntp2048
Rp2049
(dp2050
g593
Nsg600
g2028
sg612
(dp2051
g2015
I1
ssbasg614
I00
sbasbsg1033
g2001
sg1061
I01
sbsg1084
I00
sg609
I00
sg1067
g2037
sg1085
I00
sg1086
g928
sbag0
(g1028
g2
Ntp2052
Rp2053
(dp2054
g1032
g928
sg1033
g0
(g1034
g2
Ntp2055
Rp2056
(dp2057
g1038
(lp2058
g0
(g589
g2
Ntp2059
Rp2060
(dp2061
g593
Nsg594
(lp2062
g0
(g596
g2
Ntp2063
Rp2064
(dp2065
g593
Nsg600
g779
sg612
(dp2066
S'PRKCZ'
p2067
Nssbasg614
I00
sbag0
(g589
g2
Ntp2068
Rp2069
(dp2070
g593
Nsg594
(lp2071
g0
(g596
g2
Ntp2072
Rp2073
(dp2074
g593
Nsg600
g1360
sg612
(dp2075
S'RAF1'
p2076
Nssbasg614
I00
sbasbsg607
g1002
sg1061
I01
sg1062
g0
(g1063
g2
Ntp2077
Rp2078
(dp2079
g1067
g0
(g1034
g2
Ntp2080
Rp2081
(dp2082
g1038
(lp2083
g0
(g589
g2
Ntp2084
Rp2085
(dp2086
g593
Nsg594
(lp2087
g0
(g596
g2
Ntp2088
Rp2089
(dp2090
g593
Nsg600
g779
sg612
(dp2091
g2067
I1
ssbag0
(g596
g2
Ntp2092
Rp2093
(dp2094
g593
Nsg600
g1360
sg612
(dp2095
g2076
I1
ssbasg614
I00
sbasbsg1033
g2056
sg1061
I01
sbsg1084
I00
sg609
I00
sg1067
g2081
sg1085
I00
sg1086
g928
sbag0
(g1028
g2
Ntp2096
Rp2097
(dp2098
g1032
g928
sg1033
g0
(g1034
g2
Ntp2099
Rp2100
(dp2101
g1038
(lp2102
g0
(g589
g2
Ntp2103
Rp2104
(dp2105
g593
Nsg594
(lp2106
g0
(g596
g2
Ntp2107
Rp2108
(dp2109
g593
Nsg600
g0
(g601
g2
Ntp2110
Rp2111
(dp2112
g605
(dp2113
sg607
g834
sg609
I00
sg610
(lp2114
g832
asbsg612
(dp2115
g832
Nssbasg614
I00
sbag0
(g589
g2
Ntp2116
Rp2117
(dp2118
g593
Nsg594
(lp2119
g0
(g596
g2
Ntp2120
Rp2121
(dp2122
g593
Nsg600
g824
sg612
(dp2123
g834
Nssbasg614
I00
sbasbsg607
g1013
sg1061
I01
sg1062
g0
(g1063
g2
Ntp2124
Rp2125
(dp2126
g1067
g0
(g1034
g2
Ntp2127
Rp2128
(dp2129
g1038
(lp2130
g0
(g589
g2
Ntp2131
Rp2132
(dp2133
g593
Nsg594
(lp2134
g0
(g596
g2
Ntp2135
Rp2136
(dp2137
g593
Nsg600
g2111
sg612
(dp2138
g832
I1
ssbag0
(g596
g2
Ntp2139
Rp2140
(dp2141
g593
Nsg600
g824
sg612
(dp2142
g834
I1
ssbasg614
I00
sbasbsg1033
g2100
sg1061
I01
sbsg1084
I00
sg609
I00
sg1067
g2128
sg1085
I00
sg1086
g928
sbag0
(g1028
g2
Ntp2143
Rp2144
(dp2145
g1032
g928
sg1033
g0
(g1034
g2
Ntp2146
Rp2147
(dp2148
g1038
(lp2149
g0
(g589
g2
Ntp2150
Rp2151
(dp2152
g593
Nsg594
(lp2153
g0
(g596
g2
Ntp2154
Rp2155
(dp2156
g593
Nsg600
g0
(g601
g2
Ntp2157
Rp2158
(dp2159
g605
(dp2160
sg607
g2018
sg609
I00
sg610
(lp2161
S'ESTRADIOL'
p2162
asbsg612
(dp2163
g2162
Nssbasg614
I00
sbag0
(g589
g2
Ntp2164
Rp2165
(dp2166
g593
Nsg594
(lp2167
g0
(g596
g2
Ntp2168
Rp2169
(dp2170
g593
Nsg600
g2012
sg612
(dp2171
g2018
Nssbasg614
I00
sbasbsg607
g1007
sg1061
I01
sg1062
g0
(g1063
g2
Ntp2172
Rp2173
(dp2174
g1067
g0
(g1034
g2
Ntp2175
Rp2176
(dp2177
g1038
(lp2178
g0
(g589
g2
Ntp2179
Rp2180
(dp2181
g593
Nsg594
(lp2182
g0
(g596
g2
Ntp2183
Rp2184
(dp2185
g593
Nsg600
g2158
sg612
(dp2186
g2162
I1
ssbag0
(g596
g2
Ntp2187
Rp2188
(dp2189
g593
Nsg600
g2012
sg612
(dp2190
g2018
I1
ssbasg614
I00
sbasbsg1033
g2147
sg1061
I01
sbsg1084
I00
sg609
I00
sg1067
g2176
sg1085
I00
sg1086
g928
sbag0
(g1028
g2
Ntp2191
Rp2192
(dp2193
g1032
g928
sg1033
g0
(g1034
g2
Ntp2194
Rp2195
(dp2196
g1038
(lp2197
g0
(g589
g2
Ntp2198
Rp2199
(dp2200
g593
Nsg594
(lp2201
g0
(g596
g2
Ntp2202
Rp2203
(dp2204
g593
Nsg600
g0
(g601
g2
Ntp2205
Rp2206
(dp2207
g605
(dp2208
sg607
S'KITLG'
p2209
sg609
I00
sg610
(lp2210
S'KIT'
p2211
asbsg612
(dp2212
g2211
Nssbasg614
I00
sbag0
(g589
g2
Ntp2213
Rp2214
(dp2215
g593
Nsg594
(lp2216
g0
(g596
g2
Ntp2217
Rp2218
(dp2219
g593
Nsg600
g0
(g601
g2
Ntp2220
Rp2221
(dp2222
g605
(dp2223
sg607
g2211
sg609
I00
sg610
(lp2224
g2209
asbsg612
(dp2225
g2209
Nssbasg614
I00
sbasbsg607
g994
sg1061
I01
sg1062
g0
(g1063
g2
Ntp2226
Rp2227
(dp2228
g1067
g0
(g1034
g2
Ntp2229
Rp2230
(dp2231
g1038
(lp2232
g0
(g589
g2
Ntp2233
Rp2234
(dp2235
g593
Nsg594
(lp2236
g0
(g596
g2
Ntp2237
Rp2238
(dp2239
g593
Nsg600
g2206
sg612
(dp2240
g2211
I1
ssbag0
(g596
g2
Ntp2241
Rp2242
(dp2243
g593
Nsg600
g2221
sg612
(dp2244
g2209
I1
ssbasg614
I00
sbasbsg1033
g2195
sg1061
I01
sbsg1084
I00
sg609
I00
sg1067
g2230
sg1085
I00
sg1086
g928
sbag0
(g1028
g2
Ntp2245
Rp2246
(dp2247
g1032
g928
sg1033
g0
(g1034
g2
Ntp2248
Rp2249
(dp2250
g1038
(lp2251
g0
(g589
g2
Ntp2252
Rp2253
(dp2254
g593
Nsg594
(lp2255
g0
(g596
g2
Ntp2256
Rp2257
(dp2258
g593
Nsg600
g0
(g601
g2
Ntp2259
Rp2260
(dp2261
g605
(dp2262
sg607
S'MIF'
p2263
sg609
I00
sg610
(lp2264
S'CD74'
p2265
asbsg612
(dp2266
g2265
Nssbasg614
I00
sbag0
(g589
g2
Ntp2267
Rp2268
(dp2269
g593
Nsg594
(lp2270
g0
(g596
g2
Ntp2271
Rp2272
(dp2273
g593
Nsg600
g0
(g601
g2
Ntp2274
Rp2275
(dp2276
g605
(dp2277
sg607
g2265
sg609
I00
sg610
(lp2278
g2263
asbsg612
(dp2279
g2263
Nssbasg614
I00
sbasbsg607
g1019
sg1061
I01
sg1062
g0
(g1063
g2
Ntp2280
Rp2281
(dp2282
g1067
g0
(g1034
g2
Ntp2283
Rp2284
(dp2285
g1038
(lp2286
g0
(g589
g2
Ntp2287
Rp2288
(dp2289
g593
Nsg594
(lp2290
g0
(g596
g2
Ntp2291
Rp2292
(dp2293
g593
Nsg600
g2260
sg612
(dp2294
g2265
I1
ssbag0
(g596
g2
Ntp2295
Rp2296
(dp2297
g593
Nsg600
g2275
sg612
(dp2298
g2263
I1
ssbasg614
I00
sbasbsg1033
g2249
sg1061
I01
sbsg1084
I00
sg609
I00
sg1067
g2284
sg1085
I00
sg1086
g928
sbag0
(g1028
g2
Ntp2299
Rp2300
(dp2301
g1032
g928
sg1033
g0
(g1034
g2
Ntp2302
Rp2303
(dp2304
g1038
(lp2305
g0
(g589
g2
Ntp2306
Rp2307
(dp2308
g593
Nsg594
(lp2309
g0
(g596
g2
Ntp2310
Rp2311
(dp2312
g593
Nsg600
g0
(g601
g2
Ntp2313
Rp2314
(dp2315
g605
(dp2316
sg607
S'CREB1'
p2317
sg609
I00
sg610
(lp2318
S'CREBBP'
p2319
asbsg612
(dp2320
g2319
Nssbasg614
I00
sbag0
(g589
g2
Ntp2321
Rp2322
(dp2323
g593
Nsg594
(lp2324
g0
(g596
g2
Ntp2325
Rp2326
(dp2327
g593
Nsg600
g0
(g601
g2
Ntp2328
Rp2329
(dp2330
g605
(dp2331
sg607
g2319
sg609
I00
sg610
(lp2332
g2317
asbsg612
(dp2333
g2317
Nssbasg614
I00
sbasbsg607
g1003
sg1061
I01
sg1062
g0
(g1063
g2
Ntp2334
Rp2335
(dp2336
g1067
g0
(g1034
g2
Ntp2337
Rp2338
(dp2339
g1038
(lp2340
g0
(g589
g2
Ntp2341
Rp2342
(dp2343
g593
Nsg594
(lp2344
g0
(g596
g2
Ntp2345
Rp2346
(dp2347
g593
Nsg600
g2314
sg612
(dp2348
g2319
I1
ssbag0
(g596
g2
Ntp2349
Rp2350
(dp2351
g593
Nsg600
g2329
sg612
(dp2352
g2317
I1
ssbasg614
I00
sbasbsg1033
g2303
sg1061
I01
sbsg1084
I00
sg609
I00
sg1067
g2338
sg1085
I00
sg1086
g928
sbag0
(g1028
g2
Ntp2353
Rp2354
(dp2355
g1032
g928
sg1033
g0
(g1034
g2
Ntp2356
Rp2357
(dp2358
g1038
(lp2359
g0
(g589
g2
Ntp2360
Rp2361
(dp2362
g593
Nsg594
(lp2363
g0
(g596
g2
Ntp2364
Rp2365
(dp2366
g593
Nsg600
g1870
sg612
(dp2367
g661
Nssbasg614
I00
sbag0
(g589
g2
Ntp2368
Rp2369
(dp2370
g593
Nsg594
(lp2371
g0
(g596
g2
Ntp2372
Rp2373
(dp2374
g593
Nsg600
g654
sg612
(dp2375
g663
Nssbasg614
I00
sbasbsg607
g973
sg1061
I01
sg1062
g0
(g1063
g2
Ntp2376
Rp2377
(dp2378
g1067
g0
(g1034
g2
Ntp2379
Rp2380
(dp2381
g1038
(lp2382
g0
(g589
g2
Ntp2383
Rp2384
(dp2385
g593
Nsg594
(lp2386
g0
(g596
g2
Ntp2387
Rp2388
(dp2389
g593
Nsg600
g1870
sg612
(dp2390
g661
I1
ssbag0
(g596
g2
Ntp2391
Rp2392
(dp2393
g593
Nsg600
g654
sg612
(dp2394
g663
I1
ssbasg614
I00
sbasbsg1033
g2357
sg1061
I01
sbsg1084
I00
sg609
I00
sg1067
g2380
sg1085
I00
sg1086
g928
sbag0
(g1028
g2
Ntp2395
Rp2396
(dp2397
g1032
g928
sg1033
g0
(g1034
g2
Ntp2398
Rp2399
(dp2400
g1038
(lp2401
g0
(g589
g2
Ntp2402
Rp2403
(dp2404
g593
Nsg594
(lp2405
g0
(g596
g2
Ntp2406
Rp2407
(dp2408
g593
Nsg600
g1870
sg612
(dp2409
g1874
Nssbasg614
I00
sbag0
(g589
g2
Ntp2410
Rp2411
(dp2412
g593
Nsg594
(lp2413
g0
(g596
g2
Ntp2414
Rp2415
(dp2416
g593
Nsg600
g0
(g601
g2
Ntp2417
Rp2418
(dp2419
g605
(dp2420
sg607
g1874
sg609
I00
sg610
(lp2421
S'GRB2'
p2422
asbsg612
(dp2423
g2422
Nssbasg614
I00
sbasbsg607
g965
sg1061
I01
sg1062
g0
(g1063
g2
Ntp2424
Rp2425
(dp2426
g1067
g0
(g1034
g2
Ntp2427
Rp2428
(dp2429
g1038
(lp2430
g0
(g589
g2
Ntp2431
Rp2432
(dp2433
g593
Nsg594
(lp2434
g0
(g596
g2
Ntp2435
Rp2436
(dp2437
g593
Nsg600
g1870
sg612
(dp2438
g1874
I1
ssbag0
(g596
g2
Ntp2439
Rp2440
(dp2441
g593
Nsg600
g2418
sg612
(dp2442
g2422
I1
ssbasg614
I00
sbasbsg1033
g2399
sg1061
I01
sbsg1084
I00
sg609
I00
sg1067
g2428
sg1085
I00
sg1086
g928
sbag0
(g1028
g2
Ntp2443
Rp2444
(dp2445
g1032
g928
sg1033
g0
(g1034
g2
Ntp2446
Rp2447
(dp2448
g1038
(lp2449
g0
(g589
g2
Ntp2450
Rp2451
(dp2452
g593
Nsg594
(lp2453
g0
(g596
g2
Ntp2454
Rp2455
(dp2456
g593
Nsg600
g630
sg612
(dp2457
g639
Nssbasg614
I00
sbag0
(g589
g2
Ntp2458
Rp2459
(dp2460
g593
Nsg594
(lp2461
g0
(g596
g2
Ntp2462
Rp2463
(dp2464
g593
Nsg600
g0
(g601
g2
Ntp2465
Rp2466
(dp2467
g605
(dp2468
sg607
g639
sg609
I00
sg610
(lp2469
g637
asbsg612
(dp2470
g637
Nssbasg614
I00
sbasbsg607
g971
sg1061
I01
sg1062
g0
(g1063
g2
Ntp2471
Rp2472
(dp2473
g1067
g0
(g1034
g2
Ntp2474
Rp2475
(dp2476
g1038
(lp2477
g0
(g589
g2
Ntp2478
Rp2479
(dp2480
g593
Nsg594
(lp2481
g0
(g596
g2
Ntp2482
Rp2483
(dp2484
g593
Nsg600
g630
sg612
(dp2485
g639
I1
ssbag0
(g596
g2
Ntp2486
Rp2487
(dp2488
g593
Nsg600
g2466
sg612
(dp2489
g637
I1
ssbasg614
I00
sbasbsg1033
g2447
sg1061
I01
sbsg1084
I00
sg609
I00
sg1067
g2475
sg1085
I00
sg1086
g928
sbag0
(g1028
g2
Ntp2490
Rp2491
(dp2492
g1032
g928
sg1033
g0
(g1034
g2
Ntp2493
Rp2494
(dp2495
g1038
(lp2496
g0
(g589
g2
Ntp2497
Rp2498
(dp2499
g593
Nsg594
(lp2500
g0
(g596
g2
Ntp2501
Rp2502
(dp2503
g593
Nsg600
g678
sg612
(dp2504
g686
Nssbasg614
I00
sbag0
(g589
g2
Ntp2505
Rp2506
(dp2507
g593
Nsg594
(lp2508
g0
(g596
g2
Ntp2509
Rp2510
(dp2511
g593
Nsg600
g0
(g601
g2
Ntp2512
Rp2513
(dp2514
g605
(dp2515
sg607
g686
sg609
I00
sg610
(lp2516
S'HRAS'
p2517
asbsg612
(dp2518
g2517
Nssbasg614
I00
sbasbsg607
g991
sg1061
I01
sg1062
g0
(g1063
g2
Ntp2519
Rp2520
(dp2521
g1067
g0
(g1034
g2
Ntp2522
Rp2523
(dp2524
g1038
(lp2525
g0
(g589
g2
Ntp2526
Rp2527
(dp2528
g593
Nsg594
(lp2529
g0
(g596
g2
Ntp2530
Rp2531
(dp2532
g593
Nsg600
g678
sg612
(dp2533
g686
I1
ssbag0
(g596
g2
Ntp2534
Rp2535
(dp2536
g593
Nsg600
g2513
sg612
(dp2537
g2517
I1
ssbasg614
I00
sbasbsg1033
g2494
sg1061
I01
sbsg1084
I00
sg609
I00
sg1067
g2523
sg1085
I00
sg1086
g928
sbag0
(g1028
g2
Ntp2538
Rp2539
(dp2540
g1032
g931
sg1033
g0
(g1034
g2
Ntp2541
Rp2542
(dp2543
g1038
(lp2544
g0
(g589
g2
Ntp2545
Rp2546
(dp2547
g593
Nsg594
(lp2548
g0
(g596
g2
Ntp2549
Rp2550
(dp2551
g593
Nsg600
g0
(g601
g2
Ntp2552
Rp2553
(dp2554
g605
(dp2555
g792
(lp2556
S'inactive'
p2557
aS'active'
p2558
assg607
S'AKT_FAMILY'
p2559
sg609
I00
sg610
(lp2560
g792
asbsg612
(dp2561
g792
g886
ssbasg614
I00
sbag0
(g589
g2
Ntp2562
Rp2563
(dp2564
g593
Nsg594
(lp2565
g0
(g596
g2
Ntp2566
Rp2567
(dp2568
g593
Nsg600
g779
sg612
(dp2569
S'S259'
p2570
g784
ssbasg614
I00
sbasbsg607
g1014
sg1061
I00
sg1062
g0
(g1063
g2
Ntp2571
Rp2572
(dp2573
g1067
g0
(g1034
g2
Ntp2574
Rp2575
(dp2576
g1038
(lp2577
g0
(g589
g2
Ntp2578
Rp2579
(dp2580
g593
Nsg594
(lp2581
g0
(g596
g2
Ntp2582
Rp2583
(dp2584
g593
Nsg600
g2553
sg612
(dp2585
g792
g886
ssbasg614
I00
sbag0
(g589
g2
Ntp2586
Rp2587
(dp2588
g593
Nsg594
(lp2589
g0
(g596
g2
Ntp2590
Rp2591
(dp2592
g593
Nsg600
g779
sg612
(dp2593
g2570
g785
ssbasg614
I00
sbasbsg1033
g2542
sg1061
I00
sbsg1084
I00
sg609
I00
sg1067
g2575
sg1085
I00
sg1086
Nsbag0
(g1028
g2
Ntp2594
Rp2595
(dp2596
g1032
g931
sg1033
g0
(g1034
g2
Ntp2597
Rp2598
(dp2599
g1038
(lp2600
g0
(g589
g2
Ntp2601
Rp2602
(dp2603
g593
Nsg594
(lp2604
g0
(g596
g2
Ntp2605
Rp2606
(dp2607
g593
Nsg600
g0
(g601
g2
Ntp2608
Rp2609
(dp2610
g605
(dp2611
g792
(lp2612
g2557
ag2558
assg607
S'PRKC_FAMILY'
p2613
sg609
I00
sg610
(lp2614
g792
asbsg612
(dp2615
g792
g886
ssbasg614
I00
sbag0
(g589
g2
Ntp2616
Rp2617
(dp2618
g593
Nsg594
(lp2619
g0
(g596
g2
Ntp2620
Rp2621
(dp2622
g593
Nsg600
g779
sg612
(dp2623
S'S499'
p2624
g784
ssbasg614
I00
sbasbsg607
g977
sg1061
I00
sg1062
g0
(g1063
g2
Ntp2625
Rp2626
(dp2627
g1067
g0
(g1034
g2
Ntp2628
Rp2629
(dp2630
g1038
(lp2631
g0
(g589
g2
Ntp2632
Rp2633
(dp2634
g593
Nsg594
(lp2635
g0
(g596
g2
Ntp2636
Rp2637
(dp2638
g593
Nsg600
g2609
sg612
(dp2639
g792
g886
ssbasg614
I00
sbag0
(g589
g2
Ntp2640
Rp2641
(dp2642
g593
Nsg594
(lp2643
g0
(g596
g2
Ntp2644
Rp2645
(dp2646
g593
Nsg600
g779
sg612
(dp2647
g2624
g785
ssbasg614
I00
sbasbsg1033
g2598
sg1061
I00
sbsg1084
I00
sg609
I00
sg1067
g2629
sg1085
I00
sg1086
Nsbag0
(g1028
g2
Ntp2648
Rp2649
(dp2650
g1032
g931
sg1033
g0
(g1034
g2
Ntp2651
Rp2652
(dp2653
g1038
(lp2654
g0
(g589
g2
Ntp2655
Rp2656
(dp2657
g593
Nsg594
(lp2658
g0
(g596
g2
Ntp2659
Rp2660
(dp2661
g593
Nsg600
g0
(g601
g2
Ntp2662
Rp2663
(dp2664
g605
(dp2665
g792
(lp2666
g2557
ag2558
assg607
S'P2_FAMILY'
p2667
sg609
I00
sg610
(lp2668
g792
asbsg612
(dp2669
g792
g886
ssbasg614
I00
sbag0
(g589
g2
Ntp2670
Rp2671
(dp2672
g593
Nsg594
(lp2673
g0
(g596
g2
Ntp2674
Rp2675
(dp2676
g593
Nsg600
g824
sg612
(dp2677
S'T25'
p2678
g784
ssbasg614
I00
sbasbsg607
g1004
sg1061
I00
sg1062
g0
(g1063
g2
Ntp2679
Rp2680
(dp2681
g1067
g0
(g1034
g2
Ntp2682
Rp2683
(dp2684
g1038
(lp2685
g0
(g589
g2
Ntp2686
Rp2687
(dp2688
g593
Nsg594
(lp2689
g0
(g596
g2
Ntp2690
Rp2691
(dp2692
g593
Nsg600
g2663
sg612
(dp2693
g792
g886
ssbasg614
I00
sbag0
(g589
g2
Ntp2694
Rp2695
(dp2696
g593
Nsg594
(lp2697
g0
(g596
g2
Ntp2698
Rp2699
(dp2700
g593
Nsg600
g824
sg612
(dp2701
g2678
g785
ssbasg614
I00
sbasbsg1033
g2652
sg1061
I00
sbsg1084
I00
sg609
I00
sg1067
g2683
sg1085
I00
sg1086
Nsbag0
(g1028
g2
Ntp2702
Rp2703
(dp2704
g1032
g931
sg1033
g0
(g1034
g2
Ntp2705
Rp2706
(dp2707
g1038
(lp2708
g0
(g589
g2
Ntp2709
Rp2710
(dp2711
g593
Nsg594
(lp2712
g0
(g596
g2
Ntp2713
Rp2714
(dp2715
g593
Nsg600
g0
(g601
g2
Ntp2716
Rp2717
(dp2718
g605
(dp2719
g792
(lp2720
g2557
ag2558
assg607
S'JAK1'
p2721
sg609
I00
sg610
(lp2722
g792
asbsg612
(dp2723
g792
g886
ssbasg614
I00
sbag0
(g589
g2
Ntp2724
Rp2725
(dp2726
g593
Nsg594
(lp2727
g0
(g596
g2
Ntp2728
Rp2729
(dp2730
g593
Nsg600
g779
sg612
(dp2731
S'Y341'
p2732
g784
ssbasg614
I00
sbasbsg607
g1009
sg1061
I00
sg1062
g0
(g1063
g2
Ntp2733
Rp2734
(dp2735
g1067
g0
(g1034
g2
Ntp2736
Rp2737
(dp2738
g1038
(lp2739
g0
(g589
g2
Ntp2740
Rp2741
(dp2742
g593
Nsg594
(lp2743
g0
(g596
g2
Ntp2744
Rp2745
(dp2746
g593
Nsg600
g2717
sg612
(dp2747
g792
g886
ssbasg614
I00
sbag0
(g589
g2
Ntp2748
Rp2749
(dp2750
g593
Nsg594
(lp2751
g0
(g596
g2
Ntp2752
Rp2753
(dp2754
g593
Nsg600
g779
sg612
(dp2755
g2732
g785
ssbasg614
I00
sbasbsg1033
g2706
sg1061
I00
sbsg1084
I00
sg609
I00
sg1067
g2737
sg1085
I00
sg1086
Nsbag0
(g1028
g2
Ntp2756
Rp2757
(dp2758
g1032
g931
sg1033
g0
(g1034
g2
Ntp2759
Rp2760
(dp2761
g1038
(lp2762
g0
(g589
g2
Ntp2763
Rp2764
(dp2765
g593
Nsg594
(lp2766
g0
(g596
g2
Ntp2767
Rp2768
(dp2769
g593
Nsg600
g0
(g601
g2
Ntp2770
Rp2771
(dp2772
g605
(dp2773
g792
(lp2774
g2557
ag2558
assg607
S'PRKA_FAMILY'
p2775
sg609
I00
sg610
(lp2776
g792
asbsg612
(dp2777
g792
g886
ssbasg614
I00
sbag0
(g589
g2
Ntp2778
Rp2779
(dp2780
g593
Nsg594
(lp2781
g0
(g596
g2
Ntp2782
Rp2783
(dp2784
g593
Nsg600
g779
sg612
(dp2785
S'S43'
p2786
g784
ssbasg614
I00
sbasbsg607
g982
sg1061
I00
sg1062
g0
(g1063
g2
Ntp2787
Rp2788
(dp2789
g1067
g0
(g1034
g2
Ntp2790
Rp2791
(dp2792
g1038
(lp2793
g0
(g589
g2
Ntp2794
Rp2795
(dp2796
g593
Nsg594
(lp2797
g0
(g596
g2
Ntp2798
Rp2799
(dp2800
g593
Nsg600
g2771
sg612
(dp2801
g792
g886
ssbasg614
I00
sbag0
(g589
g2
Ntp2802
Rp2803
(dp2804
g593
Nsg594
(lp2805
g0
(g596
g2
Ntp2806
Rp2807
(dp2808
g593
Nsg600
g779
sg612
(dp2809
g2786
g785
ssbasg614
I00
sbasbsg1033
g2760
sg1061
I00
sbsg1084
I00
sg609
I00
sg1067
g2791
sg1085
I00
sg1086
Nsbag0
(g1028
g2
Ntp2810
Rp2811
(dp2812
g1032
g931
sg1033
g0
(g1034
g2
Ntp2813
Rp2814
(dp2815
g1038
(lp2816
g0
(g589
g2
Ntp2817
Rp2818
(dp2819
g593
Nsg594
(lp2820
g0
(g596
g2
Ntp2821
Rp2822
(dp2823
g593
Nsg600
g0
(g601
g2
Ntp2824
Rp2825
(dp2826
g605
(dp2827
g792
(lp2828
g2557
ag2558
assg607
S'SRC'
p2829
sg609
I00
sg610
(lp2830
g792
asbsg612
(dp2831
g792
g886
ssbasg614
I00
sbag0
(g589
g2
Ntp2832
Rp2833
(dp2834
g593
Nsg594
(lp2835
g0
(g596
g2
Ntp2836
Rp2837
(dp2838
g593
Nsg600
g779
sg612
(dp2839
S'Y340'
p2840
g784
ssbasg614
I00
sbasbsg607
g993
sg1061
I00
sg1062
g0
(g1063
g2
Ntp2841
Rp2842
(dp2843
g1067
g0
(g1034
g2
Ntp2844
Rp2845
(dp2846
g1038
(lp2847
g0
(g589
g2
Ntp2848
Rp2849
(dp2850
g593
Nsg594
(lp2851
g0
(g596
g2
Ntp2852
Rp2853
(dp2854
g593
Nsg600
g2825
sg612
(dp2855
g792
g886
ssbasg614
I00
sbag0
(g589
g2
Ntp2856
Rp2857
(dp2858
g593
Nsg594
(lp2859
g0
(g596
g2
Ntp2860
Rp2861
(dp2862
g593
Nsg600
g779
sg612
(dp2863
g2840
g785
ssbasg614
I00
sbasbsg1033
g2814
sg1061
I00
sbsg1084
I00
sg609
I00
sg1067
g2845
sg1085
I00
sg1086
Nsbag0
(g1028
g2
Ntp2864
Rp2865
(dp2866
g1032
g931
sg1033
g0
(g1034
g2
Ntp2867
Rp2868
(dp2869
g1038
(lp2870
g0
(g589
g2
Ntp2871
Rp2872
(dp2873
g593
Nsg594
(lp2874
g0
(g596
g2
Ntp2875
Rp2876
(dp2877
g593
Nsg600
g0
(g601
g2
Ntp2878
Rp2879
(dp2880
g605
(dp2881
g792
(lp2882
g2557
ag2558
assg607
S'RET'
p2883
sg609
I00
sg610
(lp2884
g792
asbsg612
(dp2885
g792
g886
ssbasg614
I00
sbag0
(g589
g2
Ntp2886
Rp2887
(dp2888
g593
Nsg594
(lp2889
g0
(g596
g2
Ntp2890
Rp2891
(dp2892
g593
Nsg600
g849
sg612
(dp2893
S'Y187'
p2894
g784
ssbasg614
I00
sbasbsg607
g966
sg1061
I00
sg1062
g0
(g1063
g2
Ntp2895
Rp2896
(dp2897
g1067
g0
(g1034
g2
Ntp2898
Rp2899
(dp2900
g1038
(lp2901
g0
(g589
g2
Ntp2902
Rp2903
(dp2904
g593
Nsg594
(lp2905
g0
(g596
g2
Ntp2906
Rp2907
(dp2908
g593
Nsg600
g2879
sg612
(dp2909
g792
g886
ssbasg614
I00
sbag0
(g589
g2
Ntp2910
Rp2911
(dp2912
g593
Nsg594
(lp2913
g0
(g596
g2
Ntp2914
Rp2915
(dp2916
g593
Nsg600
g849
sg612
(dp2917
g2894
g785
ssbasg614
I00
sbasbsg1033
g2868
sg1061
I00
sbsg1084
I00
sg609
I00
sg1067
g2899
sg1085
I00
sg1086
Nsbag0
(g1028
g2
Ntp2918
Rp2919
(dp2920
g1032
g934
sg1033
g0
(g1034
g2
Ntp2921
Rp2922
(dp2923
g1038
(lp2924
g0
(g589
g2
Ntp2925
Rp2926
(dp2927
g593
Nsg594
(lp2928
g0
(g596
g2
Ntp2929
Rp2930
(dp2931
g593
Nsg600
g0
(g601
g2
Ntp2932
Rp2933
(dp2934
g605
(dp2935
sg607
S'DUSP4'
p2936
sg609
I00
sg610
(lp2937
sbsg612
(dp2938
sbasg614
I00
sbag0
(g589
g2
Ntp2939
Rp2940
(dp2941
g593
Nsg594
(lp2942
g0
(g596
g2
Ntp2943
Rp2944
(dp2945
g593
Nsg600
g849
sg612
(dp2946
S'T185'
p2947
g785
ssbasg614
I00
sbasbsg607
g999
sg1061
I00
sg1062
g0
(g1063
g2
Ntp2948
Rp2949
(dp2950
g1067
g0
(g1034
g2
Ntp2951
Rp2952
(dp2953
g1038
(lp2954
g0
(g589
g2
Ntp2955
Rp2956
(dp2957
g593
Nsg594
(lp2958
g0
(g596
g2
Ntp2959
Rp2960
(dp2961
g593
Nsg600
g2933
sg612
(dp2962
sbasg614
I00
sbag0
(g589
g2
Ntp2963
Rp2964
(dp2965
g593
Nsg594
(lp2966
g0
(g596
g2
Ntp2967
Rp2968
(dp2969
g593
Nsg600
g849
sg612
(dp2970
g2947
g784
ssbasg614
I00
sbasbsg1033
g2922
sg1061
I00
sbsg1084
I00
sg609
I00
sg1067
g2952
sg1085
I00
sg1086
Nsbag0
(g1028
g2
Ntp2971
Rp2972
(dp2973
g1032
g937
sg1033
g0
(g1034
g2
Ntp2974
Rp2975
(dp2976
g1038
(lp2977
g0
(g589
g2
Ntp2978
Rp2979
(dp2980
g593
Nsg594
(lp2981
g0
(g596
g2
Ntp2982
Rp2983
(dp2984
g593
Nsg600
g824
sg612
(dp2985
S'S'
p2986
g785
sg792
S'inactive'
p2987
ssbasg614
I00
sbasbsg607
g995
sg1061
I00
sg1062
g0
(g1063
g2
Ntp2988
Rp2989
(dp2990
g1067
g0
(g1034
g2
Ntp2991
Rp2992
(dp2993
g1038
(lp2994
g0
(g589
g2
Ntp2995
Rp2996
(dp2997
g593
Nsg594
(lp2998
g0
(g596
g2
Ntp2999
Rp3000
(dp3001
g593
Nsg600
g824
sg612
(dp3002
g2986
g785
sg792
g886
ssbasg614
I00
sbasbsg1033
g2975
sg1061
I00
sbsg1084
I00
sg609
I00
sg1067
g2992
sg1085
I00
sg1086
Nsbag0
(g1028
g2
Ntp3003
Rp3004
(dp3005
g1032
g937
sg1033
g0
(g1034
g2
Ntp3006
Rp3007
(dp3008
g1038
(lp3009
g0
(g589
g2
Ntp3010
Rp3011
(dp3012
g593
Nsg594
(lp3013
g0
(g596
g2
Ntp3014
Rp3015
(dp3016
g593
Nsg600
g849
sg612
(dp3017
S'Y'
p3018
g785
sg792
g2987
ssbasg614
I00
sbasbsg607
g1022
sg1061
I00
sg1062
g0
(g1063
g2
Ntp3019
Rp3020
(dp3021
g1067
g0
(g1034
g2
Ntp3022
Rp3023
(dp3024
g1038
(lp3025
g0
(g589
g2
Ntp3026
Rp3027
(dp3028
g593
Nsg594
(lp3029
g0
(g596
g2
Ntp3030
Rp3031
(dp3032
g593
Nsg600
g849
sg612
(dp3033
g3018
g785
sg792
g886
ssbasg614
I00
sbasbsg1033
g3007
sg1061
I00
sbsg1084
I00
sg609
I00
sg1067
g3023
sg1085
I00
sg1086
Nsbag0
(g1028
g2
Ntp3034
Rp3035
(dp3036
g1032
g937
sg1033
g0
(g1034
g2
Ntp3037
Rp3038
(dp3039
g1038
(lp3040
g0
(g589
g2
Ntp3041
Rp3042
(dp3043
g593
Nsg594
(lp3044
g0
(g596
g2
Ntp3045
Rp3046
(dp3047
g593
Nsg600
g779
sg612
(dp3048
S'S339'
p3049
g785
sg792
g2987
ssbasg614
I00
sbasbsg607
g990
sg1061
I00
sg1062
g0
(g1063
g2
Ntp3050
Rp3051
(dp3052
g1067
g0
(g1034
g2
Ntp3053
Rp3054
(dp3055
g1038
(lp3056
g0
(g589
g2
Ntp3057
Rp3058
(dp3059
g593
Nsg594
(lp3060
g0
(g596
g2
Ntp3061
Rp3062
(dp3063
g593
Nsg600
g779
sg612
(dp3064
g3049
g785
sg792
g886
ssbasg614
I00
sbasbsg1033
g3038
sg1061
I00
sbsg1084
I00
sg609
I00
sg1067
g3054
sg1085
I00
sg1086
Nsbag0
(g1028
g2
Ntp3065
Rp3066
(dp3067
g1032
g940
sg1033
g0
(g1034
g2
Ntp3068
Rp3069
(dp3070
g1038
(lp3071
g0
(g589
g2
Ntp3072
Rp3073
(dp3074
g593
Nsg594
(lp3075
g0
(g596
g2
Ntp3076
Rp3077
(dp3078
g593
Nsg600
g900
sg612
(dp3079
g903
g886
ssbasg614
I00
sbag0
(g589
g2
Ntp3080
Rp3081
(dp3082
g593
Nsg594
(lp3083
g0
(g596
g2
Ntp3084
Rp3085
(dp3086
g593
Nsg600
g720
sg612
(dp3087
g704
g886
ssbasg614
I00
sbasbsg607
g983
sg1061
I00
sg1062
g0
(g1063
g2
Ntp3088
Rp3089
(dp3090
g1067
g0
(g1034
g2
Ntp3091
Rp3092
(dp3093
g1038
(lp3094
g0
(g589
g2
Ntp3095
Rp3096
(dp3097
g593
Nsg594
(lp3098
g0
(g596
g2
Ntp3099
Rp3100
(dp3101
g593
Nsg600
g900
sg612
(dp3102
g903
g886
ssbasg614
I00
sbag0
(g589
g2
Ntp3103
Rp3104
(dp3105
g593
Nsg594
(lp3106
g0
(g596
g2
Ntp3107
Rp3108
(dp3109
g593
Nsg600
g720
sg612
(dp3110
g704
g2987
ssbasg614
I00
sbasbsg1033
g3069
sg1061
I00
sbsg1084
I00
sg609
I00
sg1067
g3092
sg1085
I00
sg1086
Nsbag0
(g1028
g2
Ntp3111
Rp3112
(dp3113
g1032
g943
sg1033
g0
(g1034
g2
Ntp3114
Rp3115
(dp3116
g1038
(lp3117
g0
(g589
g2
Ntp3118
Rp3119
(dp3120
g593
Nsg594
(lp3121
g0
(g596
g2
Ntp3122
Rp3123
(dp3124
g593
Nsg600
g654
sg612
(dp3125
g657
g886
ssbasg614
I00
sbag0
(g589
g2
Ntp3126
Rp3127
(dp3128
g593
Nsg594
(lp3129
g0
(g596
g2
Ntp3130
Rp3131
(dp3132
g593
Nsg600
g720
sg612
(dp3133
g704
g2987
ssbasg614
I00
sbasbsg607
g969
sg1061
I00
sg1062
g0
(g1063
g2
Ntp3134
Rp3135
(dp3136
g1067
g0
(g1034
g2
Ntp3137
Rp3138
(dp3139
g1038
(lp3140
g0
(g589
g2
Ntp3141
Rp3142
(dp3143
g593
Nsg594
(lp3144
g0
(g596
g2
Ntp3145
Rp3146
(dp3147
g593
Nsg600
g654
sg612
(dp3148
g657
g886
ssbasg614
I00
sbag0
(g589
g2
Ntp3149
Rp3150
(dp3151
g593
Nsg594
(lp3152
g0
(g596
g2
Ntp3153
Rp3154
(dp3155
g593
Nsg600
g720
sg612
(dp3156
g704
g886
ssbasg614
I00
sbasbsg1033
g3115
sg1061
I00
sbsg1084
I00
sg609
I00
sg1067
g3138
sg1085
I00
sg1086
Nsbag0
(g1028
g2
Ntp3157
Rp3158
(dp3159
g1032
g946
sg1033
g0
(g1034
g2
Ntp3160
Rp3161
(dp3162
g1038
(lp3163
g0
(g589
g2
Ntp3164
Rp3165
(dp3166
g593
Nsg594
(lp3167
g0
(g596
g2
Ntp3168
Rp3169
(dp3170
g593
Nsg600
g0
(g601
g2
Ntp3171
Rp3172
(dp3173
g605
(dp3174
S'Kinase'
p3175
(lp3176
g635
ag636
assg607
S'RAF_FAMILY'
p3177
sg609
I00
sg610
(lp3178
g3175
asbsg612
(dp3179
g3175
g886
ssbasg614
I00
sbag0
(g589
g2
Ntp3180
Rp3181
(dp3182
g593
Nsg594
(lp3183
g0
(g596
g2
Ntp3184
Rp3185
(dp3186
g593
Nsg600
g824
sg612
(dp3187
S'Kinase'
p3188
g2987
ssbasg614
I00
sbasbsg607
g1024
sg1061
I00
sg1062
g0
(g1063
g2
Ntp3189
Rp3190
(dp3191
g1067
g0
(g1034
g2
Ntp3192
Rp3193
(dp3194
g1038
(lp3195
g0
(g589
g2
Ntp3196
Rp3197
(dp3198
g593
Nsg594
(lp3199
g0
(g596
g2
Ntp3200
Rp3201
(dp3202
g593
Nsg600
g3172
sg612
(dp3203
g3175
g886
ssbasg614
I00
sbag0
(g589
g2
Ntp3204
Rp3205
(dp3206
g593
Nsg594
(lp3207
g0
(g596
g2
Ntp3208
Rp3209
(dp3210
g593
Nsg600
g824
sg612
(dp3211
g3188
g886
ssbasg614
I00
sbasbsg1033
g3161
sg1061
I00
sbsg1084
I00
sg609
I00
sg1067
g3193
sg1085
I00
sg1086
Nsbag0
(g1028
g2
Ntp3212
Rp3213
(dp3214
g1032
g946
sg1033
g0
(g1034
g2
Ntp3215
Rp3216
(dp3217
g1038
(lp3218
g0
(g589
g2
Ntp3219
Rp3220
(dp3221
g593
Nsg594
(lp3222
g0
(g596
g2
Ntp3223
Rp3224
(dp3225
g593
Nsg600
g678
sg612
(dp3226
g681
g886
ssbasg614
I00
sbag0
(g589
g2
Ntp3227
Rp3228
(dp3229
g593
Nsg594
(lp3230
g0
(g596
g2
Ntp3231
Rp3232
(dp3233
g593
Nsg600
g779
sg612
(dp3234
S'Kinase'
p3235
g2987
ssbasg614
I00
sbasbsg607
g1010
sg1061
I00
sg1062
g0
(g1063
g2
Ntp3236
Rp3237
(dp3238
g1067
g0
(g1034
g2
Ntp3239
Rp3240
(dp3241
g1038
(lp3242
g0
(g589
g2
Ntp3243
Rp3244
(dp3245
g593
Nsg594
(lp3246
g0
(g596
g2
Ntp3247
Rp3248
(dp3249
g593
Nsg600
g678
sg612
(dp3250
g681
g886
ssbasg614
I00
sbag0
(g589
g2
Ntp3251
Rp3252
(dp3253
g593
Nsg594
(lp3254
g0
(g596
g2
Ntp3255
Rp3256
(dp3257
g593
Nsg600
g779
sg612
(dp3258
g3235
g886
ssbasg614
I00
sbasbsg1033
g3216
sg1061
I00
sbsg1084
I00
sg609
I00
sg1067
g3240
sg1085
I00
sg1086
Nsbag0
(g1028
g2
Ntp3259
Rp3260
(dp3261
g1032
g940
sg1033
g0
(g1034
g2
Ntp3262
Rp3263
(dp3264
g1038
(lp3265
g0
(g589
g2
Ntp3266
Rp3267
(dp3268
g593
Nsg594
(lp3269
g0
(g596
g2
Ntp3270
Rp3271
(dp3272
g593
Nsg600
g0
(g601
g2
Ntp3273
Rp3274
(dp3275
g605
(dp3276
S'Catalytic'
p3277
(lp3278
g880
ag881
assg607
S'DAB2IP'
p3279
sg609
I00
sg610
(lp3280
g3277
asbsg612
(dp3281
g3277
g886
ssbasg614
I00
sbag0
(g589
g2
Ntp3282
Rp3283
(dp3284
g593
Nsg594
(lp3285
g0
(g596
g2
Ntp3286
Rp3287
(dp3288
g593
Nsg600
g720
sg612
(dp3289
g704
g886
ssbasg614
I00
sbasbsg607
g976
sg1061
I00
sg1062
g0
(g1063
g2
Ntp3290
Rp3291
(dp3292
g1067
g0
(g1034
g2
Ntp3293
Rp3294
(dp3295
g1038
(lp3296
g0
(g589
g2
Ntp3297
Rp3298
(dp3299
g593
Nsg594
(lp3300
g0
(g596
g2
Ntp3301
Rp3302
(dp3303
g593
Nsg600
g3274
sg612
(dp3304
g3277
g886
ssbasg614
I00
sbag0
(g589
g2
Ntp3305
Rp3306
(dp3307
g593
Nsg594
(lp3308
g0
(g596
g2
Ntp3309
Rp3310
(dp3311
g593
Nsg600
g720
sg612
(dp3312
g704
g2987
ssbasg614
I00
sbasbsg1033
g3263
sg1061
I00
sbsg1084
I00
sg609
I00
sg1067
g3294
sg1085
I00
sg1086
Nsbag0
(g1028
g2
Ntp3313
Rp3314
(dp3315
g1032
g946
sg1033
g0
(g1034
g2
Ntp3316
Rp3317
(dp3318
g1038
(lp3319
g0
(g589
g2
Ntp3320
Rp3321
(dp3322
g593
Nsg594
(lp3323
g0
(g596
g2
Ntp3324
Rp3325
(dp3326
g593
Nsg600
g0
(g601
g2
Ntp3327
Rp3328
(dp3329
g605
(dp3330
S'Kinase'
p3331
(lp3332
g635
ag636
assg607
S'MAP3K1'
p3333
sg609
I00
sg610
(lp3334
g3331
asbsg612
(dp3335
g3331
g886
ssbasg614
I00
sbag0
(g589
g2
Ntp3336
Rp3337
(dp3338
g593
Nsg594
(lp3339
g0
(g596
g2
Ntp3340
Rp3341
(dp3342
g593
Nsg600
g824
sg612
(dp3343
S'Kinase'
p3344
g2987
ssbasg614
I00
sbasbsg607
g972
sg1061
I00
sg1062
g0
(g1063
g2
Ntp3345
Rp3346
(dp3347
g1067
g0
(g1034
g2
Ntp3348
Rp3349
(dp3350
g1038
(lp3351
g0
(g589
g2
Ntp3352
Rp3353
(dp3354
g593
Nsg594
(lp3355
g0
(g596
g2
Ntp3356
Rp3357
(dp3358
g593
Nsg600
g3328
sg612
(dp3359
g3331
g886
ssbasg614
I00
sbag0
(g589
g2
Ntp3360
Rp3361
(dp3362
g593
Nsg594
(lp3363
g0
(g596
g2
Ntp3364
Rp3365
(dp3366
g593
Nsg600
g824
sg612
(dp3367
g3344
g886
ssbasg614
I00
sbasbsg1033
g3317
sg1061
I00
sbsg1084
I00
sg609
I00
sg1067
g3349
sg1085
I00
sg1086
Nsbag0
(g1028
g2
Ntp3368
Rp3369
(dp3370
g1032
g943
sg1033
g0
(g1034
g2
Ntp3371
Rp3372
(dp3373
g1038
(lp3374
g0
(g589
g2
Ntp3375
Rp3376
(dp3377
g593
Nsg594
(lp3378
g0
(g596
g2
Ntp3379
Rp3380
(dp3381
g593
Nsg600
g0
(g601
g2
Ntp3382
Rp3383
(dp3384
g605
(dp3385
S'Catalytic'
p3386
(lp3387
g659
ag660
assg607
S'SOS_FAMILY'
p3388
sg609
I00
sg610
(lp3389
g3386
asbsg612
(dp3390
g3386
g886
ssbasg614
I00
sbag0
(g589
g2
Ntp3391
Rp3392
(dp3393
g593
Nsg594
(lp3394
g0
(g596
g2
Ntp3395
Rp3396
(dp3397
g593
Nsg600
g701
sg612
(dp3398
g704
g2987
ssbasg614
I00
sbasbsg607
g989
sg1061
I00
sg1062
g0
(g1063
g2
Ntp3399
Rp3400
(dp3401
g1067
g0
(g1034
g2
Ntp3402
Rp3403
(dp3404
g1038
(lp3405
g0
(g589
g2
Ntp3406
Rp3407
(dp3408
g593
Nsg594
(lp3409
g0
(g596
g2
Ntp3410
Rp3411
(dp3412
g593
Nsg600
g3383
sg612
(dp3413
g3386
g886
ssbasg614
I00
sbag0
(g589
g2
Ntp3414
Rp3415
(dp3416
g593
Nsg594
(lp3417
g0
(g596
g2
Ntp3418
Rp3419
(dp3420
g593
Nsg600
g701
sg612
(dp3421
g704
g886
ssbasg614
I00
sbasbsg1033
g3372
sg1061
I00
sbsg1084
I00
sg609
I00
sg1067
g3403
sg1085
I00
sg1086
Nsbag0
(g1028
g2
Ntp3422
Rp3423
(dp3424
g1032
g943
sg1033
g0
(g1034
g2
Ntp3425
Rp3426
(dp3427
g1038
(lp3428
g0
(g589
g2
Ntp3429
Rp3430
(dp3431
g593
Nsg594
(lp3432
g0
(g596
g2
Ntp3433
Rp3434
(dp3435
g593
Nsg600
g654
sg612
(dp3436
S'Catalytic'
p3437
g886
ssbasg614
I00
sbag0
(g589
g2
Ntp3438
Rp3439
(dp3440
g593
Nsg594
(lp3441
g0
(g596
g2
Ntp3442
Rp3443
(dp3444
g593
Nsg600
g678
sg612
(dp3445
g704
g2987
ssbasg614
I00
sbasbsg607
g1015
sg1061
I00
sg1062
g0
(g1063
g2
Ntp3446
Rp3447
(dp3448
g1067
g0
(g1034
g2
Ntp3449
Rp3450
(dp3451
g1038
(lp3452
g0
(g589
g2
Ntp3453
Rp3454
(dp3455
g593
Nsg594
(lp3456
g0
(g596
g2
Ntp3457
Rp3458
(dp3459
g593
Nsg600
g654
sg612
(dp3460
g3437
g886
ssbasg614
I00
sbag0
(g589
g2
Ntp3461
Rp3462
(dp3463
g593
Nsg594
(lp3464
g0
(g596
g2
Ntp3465
Rp3466
(dp3467
g593
Nsg600
g678
sg612
(dp3468
g704
g886
ssbasg614
I00
sbasbsg1033
g3426
sg1061
I00
sbsg1084
I00
sg609
I00
sg1067
g3450
sg1085
I00
sg1086
Nsbag0
(g1028
g2
Ntp3469
Rp3470
(dp3471
g1032
g946
sg1033
g0
(g1034
g2
Ntp3472
Rp3473
(dp3474
g1038
(lp3475
g0
(g589
g2
Ntp3476
Rp3477
(dp3478
g593
Nsg594
(lp3479
g0
(g596
g2
Ntp3480
Rp3481
(dp3482
g593
Nsg600
g678
sg612
(dp3483
S'GtpBound'
p3484
g886
ssbasg614
I00
sbag0
(g589
g2
Ntp3485
Rp3486
(dp3487
g593
Nsg594
(lp3488
g0
(g596
g2
Ntp3489
Rp3490
(dp3491
g593
Nsg600
g738
sg612
(dp3492
g741
g2987
ssbasg614
I00
sbasbsg607
g968
sg1061
I00
sg1062
g0
(g1063
g2
Ntp3493
Rp3494
(dp3495
g1067
g0
(g1034
g2
Ntp3496
Rp3497
(dp3498
g1038
(lp3499
g0
(g589
g2
Ntp3500
Rp3501
(dp3502
g593
Nsg594
(lp3503
g0
(g596
g2
Ntp3504
Rp3505
(dp3506
g593
Nsg600
g678
sg612
(dp3507
g3484
g886
ssbasg614
I00
sbag0
(g589
g2
Ntp3508
Rp3509
(dp3510
g593
Nsg594
(lp3511
g0
(g596
g2
Ntp3512
Rp3513
(dp3514
g593
Nsg600
g738
sg612
(dp3515
g741
g886
ssbasg614
I00
sbasbsg1033
g3473
sg1061
I00
sbsg1084
I00
sg609
I00
sg1067
g3497
sg1085
I00
sg1086
Nsbag0
(g1028
g2
Ntp3516
Rp3517
(dp3518
g1032
g940
sg1033
g0
(g1034
g2
Ntp3519
Rp3520
(dp3521
g1038
(lp3522
g0
(g589
g2
Ntp3523
Rp3524
(dp3525
g593
Nsg594
(lp3526
g0
(g596
g2
Ntp3527
Rp3528
(dp3529
g593
Nsg600
g875
sg612
(dp3530
g878
g886
ssbasg614
I00
sbag0
(g589
g2
Ntp3531
Rp3532
(dp3533
g593
Nsg594
(lp3534
g0
(g596
g2
Ntp3535
Rp3536
(dp3537
g593
Nsg600
g701
sg612
(dp3538
g704
g886
ssbasg614
I00
sbasbsg607
g975
sg1061
I00
sg1062
g0
(g1063
g2
Ntp3539
Rp3540
(dp3541
g1067
g0
(g1034
g2
Ntp3542
Rp3543
(dp3544
g1038
(lp3545
g0
(g589
g2
Ntp3546
Rp3547
(dp3548
g593
Nsg594
(lp3549
g0
(g596
g2
Ntp3550
Rp3551
(dp3552
g593
Nsg600
g875
sg612
(dp3553
g878
g886
ssbasg614
I00
sbag0
(g589
g2
Ntp3554
Rp3555
(dp3556
g593
Nsg594
(lp3557
g0
(g596
g2
Ntp3558
Rp3559
(dp3560
g593
Nsg600
g701
sg612
(dp3561
g704
g2987
ssbasg614
I00
sbasbsg1033
g3520
sg1061
I00
sbsg1084
I00
sg609
I00
sg1067
g3543
sg1085
I00
sg1086
Nsbag0
(g1028
g2
Ntp3562
Rp3563
(dp3564
g1032
g946
sg1033
g0
(g1034
g2
Ntp3565
Rp3566
(dp3567
g1038
(lp3568
g0
(g589
g2
Ntp3569
Rp3570
(dp3571
g593
Nsg594
(lp3572
g0
(g596
g2
Ntp3573
Rp3574
(dp3575
g593
Nsg600
g720
sg612
(dp3576
S'GtpBound'
p3577
g886
ssbasg614
I00
sbag0
(g589
g2
Ntp3578
Rp3579
(dp3580
g593
Nsg594
(lp3581
g0
(g596
g2
Ntp3582
Rp3583
(dp3584
g593
Nsg600
g738
sg612
(dp3585
S'Kinase'
p3586
g2987
ssbasg614
I00
sbasbsg607
g1020
sg1061
I00
sg1062
g0
(g1063
g2
Ntp3587
Rp3588
(dp3589
g1067
g0
(g1034
g2
Ntp3590
Rp3591
(dp3592
g1038
(lp3593
g0
(g589
g2
Ntp3594
Rp3595
(dp3596
g593
Nsg594
(lp3597
g0
(g596
g2
Ntp3598
Rp3599
(dp3600
g593
Nsg600
g720
sg612
(dp3601
g3577
g886
ssbasg614
I00
sbag0
(g589
g2
Ntp3602
Rp3603
(dp3604
g593
Nsg594
(lp3605
g0
(g596
g2
Ntp3606
Rp3607
(dp3608
g593
Nsg600
g738
sg612
(dp3609
g3586
g886
ssbasg614
I00
sbasbsg1033
g3566
sg1061
I00
sbsg1084
I00
sg609
I00
sg1067
g3591
sg1085
I00
sg1086
Nsbag0
(g1028
g2
Ntp3610
Rp3611
(dp3612
g1032
g946
sg1033
g0
(g1034
g2
Ntp3613
Rp3614
(dp3615
g1038
(lp3616
g0
(g589
g2
Ntp3617
Rp3618
(dp3619
g593
Nsg594
(lp3620
g0
(g596
g2
Ntp3621
Rp3622
(dp3623
g593
Nsg600
g720
sg612
(dp3624
S'GtpBound'
p3625
g886
ssbasg614
I00
sbag0
(g589
g2
Ntp3626
Rp3627
(dp3628
g593
Nsg594
(lp3629
g0
(g596
g2
Ntp3630
Rp3631
(dp3632
g593
Nsg600
g779
sg612
(dp3633
S'Kinase'
p3634
g2987
ssbasg614
I00
sbasbsg607
g974
sg1061
I00
sg1062
g0
(g1063
g2
Ntp3635
Rp3636
(dp3637
g1067
g0
(g1034
g2
Ntp3638
Rp3639
(dp3640
g1038
(lp3641
g0
(g589
g2
Ntp3642
Rp3643
(dp3644
g593
Nsg594
(lp3645
g0
(g596
g2
Ntp3646
Rp3647
(dp3648
g593
Nsg600
g720
sg612
(dp3649
g3625
g886
ssbasg614
I00
sbag0
(g589
g2
Ntp3650
Rp3651
(dp3652
g593
Nsg594
(lp3653
g0
(g596
g2
Ntp3654
Rp3655
(dp3656
g593
Nsg600
g779
sg612
(dp3657
g3634
g886
ssbasg614
I00
sbasbsg1033
g3614
sg1061
I00
sbsg1084
I00
sg609
I00
sg1067
g3639
sg1085
I00
sg1086
Nsbag0
(g1028
g2
Ntp3658
Rp3659
(dp3660
g1032
g940
sg1033
g0
(g1034
g2
Ntp3661
Rp3662
(dp3663
g1038
(lp3664
g0
(g589
g2
Ntp3665
Rp3666
(dp3667
g593
Nsg594
(lp3668
g0
(g596
g2
Ntp3669
Rp3670
(dp3671
g593
Nsg600
g0
(g601
g2
Ntp3672
Rp3673
(dp3674
g605
(dp3675
S'Catalytic'
p3676
(lp3677
g880
ag881
assg607
S'RASA4'
p3678
sg609
I00
sg610
(lp3679
g3676
asbsg612
(dp3680
g3676
g886
ssbasg614
I00
sbag0
(g589
g2
Ntp3681
Rp3682
(dp3683
g593
Nsg594
(lp3684
g0
(g596
g2
Ntp3685
Rp3686
(dp3687
g593
Nsg600
g720
sg612
(dp3688
g704
g886
ssbasg614
I00
sbasbsg607
g1000
sg1061
I00
sg1062
g0
(g1063
g2
Ntp3689
Rp3690
(dp3691
g1067
g0
(g1034
g2
Ntp3692
Rp3693
(dp3694
g1038
(lp3695
g0
(g589
g2
Ntp3696
Rp3697
(dp3698
g593
Nsg594
(lp3699
g0
(g596
g2
Ntp3700
Rp3701
(dp3702
g593
Nsg600
g3673
sg612
(dp3703
g3676
g886
ssbasg614
I00
sbag0
(g589
g2
Ntp3704
Rp3705
(dp3706
g593
Nsg594
(lp3707
g0
(g596
g2
Ntp3708
Rp3709
(dp3710
g593
Nsg600
g720
sg612
(dp3711
g704
g2987
ssbasg614
I00
sbasbsg1033
g3662
sg1061
I00
sbsg1084
I00
sg609
I00
sg1067
g3693
sg1085
I00
sg1086
Nsbag0
(g1028
g2
Ntp3712
Rp3713
(dp3714
g1032
g946
sg1033
g0
(g1034
g2
Ntp3715
Rp3716
(dp3717
g1038
(lp3718
g0
(g589
g2
Ntp3719
Rp3720
(dp3721
g593
Nsg594
(lp3722
g0
(g596
g2
Ntp3723
Rp3724
(dp3725
g593
Nsg600
g779
sg612
(dp3726
S'Kinase'
p3727
g886
ssbasg614
I00
sbag0
(g589
g2
Ntp3728
Rp3729
(dp3730
g593
Nsg594
(lp3731
g0
(g596
g2
Ntp3732
Rp3733
(dp3734
g593
Nsg600
g824
sg612
(dp3735
S'Kinase'
p3736
g2987
ssbasg614
I00
sbasbsg607
g1006
sg1061
I00
sg1062
g0
(g1063
g2
Ntp3737
Rp3738
(dp3739
g1067
g0
(g1034
g2
Ntp3740
Rp3741
(dp3742
g1038
(lp3743
g0
(g589
g2
Ntp3744
Rp3745
(dp3746
g593
Nsg594
(lp3747
g0
(g596
g2
Ntp3748
Rp3749
(dp3750
g593
Nsg600
g779
sg612
(dp3751
g3727
g886
ssbasg614
I00
sbag0
(g589
g2
Ntp3752
Rp3753
(dp3754
g593
Nsg594
(lp3755
g0
(g596
g2
Ntp3756
Rp3757
(dp3758
g593
Nsg600
g824
sg612
(dp3759
g3736
g886
ssbasg614
I00
sbasbsg1033
g3716
sg1061
I00
sbsg1084
I00
sg609
I00
sg1067
g3741
sg1085
I00
sg1086
Nsbag0
(g1028
g2
Ntp3760
Rp3761
(dp3762
g1032
g943
sg1033
g0
(g1034
g2
Ntp3763
Rp3764
(dp3765
g1038
(lp3766
g0
(g589
g2
Ntp3767
Rp3768
(dp3769
g593
Nsg594
(lp3770
g0
(g596
g2
Ntp3771
Rp3772
(dp3773
g593
Nsg600
g654
sg612
(dp3774
S'Catalytic'
p3775
g886
ssbasg614
I00
sbag0
(g589
g2
Ntp3776
Rp3777
(dp3778
g593
Nsg594
(lp3779
g0
(g596
g2
Ntp3780
Rp3781
(dp3782
g593
Nsg600
g701
sg612
(dp3783
g704
g2987
ssbasg614
I00
sbasbsg607
g997
sg1061
I00
sg1062
g0
(g1063
g2
Ntp3784
Rp3785
(dp3786
g1067
g0
(g1034
g2
Ntp3787
Rp3788
(dp3789
g1038
(lp3790
g0
(g589
g2
Ntp3791
Rp3792
(dp3793
g593
Nsg594
(lp3794
g0
(g596
g2
Ntp3795
Rp3796
(dp3797
g593
Nsg600
g654
sg612
(dp3798
g3775
g886
ssbasg614
I00
sbag0
(g589
g2
Ntp3799
Rp3800
(dp3801
g593
Nsg594
(lp3802
g0
(g596
g2
Ntp3803
Rp3804
(dp3805
g593
Nsg600
g701
sg612
(dp3806
g704
g886
ssbasg614
I00
sbasbsg1033
g3764
sg1061
I00
sbsg1084
I00
sg609
I00
sg1067
g3788
sg1085
I00
sg1086
Nsbag0
(g1028
g2
Ntp3807
Rp3808
(dp3809
g1032
g946
sg1033
g0
(g1034
g2
Ntp3810
Rp3811
(dp3812
g1038
(lp3813
g0
(g589
g2
Ntp3814
Rp3815
(dp3816
g593
Nsg594
(lp3817
g0
(g596
g2
Ntp3818
Rp3819
(dp3820
g593
Nsg600
g824
sg612
(dp3821
S'Kinase'
p3822
g886
ssbasg614
I00
sbag0
(g589
g2
Ntp3823
Rp3824
(dp3825
g593
Nsg594
(lp3826
g0
(g596
g2
Ntp3827
Rp3828
(dp3829
g593
Nsg600
g849
sg612
(dp3830
S'Kinase'
p3831
g2987
ssbasg614
I00
sbasbsg607
g987
sg1061
I00
sg1062
g0
(g1063
g2
Ntp3832
Rp3833
(dp3834
g1067
g0
(g1034
g2
Ntp3835
Rp3836
(dp3837
g1038
(lp3838
g0
(g589
g2
Ntp3839
Rp3840
(dp3841
g593
Nsg594
(lp3842
g0
(g596
g2
Ntp3843
Rp3844
(dp3845
g593
Nsg600
g824
sg612
(dp3846
g3822
g886
ssbasg614
I00
sbag0
(g589
g2
Ntp3847
Rp3848
(dp3849
g593
Nsg594
(lp3850
g0
(g596
g2
Ntp3851
Rp3852
(dp3853
g593
Nsg600
g849
sg612
(dp3854
g3831
g886
ssbasg614
I00
sbasbsg1033
g3811
sg1061
I00
sbsg1084
I00
sg609
I00
sg1067
g3836
sg1085
I00
sg1086
Nsbag0
(g1028
g2
Ntp3855
Rp3856
(dp3857
g1032
g946
sg1033
g0
(g1034
g2
Ntp3858
Rp3859
(dp3860
g1038
(lp3861
g0
(g589
g2
Ntp3862
Rp3863
(dp3864
g593
Nsg594
(lp3865
g0
(g596
g2
Ntp3866
Rp3867
(dp3868
g593
Nsg600
g738
sg612
(dp3869
S'Kinase'
p3870
g886
ssbasg614
I00
sbag0
(g589
g2
Ntp3871
Rp3872
(dp3873
g593
Nsg594
(lp3874
g0
(g596
g2
Ntp3875
Rp3876
(dp3877
g593
Nsg600
g824
sg612
(dp3878
S'Kinase'
p3879
g2987
ssbasg614
I00
sbasbsg607
g970
sg1061
I00
sg1062
g0
(g1063
g2
Ntp3880
Rp3881
(dp3882
g1067
g0
(g1034
g2
Ntp3883
Rp3884
(dp3885
g1038
(lp3886
g0
(g589
g2
Ntp3887
Rp3888
(dp3889
g593
Nsg594
(lp3890
g0
(g596
g2
Ntp3891
Rp3892
(dp3893
g593
Nsg600
g738
sg612
(dp3894
g3870
g886
ssbasg614
I00
sbag0
(g589
g2
Ntp3895
Rp3896
(dp3897
g593
Nsg594
(lp3898
g0
(g596
g2
Ntp3899
Rp3900
(dp3901
g593
Nsg600
g824
sg612
(dp3902
g3879
g886
ssbasg614
I00
sbasbsg1033
g3859
sg1061
I00
sbsg1084
I00
sg609
I00
sg1067
g3884
sg1085
I00
sg1086
Nsbag0
(g1028
g2
Ntp3903
Rp3904
(dp3905
g1032
g943
sg1033
g0
(g1034
g2
Ntp3906
Rp3907
(dp3908
g1038
(lp3909
g0
(g589
g2
Ntp3910
Rp3911
(dp3912
g593
Nsg594
(lp3913
g0
(g596
g2
Ntp3914
Rp3915
(dp3916
g593
Nsg600
g900
sg612
(dp3917
S'Catalytic'
p3918
g886
ssbasg614
I00
sbag0
(g589
g2
Ntp3919
Rp3920
(dp3921
g593
Nsg594
(lp3922
g0
(g596
g2
Ntp3923
Rp3924
(dp3925
g593
Nsg600
g678
sg612
(dp3926
g704
g2987
ssbasg614
I00
sbasbsg607
g963
sg1061
I00
sg1062
g0
(g1063
g2
Ntp3927
Rp3928
(dp3929
g1067
g0
(g1034
g2
Ntp3930
Rp3931
(dp3932
g1038
(lp3933
g0
(g589
g2
Ntp3934
Rp3935
(dp3936
g593
Nsg594
(lp3937
g0
(g596
g2
Ntp3938
Rp3939
(dp3940
g593
Nsg600
g900
sg612
(dp3941
g3918
g886
ssbasg614
I00
sbag0
(g589
g2
Ntp3942
Rp3943
(dp3944
g593
Nsg594
(lp3945
g0
(g596
g2
Ntp3946
Rp3947
(dp3948
g593
Nsg600
g678
sg612
(dp3949
g704
g886
ssbasg614
I00
sbasbsg1033
g3907
sg1061
I00
sbsg1084
I00
sg609
I00
sg1067
g3931
sg1085
I00
sg1086
Nsbag0
(g1028
g2
Ntp3950
Rp3951
(dp3952
g1032
g946
sg1033
g0
(g1034
g2
Ntp3953
Rp3954
(dp3955
g1038
(lp3956
g0
(g589
g2
Ntp3957
Rp3958
(dp3959
g593
Nsg594
(lp3960
g0
(g596
g2
Ntp3961
Rp3962
(dp3963
g593
Nsg600
g678
sg612
(dp3964
S'GtpBound'
p3965
g886
ssbasg614
I00
sbag0
(g589
g2
Ntp3966
Rp3967
(dp3968
g593
Nsg594
(lp3969
g0
(g596
g2
Ntp3970
Rp3971
(dp3972
g593
Nsg600
g761
sg612
(dp3973
g764
g2987
ssbasg614
I00
sbasbsg607
g980
sg1061
I00
sg1062
g0
(g1063
g2
Ntp3974
Rp3975
(dp3976
g1067
g0
(g1034
g2
Ntp3977
Rp3978
(dp3979
g1038
(lp3980
g0
(g589
g2
Ntp3981
Rp3982
(dp3983
g593
Nsg594
(lp3984
g0
(g596
g2
Ntp3985
Rp3986
(dp3987
g593
Nsg600
g678
sg612
(dp3988
g3965
g886
ssbasg614
I00
sbag0
(g589
g2
Ntp3989
Rp3990
(dp3991
g593
Nsg594
(lp3992
g0
(g596
g2
Ntp3993
Rp3994
(dp3995
g593
Nsg600
g761
sg612
(dp3996
g764
g886
ssbasg614
I00
sbasbsg1033
g3954
sg1061
I00
sbsg1084
I00
sg609
I00
sg1067
g3978
sg1085
I00
sg1086
Nsbag0
(g1028
g2
Ntp3997
Rp3998
(dp3999
g1032
g946
sg1033
g0
(g1034
g2
Ntp4000
Rp4001
(dp4002
g1038
(lp4003
g0
(g589
g2
Ntp4004
Rp4005
(dp4006
g593
Nsg594
(lp4007
g0
(g596
g2
Ntp4008
Rp4009
(dp4010
g593
Nsg600
g761
sg612
(dp4011
S'Kinase'
p4012
g886
ssbasg614
I00
sbag0
(g589
g2
Ntp4013
Rp4014
(dp4015
g593
Nsg594
(lp4016
g0
(g596
g2
Ntp4017
Rp4018
(dp4019
g593
Nsg600
g824
sg612
(dp4020
S'Kinase'
p4021
g2987
ssbasg614
I00
sbasbsg607
g1016
sg1061
I00
sg1062
g0
(g1063
g2
Ntp4022
Rp4023
(dp4024
g1067
g0
(g1034
g2
Ntp4025
Rp4026
(dp4027
g1038
(lp4028
g0
(g589
g2
Ntp4029
Rp4030
(dp4031
g593
Nsg594
(lp4032
g0
(g596
g2
Ntp4033
Rp4034
(dp4035
g593
Nsg600
g761
sg612
(dp4036
g4012
g886
ssbasg614
I00
sbag0
(g589
g2
Ntp4037
Rp4038
(dp4039
g593
Nsg594
(lp4040
g0
(g596
g2
Ntp4041
Rp4042
(dp4043
g593
Nsg600
g824
sg612
(dp4044
g4021
g886
ssbasg614
I00
sbasbsg1033
g4001
sg1061
I00
sbsg1084
I00
sg609
I00
sg1067
g4026
sg1085
I00
sg1086
Nsbag0
(g1028
g2
Ntp4045
Rp4046
(dp4047
g1032
g946
sg1033
g0
(g1034
g2
Ntp4048
Rp4049
(dp4050
g1038
(lp4051
g0
(g589
g2
Ntp4052
Rp4053
(dp4054
g593
Nsg594
(lp4055
g0
(g596
g2
Ntp4056
Rp4057
(dp4058
g593
Nsg600
g630
sg612
(dp4059
g633
g886
ssbasg614
I00
sbag0
(g589
g2
Ntp4060
Rp4061
(dp4062
g593
Nsg594
(lp4063
g0
(g596
g2
Ntp4064
Rp4065
(dp4066
g593
Nsg600
g654
sg612
(dp4067
S'Catalytic'
p4068
g2987
ssbasg614
I00
sbasbsg607
g961
sg1061
I00
sg1062
g0
(g1063
g2
Ntp4069
Rp4070
(dp4071
g1067
g0
(g1034
g2
Ntp4072
Rp4073
(dp4074
g1038
(lp4075
g0
(g589
g2
Ntp4076
Rp4077
(dp4078
g593
Nsg594
(lp4079
g0
(g596
g2
Ntp4080
Rp4081
(dp4082
g593
Nsg600
g630
sg612
(dp4083
g633
g886
ssbasg614
I00
sbag0
(g589
g2
Ntp4084
Rp4085
(dp4086
g593
Nsg594
(lp4087
g0
(g596
g2
Ntp4088
Rp4089
(dp4090
g593
Nsg600
g654
sg612
(dp4091
g4068
g886
ssbasg614
I00
sbasbsg1033
g4049
sg1061
I00
sbsg1084
I00
sg609
I00
sg1067
g4073
sg1085
I00
sg1086
Nsbag0
(g1028
g2
Ntp4092
Rp4093
(dp4094
g1032
g946
sg1033
g0
(g1034
g2
Ntp4095
Rp4096
(dp4097
g1038
(lp4098
g0
(g589
g2
Ntp4099
Rp4100
(dp4101
g593
Nsg594
(lp4102
g0
(g596
g2
Ntp4103
Rp4104
(dp4105
g593
Nsg600
g701
sg612
(dp4106
S'GtpBound'
p4107
g886
ssbasg614
I00
sbag0
(g589
g2
Ntp4108
Rp4109
(dp4110
g593
Nsg594
(lp4111
g0
(g596
g2
Ntp4112
Rp4113
(dp4114
g593
Nsg600
g738
sg612
(dp4115
S'Kinase'
p4116
g2987
ssbasg614
I00
sbasbsg607
g1001
sg1061
I00
sg1062
g0
(g1063
g2
Ntp4117
Rp4118
(dp4119
g1067
g0
(g1034
g2
Ntp4120
Rp4121
(dp4122
g1038
(lp4123
g0
(g589
g2
Ntp4124
Rp4125
(dp4126
g593
Nsg594
(lp4127
g0
(g596
g2
Ntp4128
Rp4129
(dp4130
g593
Nsg600
g701
sg612
(dp4131
g4107
g886
ssbasg614
I00
sbag0
(g589
g2
Ntp4132
Rp4133
(dp4134
g593
Nsg594
(lp4135
g0
(g596
g2
Ntp4136
Rp4137
(dp4138
g593
Nsg600
g738
sg612
(dp4139
g4116
g886
ssbasg614
I00
sbasbsg1033
g4096
sg1061
I00
sbsg1084
I00
sg609
I00
sg1067
g4121
sg1085
I00
sg1086
Nsbag0
(g1028
g2
Ntp4140
Rp4141
(dp4142
g1032
g946
sg1033
g0
(g1034
g2
Ntp4143
Rp4144
(dp4145
g1038
(lp4146
g0
(g589
g2
Ntp4147
Rp4148
(dp4149
g593
Nsg594
(lp4150
g0
(g596
g2
Ntp4151
Rp4152
(dp4153
g593
Nsg600
g0
(g601
g2
Ntp4154
Rp4155
(dp4156
g605
(dp4157
S'Kinase'
p4158
(lp4159
g635
ag636
assg607
S'MAP3K3'
p4160
sg609
I00
sg610
(lp4161
g4158
asbsg612
(dp4162
g4158
g886
ssbasg614
I00
sbag0
(g589
g2
Ntp4163
Rp4164
(dp4165
g593
Nsg594
(lp4166
g0
(g596
g2
Ntp4167
Rp4168
(dp4169
g593
Nsg600
g824
sg612
(dp4170
S'Kinase'
p4171
g2987
ssbasg614
I00
sbasbsg607
g984
sg1061
I00
sg1062
g0
(g1063
g2
Ntp4172
Rp4173
(dp4174
g1067
g0
(g1034
g2
Ntp4175
Rp4176
(dp4177
g1038
(lp4178
g0
(g589
g2
Ntp4179
Rp4180
(dp4181
g593
Nsg594
(lp4182
g0
(g596
g2
Ntp4183
Rp4184
(dp4185
g593
Nsg600
g4155
sg612
(dp4186
g4158
g886
ssbasg614
I00
sbag0
(g589
g2
Ntp4187
Rp4188
(dp4189
g593
Nsg594
(lp4190
g0
(g596
g2
Ntp4191
Rp4192
(dp4193
g593
Nsg600
g824
sg612
(dp4194
g4171
g886
ssbasg614
I00
sbasbsg1033
g4144
sg1061
I00
sbsg1084
I00
sg609
I00
sg1067
g4176
sg1085
I00
sg1086
Nsbag0
(g1028
g2
Ntp4195
Rp4196
(dp4197
g1032
g940
sg1033
g0
(g1034
g2
Ntp4198
Rp4199
(dp4200
g1038
(lp4201
g0
(g589
g2
Ntp4202
Rp4203
(dp4204
g593
Nsg594
(lp4205
g0
(g596
g2
Ntp4206
Rp4207
(dp4208
g593
Nsg600
g0
(g601
g2
Ntp4209
Rp4210
(dp4211
g605
(dp4212
S'Catalytic'
p4213
(lp4214
g880
ag881
assg607
S'RASAL1'
p4215
sg609
I00
sg610
(lp4216
g4213
asbsg612
(dp4217
g4213
g886
ssbasg614
I00
sbag0
(g589
g2
Ntp4218
Rp4219
(dp4220
g593
Nsg594
(lp4221
g0
(g596
g2
Ntp4222
Rp4223
(dp4224
g593
Nsg600
g701
sg612
(dp4225
g704
g886
ssbasg614
I00
sbasbsg607
g986
sg1061
I00
sg1062
g0
(g1063
g2
Ntp4226
Rp4227
(dp4228
g1067
g0
(g1034
g2
Ntp4229
Rp4230
(dp4231
g1038
(lp4232
g0
(g589
g2
Ntp4233
Rp4234
(dp4235
g593
Nsg594
(lp4236
g0
(g596
g2
Ntp4237
Rp4238
(dp4239
g593
Nsg600
g4210
sg612
(dp4240
g4213
g886
ssbasg614
I00
sbag0
(g589
g2
Ntp4241
Rp4242
(dp4243
g593
Nsg594
(lp4244
g0
(g596
g2
Ntp4245
Rp4246
(dp4247
g593
Nsg600
g701
sg612
(dp4248
g704
g2987
ssbasg614
I00
sbasbsg1033
g4199
sg1061
I00
sbsg1084
I00
sg609
I00
sg1067
g4230
sg1085
I00
sg1086
Nsbag0
(g1028
g2
Ntp4249
Rp4250
(dp4251
g1032
g946
sg1033
g0
(g1034
g2
Ntp4252
Rp4253
(dp4254
g1038
(lp4255
g0
(g589
g2
Ntp4256
Rp4257
(dp4258
g593
Nsg594
(lp4259
g0
(g596
g2
Ntp4260
Rp4261
(dp4262
g593
Nsg600
g701
sg612
(dp4263
S'GtpBound'
p4264
g886
ssbasg614
I00
sbag0
(g589
g2
Ntp4265
Rp4266
(dp4267
g593
Nsg594
(lp4268
g0
(g596
g2
Ntp4269
Rp4270
(dp4271
g593
Nsg600
g761
sg612
(dp4272
S'Kinase'
p4273
g2987
ssbasg614
I00
sbasbsg607
g1023
sg1061
I00
sg1062
g0
(g1063
g2
Ntp4274
Rp4275
(dp4276
g1067
g0
(g1034
g2
Ntp4277
Rp4278
(dp4279
g1038
(lp4280
g0
(g589
g2
Ntp4281
Rp4282
(dp4283
g593
Nsg594
(lp4284
g0
(g596
g2
Ntp4285
Rp4286
(dp4287
g593
Nsg600
g701
sg612
(dp4288
g4264
g886
ssbasg614
I00
sbag0
(g589
g2
Ntp4289
Rp4290
(dp4291
g593
Nsg594
(lp4292
g0
(g596
g2
Ntp4293
Rp4294
(dp4295
g593
Nsg600
g761
sg612
(dp4296
g4273
g886
ssbasg614
I00
sbasbsg1033
g4253
sg1061
I00
sbsg1084
I00
sg609
I00
sg1067
g4278
sg1085
I00
sg1086
Nsbag0
(g1028
g2
Ntp4297
Rp4298
(dp4299
g1032
g946
sg1033
g0
(g1034
g2
Ntp4300
Rp4301
(dp4302
g1038
(lp4303
g0
(g589
g2
Ntp4304
Rp4305
(dp4306
g593
Nsg594
(lp4307
g0
(g596
g2
Ntp4308
Rp4309
(dp4310
g593
Nsg600
g720
sg612
(dp4311
S'GtpBound'
p4312
g886
ssbasg614
I00
sbag0
(g589
g2
Ntp4313
Rp4314
(dp4315
g593
Nsg594
(lp4316
g0
(g596
g2
Ntp4317
Rp4318
(dp4319
g593
Nsg600
g761
sg612
(dp4320
S'Kinase'
p4321
g2987
ssbasg614
I00
sbasbsg607
g1026
sg1061
I00
sg1062
g0
(g1063
g2
Ntp4322
Rp4323
(dp4324
g1067
g0
(g1034
g2
Ntp4325
Rp4326
(dp4327
g1038
(lp4328
g0
(g589
g2
Ntp4329
Rp4330
(dp4331
g593
Nsg594
(lp4332
g0
(g596
g2
Ntp4333
Rp4334
(dp4335
g593
Nsg600
g720
sg612
(dp4336
g4312
g886
ssbasg614
I00
sbag0
(g589
g2
Ntp4337
Rp4338
(dp4339
g593
Nsg594
(lp4340
g0
(g596
g2
Ntp4341
Rp4342
(dp4343
g593
Nsg600
g761
sg612
(dp4344
g4321
g886
ssbasg614
I00
sbasbsg1033
g4301
sg1061
I00
sbsg1084
I00
sg609
I00
sg1067
g4326
sg1085
I00
sg1086
Nsbag0
(g1028
g2
Ntp4345
Rp4346
(dp4347
g1032
g946
sg1033
g0
(g1034
g2
Ntp4348
Rp4349
(dp4350
g1038
(lp4351
g0
(g589
g2
Ntp4352
Rp4353
(dp4354
g593
Nsg594
(lp4355
g0
(g596
g2
Ntp4356
Rp4357
(dp4358
g593
Nsg600
g603
sg612
(dp4359
sbasg614
I00
sbag0
(g589
g2
Ntp4360
Rp4361
(dp4362
g593
Nsg594
(lp4363
g0
(g596
g2
Ntp4364
Rp4365
(dp4366
g593
Nsg600
g630
sg612
(dp4367
g792
g2987
ssbasg614
I00
sbasbsg607
g1011
sg1061
I00
sg1062
g0
(g1063
g2
Ntp4368
Rp4369
(dp4370
g1067
g0
(g1034
g2
Ntp4371
Rp4372
(dp4373
g1038
(lp4374
g0
(g589
g2
Ntp4375
Rp4376
(dp4377
g593
Nsg594
(lp4378
g0
(g596
g2
Ntp4379
Rp4380
(dp4381
g593
Nsg600
g603
sg612
(dp4382
sbasg614
I00
sbag0
(g589
g2
Ntp4383
Rp4384
(dp4385
g593
Nsg594
(lp4386
g0
(g596
g2
Ntp4387
Rp4388
(dp4389
g593
Nsg600
g630
sg612
(dp4390
g792
g886
ssbasg614
I00
sbasbsg1033
g4349
sg1061
I00
sbsg1084
I00
sg609
I00
sg1067
g4372
sg1085
I00
sg1086
Nsbasg954
(dp4391
g961
g4046
sg962
g1130
sg963
g3904
sg964
g1493
sg965
g2396
sg966
g2865
sg967
g1998
sg968
g3470
sg969
g3112
sg970
g3856
sg971
g2444
sg972
g3314
sg973
g2354
sg974
g3611
sg975
g3517
sg976
g3260
sg977
g2595
sg978
g1411
sg979
g1841
sg980
g3951
sg981
g1292
sg982
g2757
sg983
g3066
sg984
g4141
sg985
g1030
sg986
g4196
sg987
g3808
sg988
g1896
sg989
g3369
sg990
g3035
sg991
g2491
sg992
g1238
sg993
g2811
sg994
g2192
sg995
g2972
sg996
g1088
sg997
g3761
sg998
g1780
sg999
g2919
sg1000
g3659
sg1001
g4093
sg1002
g2053
sg1003
g2300
sg1004
g2649
sg1005
g1602
sg1006
g3713
sg1007
g2144
sg1008
g1346
sg1009
g2703
sg1010
g3213
sg1011
g4346
sg1012
g1726
sg1013
g2097
sg1014
g2539
sg1015
g3423
sg1016
g3998
sg1017
g1650
sg1018
g1558
sg1019
g2246
sg1020
g3563
sg1021
g1184
sg1022
g3004
sg1023
g4250
sg1024
g3158
sg1025
g1944
sg1026
g4298
ssbsS'odes'
p4392
(lp4393
csympy.core.numbers
Zero
p4394
(tRp4395
(dp4396
bag14
(csympy.core.numbers
NegativeOne
p4397
(tRp4398
(dp4399
bg73
g80
g87
tp4400
Rp4401
(dp4402
bag14
(g4398
g73
g178
g185
tp4403
Rp4404
(dp4405
bacsympy.core.add
Add
p4406
(g14
(g4398
g52
g248
g29
tp4407
Rp4408
(dp4409
bg240
g14
(g4398
g52
g59
g29
tp4410
Rp4411
(dp4412
bg14
(g4398
g18
g29
g36
tp4413
Rp4414
(dp4415
bg121
g14
(g4398
g18
g199
g29
tp4416
Rp4417
(dp4418
btp4419
Rp4420
(dp4421
bag4406
(g14
(g4398
g52
g248
g325
tp4422
Rp4423
(dp4424
bg472
tp4425
Rp4426
(dp4427
bag4406
(g437
g14
(g4398
g52
g248
g255
tp4428
Rp4429
(dp4430
btp4431
Rp4432
(dp4433
bag4406
(g14
(g4398
g73
g431
g143
tp4434
Rp4435
(dp4436
bg14
(g4398
g73
g466
g143
tp4437
Rp4438
(dp4439
bg14
(g4398
g73
g220
g143
tp4440
Rp4441
(dp4442
bg14
(g4398
g73
g101
g143
tp4443
Rp4444
(dp4445
bg14
(g4398
g73
g410
g143
tp4446
Rp4447
(dp4448
btp4449
Rp4450
(dp4451
bag4406
(g226
g14
(g4398
g73
g466
g36
tp4452
Rp4453
(dp4454
bg14
(g4398
g18
g101
g36
tp4455
Rp4456
(dp4457
bg14
(g4398
g18
g29
g36
tp4458
Rp4459
(dp4460
bg121
g14
(g4398
g73
g410
g36
tp4461
Rp4462
(dp4463
bg14
(g4398
g73
g101
g36
tp4464
Rp4465
(dp4466
bg14
(g4398
g73
g220
g36
tp4467
Rp4468
(dp4469
bg14
(g4398
g73
g431
g36
tp4470
Rp4471
(dp4472
btp4473
Rp4474
(dp4475
bag4406
(g14
(g4398
g73
g410
g129
tp4476
Rp4477
(dp4478
bg14
(g4398
g73
g431
g129
tp4479
Rp4480
(dp4481
bg14
(g4398
g73
g220
g129
tp4482
Rp4483
(dp4484
bg14
(g4398
g73
g101
g129
tp4485
Rp4486
(dp4487
btp4488
Rp4489
(dp4490
bag4406
(g14
(g4398
g73
g410
g311
tp4491
Rp4492
(dp4493
bg14
(g4398
g73
g304
g311
tp4494
Rp4495
(dp4496
bg14
(g4398
g73
g339
g311
tp4497
Rp4498
(dp4499
bg14
(g4398
g73
g199
g311
tp4500
Rp4501
(dp4502
bg14
(g4398
g73
g234
g311
tp4503
Rp4504
(dp4505
btp4506
Rp4507
(dp4508
bag14
(g4398
g73
g494
g501
tp4509
Rp4510
(dp4511
bag4395
ag4395
ag4406
(g14
(g4398
g73
g115
g466
tp4512
Rp4513
(dp4514
bg14
(g4398
g52
g115
g248
tp4515
Rp4516
(dp4517
bg14
(g4398
g52
g59
g115
tp4518
Rp4519
(dp4520
bg14
(g4398
g73
g115
g220
tp4521
Rp4522
(dp4523
bg14
(g4398
g73
g115
g101
tp4524
Rp4525
(dp4526
bg42
g14
(g4398
g73
g115
g410
tp4527
Rp4528
(dp4529
bg14
(g4398
g18
g115
tp4530
Rp4531
(dp4532
bg14
(g4398
g73
g115
g431
tp4533
Rp4534
(dp4535
btp4536
Rp4537
(dp4538
bag4406
(g226
g14
(g4398
g18
g101
g36
tp4539
Rp4540
(dp4541
bg416
g65
g275
g14
(g4398
g18
g101
g199
tp4542
Rp4543
(dp4544
btp4545
Rp4546
(dp4547
bag93
ag4406
(g14
(g4398
g73
g220
g431
tp4548
Rp4549
(dp4550
bg14
(g4398
g73
g220
g410
tp4551
Rp4552
(dp4553
bg14
(g4398
g18
g220
tp4554
Rp4555
(dp4556
bg14
(g4398
g73
g385
tp4557
Rp4558
(dp4559
bg14
(g4398
g73
g101
g220
tp4560
Rp4561
(dp4562
bg107
g282
g14
(g4398
g73
g220
g466
tp4563
Rp4564
(dp4565
bg156
tp4566
Rp4567
(dp4568
bag4406
(g444
g486
g135
g268
tp4569
Rp4570
(dp4571
bag4406
(g542
g451
g479
g149
g296
tp4572
Rp4573
(dp4574
bag4406
(g163
g240
g549
g366
g416
g514
g14
(g4398
g18
g199
g29
tp4575
Rp4576
(dp4577
bg14
(g4398
g18
g101
g199
tp4578
Rp4579
(dp4580
bg570
tp4581
Rp4582
(dp4583
bag4406
(g205
g556
g14
(g4398
g18
g234
tp4584
Rp4585
(dp4586
bg14
(g4398
g52
g59
g234
tp4587
Rp4588
(dp4589
bg373
g521
g14
(g4398
g52
g234
g248
tp4590
Rp4591
(dp4592
bg577
g170
tp4593
Rp4594
(dp4595
bag191
ag4406
(g388
g212
g289
g359
g14
(g4398
g18
g410
tp4596
Rp4597
(dp4598
bg584
g14
(g73
g220
g410
tp4599
Rp4600
(dp4601
bg352
g563
tp4602
Rp4603
(dp4604
bag4406
(g14
(g4398
g424
g59
g431
tp4605
Rp4606
(dp4607
bg261
tp4608
Rp4609
(dp4610
bag4406
(g535
g402
g317
g345
g395
tp4611
Rp4612
(dp4613
bag4406
(g14
(g4398
g424
g459
g466
tp4614
Rp4615
(dp4616
bg331
tp4617
Rp4618
(dp4619
bag507
asg609
I01
sS'compartments'
p4620
g0
(g910
g2
Ntp4621
Rp4622
(dp4623
g914
(dp4624
sg925
(lp4625
sg954
(dp4626
sbsS'monomers'
p4627
g0
(g910
g2
Ntp4628
Rp4629
(dp4630
g914
(dp4631
g1257
I9
sg2265
I39
sg3333
I59
sg1874
I43
sg2018
I35
sg708
I61
sg683
I3
sg637
I44
sg1201
I6
sg1309
I10
sg2263
I38
sg3177
I57
sg832
I34
sg809
I20
sg2775
I51
sg2015
I31
sg4215
I66
sg1858
I26
sg807
I16
sg800
I1
sg608
I67
sg3388
I60
sg2559
I47
sg2319
I41
sg813
I28
sg1255
I8
sg1149
I5
sg812
I25
sg2613
I48
sg808
I19
sg768
I18
sg806
I15
sg811
I22
sg2721
I50
sg804
I13
sg2936
I54
sg726
I56
sg685
I2
sg1203
I7
sg2829
I52
sg1963
I30
sg834
I33
sg1311
I11
sg3279
I58
sg767
I17
sg2317
I40
sg803
I12
sg2883
I53
sg3678
I64
sg1743
I23
sg2209
I36
sg882
I63
sg905
I55
sg2667
I49
sg661
I42
sg2017
I32
sg1745
I24
sg639
I45
sg1961
I29
sg2211
I37
sg1860
I27
sg810
I21
sg4160
I65
sg1147
I4
sg745
I62
sg686
I46
sg802
I0
sg805
I14
ssg925
(lp4632
g1048
ag779
ag761
ag678
ag1144
ag1159
ag1198
ag1213
ag1252
ag1267
ag1306
ag1321
ag1360
ag1382
ag1425
ag1439
ag1460
ag1507
ag1521
ag1624
ag1664
ag1677
ag849
ag1740
ag1755
ag1812
ag1855
ag1870
ag1918
ag1958
ag1973
ag2012
ag2028
ag2111
ag824
ag2158
ag2206
ag2221
ag2260
ag2275
ag2314
ag2329
ag654
ag2418
ag630
ag2466
ag2513
ag2553
ag2609
ag2663
ag2717
ag2771
ag2825
ag2879
ag2933
ag900
ag720
ag3172
ag3274
ag3328
ag3383
ag701
ag738
ag875
ag3673
ag4155
ag4210
ag603
asg954
(dp4633
g1257
g1267
sg2265
g2275
sg3333
g3328
sg1874
g2418
sg2018
g2158
sg708
g701
sg683
g678
sg637
g630
sg1201
g1198
sg1309
g1306
sg2263
g2260
sg3177
g3172
sg832
g824
sg809
g1664
sg2775
g2771
sg2015
g2012
sg4215
g4210
sg1858
g1855
sg807
g1460
sg800
g779
sg608
g603
sg3388
g3383
sg2559
g2553
sg2319
g2329
sg813
g1918
sg1255
g1252
sg1149
g1159
sg812
g1812
sg2613
g2609
sg808
g1624
sg768
g1521
sg806
g1439
sg811
g849
sg2721
g2717
sg804
g1382
sg2936
g2933
sg726
g720
sg685
g761
sg1203
g1213
sg2829
g2825
sg1963
g1973
sg834
g2111
sg1311
g1321
sg3279
g3274
sg767
g1507
sg2317
g2314
sg803
g1360
sg2883
g2879
sg3678
g3673
sg1743
g1740
sg2209
g2206
sg882
g875
sg905
g900
sg2667
g2663
sg661
g654
sg2017
g2028
sg1745
g1755
sg639
g2466
sg1961
g1958
sg2211
g2221
sg1860
g1870
sg810
g1677
sg4160
g4155
sg1147
g1144
sg745
g738
sg686
g2513
sg802
g1048
sg805
g1425
ssbsS'base'
p4634
NsS'annotations'
p4635
(lp4636
sS'reactions_bidirectional'
p4637
(lp4638
(dp4639
g9
g10
sg44
g45
sg13
g4406
(g42
g14
(g4398
g18
g115
tp4640
Rp4641
(dp4642
btp4643
Rp4644
(dp4645
bsS'reversible'
p4646
I01
sg11
g12
sa(dp4647
g9
g48
sg44
g67
sg13
g65
sg4646
I00
sg11
g49
sa(dp4648
g9
g69
sg44
g95
sg13
g93
sg4646
I00
sg11
g70
sa(dp4649
g9
g97
sg44
g109
sg13
g4406
(g14
(g4398
g18
g220
tp4650
Rp4651
(dp4652
bg107
tp4653
Rp4654
(dp4655
bsg4646
I01
sg11
g98
sa(dp4656
g9
g125
sg44
g137
sg13
g135
sg4646
I00
sg11
g126
sa(dp4657
g9
g139
sg44
g151
sg13
g149
sg4646
I00
sg11
g140
sa(dp4658
g9
g153
sg44
g158
sg13
g156
sg4646
I00
sg11
g154
sa(dp4659
g9
g160
sg44
g165
sg13
g163
sg4646
I00
sg11
g161
sa(dp4660
g9
g167
sg44
g172
sg13
g170
sg4646
I00
sg11
g168
sa(dp4661
g9
g174
sg44
g193
sg13
g191
sg4646
I00
sg11
g175
sa(dp4662
g9
g195
sg44
g207
sg13
g4406
(g205
g14
(g4398
g18
g234
tp4663
Rp4664
(dp4665
btp4666
Rp4667
(dp4668
bsg4646
I01
sg11
g196
sa(dp4669
g9
g209
sg44
g214
sg13
g4406
(g212
g14
(g4398
g18
g410
tp4670
Rp4671
(dp4672
btp4673
Rp4674
(dp4675
bsg4646
I01
sg11
g210
sa(dp4676
g9
g244
sg44
g263
sg13
g261
sg4646
I00
sg11
g245
sa(dp4677
g9
g265
sg44
g270
sg13
g268
sg4646
I00
sg11
g266
sa(dp4678
g9
g272
sg44
g277
sg13
g275
sg4646
I00
sg11
g273
sa(dp4679
g9
g279
sg44
g284
sg13
g282
sg4646
I00
sg11
g280
sa(dp4680
g9
g286
sg44
g291
sg13
g289
sg4646
I00
sg11
g287
sa(dp4681
g9
g293
sg44
g298
sg13
g296
sg4646
I00
sg11
g294
sa(dp4682
g9
g300
sg44
g319
sg13
g317
sg4646
I00
sg11
g301
sa(dp4683
g9
g321
sg44
g333
sg13
g331
sg4646
I00
sg11
g322
sa(dp4684
g9
g335
sg44
g347
sg13
g345
sg4646
I00
sg11
g336
sa(dp4685
g9
g349
sg44
g354
sg13
g352
sg4646
I00
sg11
g350
sa(dp4686
g9
g356
sg44
g361
sg13
g359
sg4646
I00
sg11
g357
sa(dp4687
g9
g363
sg44
g368
sg13
g366
sg4646
I00
sg11
g364
sa(dp4688
g9
g370
sg44
g375
sg13
g373
sg4646
I00
sg11
g371
sa(dp4689
g9
g377
sg44
g390
sg13
g388
sg4646
I00
sg11
g378
sa(dp4690
g9
g392
sg44
g397
sg13
g395
sg4646
I00
sg11
g393
sa(dp4691
g9
g399
sg44
g404
sg13
g402
sg4646
I00
sg11
g400
sa(dp4692
g9
g420
sg44
g439
sg13
g437
sg4646
I00
sg11
g421
sa(dp4693
g9
g441
sg44
g446
sg13
g444
sg4646
I00
sg11
g442
sa(dp4694
g9
g448
sg44
g453
sg13
g451
sg4646
I00
sg11
g449
sa(dp4695
g9
g455
sg44
g474
sg13
g472
sg4646
I00
sg11
g456
sa(dp4696
g9
g476
sg44
g481
sg13
g479
sg4646
I00
sg11
g477
sa(dp4697
g9
g483
sg44
g488
sg13
g486
sg4646
I00
sg11
g484
sa(dp4698
g9
g490
sg44
g509
sg13
g507
sg4646
I00
sg11
g491
sa(dp4699
g9
g511
sg44
g516
sg13
g514
sg4646
I00
sg11
g512
sa(dp4700
g9
g518
sg44
g523
sg13
g521
sg4646
I00
sg11
g519
sa(dp4701
g9
g525
sg44
g530
sg13
g528
sg4646
I00
sg11
g526
sa(dp4702
g9
g532
sg44
g537
sg13
g535
sg4646
I00
sg11
g533
sa(dp4703
g9
g539
sg44
g544
sg13
g542
sg4646
I00
sg11
g540
sa(dp4704
g9
g546
sg44
g551
sg13
g549
sg4646
I00
sg11
g547
sa(dp4705
g9
g553
sg44
g558
sg13
g556
sg4646
I00
sg11
g554
sa(dp4706
g9
g560
sg44
g565
sg13
g563
sg4646
I00
sg11
g561
sa(dp4707
g9
g567
sg44
g572
sg13
g570
sg4646
I00
sg11
g568
sa(dp4708
g9
g574
sg44
g579
sg13
g577
sg4646
I00
sg11
g575
sa(dp4709
g9
g581
sg44
g586
sg13
g584
sg4646
I00
sg11
g582
sasS'observables'
p4710
g0
(g910
g2
Ntp4711
Rp4712
(dp4713
g914
(dp4714
S'MEKact'
p4715
I1
sS'ERKact'
p4716
I0
ssg925
(lp4717
cpysb.core
Observable
p4718
(g4716
g0
(g1034
g2
Ntp4719
Rp4720
(dp4721
g1038
(lp4722
g0
(g589
g2
Ntp4723
Rp4724
(dp4725
g593
Nsg594
(lp4726
g0
(g596
g2
Ntp4727
Rp4728
(dp4729
g593
Nsg600
g849
sg612
(dp4730
g792
g886
ssbasg614
I00
sbasbS'molecules'
p4731
I00
tp4732
Rp4733
(dp4734
S'coefficients'
p4735
(lp4736
I1
asS'reaction_pattern'
p4737
g4720
sS'match'
p4738
g4731
sg609
I00
sS'species'
p4739
(lp4740
I26
asbag4718
(g4715
g0
(g1034
g2
Ntp4741
Rp4742
(dp4743
g1038
(lp4744
g0
(g589
g2
Ntp4745
Rp4746
(dp4747
g593
Nsg594
(lp4748
g0
(g596
g2
Ntp4749
Rp4750
(dp4751
g593
Nsg600
g824
sg612
(dp4752
g792
g886
ssbasg614
I00
sbasbg4731
I00
tp4753
Rp4754
(dp4755
g4735
(lp4756
I1
asg4737
g4742
sg4738
g4731
sg609
I00
sg4739
(lp4757
I24
asbasg954
(dp4758
g4715
g4754
sg4716
g4733
ssbsS'expressions'
p4759
g0
(g910
g2
Ntp4760
Rp4761
(dp4762
g914
(dp4763
sg925
(lp4764
sg954
(dp4765
sbsg4739
(lp4766
g0
(g589
g2
Ntp4767
Rp4768
(dp4769
g593
Nsg594
(lp4770
g0
(g596
g2
Ntp4771
Rp4772
(dp4773
g593
Nsg600
g603
sg612
(dp4774
sbasg614
I00
sbag0
(g589
g2
Ntp4775
Rp4776
(dp4777
g593
Nsg594
(lp4778
g0
(g596
g2
Ntp4779
Rp4780
(dp4781
g593
Nsg600
g630
sg612
(dp4782
S'ERBB2'
p4783
NsS'Kinase'
p4784
S'inactive'
p4785
ssbasg614
I00
sbag0
(g589
g2
Ntp4786
Rp4787
(dp4788
g593
Nsg594
(lp4789
g0
(g596
g2
Ntp4790
Rp4791
(dp4792
g593
Nsg600
g654
sg612
(dp4793
S'GRB2'
p4794
NsS'Catalytic'
p4795
S'inactive'
p4796
ssbasg614
I00
sbag0
(g589
g2
Ntp4797
Rp4798
(dp4799
g593
Nsg594
(lp4800
g0
(g596
g2
Ntp4801
Rp4802
(dp4803
g593
Nsg600
g678
sg612
(dp4804
S'BRAF'
p4805
NsS'GtpBound'
p4806
S'inactive'
p4807
sS'BCL2'
p4808
Nssbasg614
I00
sbag0
(g589
g2
Ntp4809
Rp4810
(dp4811
g593
Nsg594
(lp4812
g0
(g596
g2
Ntp4813
Rp4814
(dp4815
g593
Nsg600
g701
sg612
(dp4816
S'GtpBound'
p4817
S'inactive'
p4818
ssbasg614
I00
sbag0
(g589
g2
Ntp4819
Rp4820
(dp4821
g593
Nsg594
(lp4822
g0
(g596
g2
Ntp4823
Rp4824
(dp4825
g593
Nsg600
g720
sg612
(dp4826
S'GtpBound'
p4827
S'inactive'
p4828
ssbasg614
I00
sbag0
(g589
g2
Ntp4829
Rp4830
(dp4831
g593
Nsg594
(lp4832
g0
(g596
g2
Ntp4833
Rp4834
(dp4835
g593
Nsg600
g738
sg612
(dp4836
S'Kinase'
p4837
S'inactive'
p4838
ssbasg614
I00
sbag0
(g589
g2
Ntp4839
Rp4840
(dp4841
g593
Nsg594
(lp4842
g0
(g596
g2
Ntp4843
Rp4844
(dp4845
g593
Nsg600
g761
sg612
(dp4846
S'HRAS'
p4847
NsS'PRKCE'
p4848
NsS'Kinase'
p4849
S'inactive'
p4850
sS'RPS6KB2'
p4851
Nssbasg614
I00
sbag0
(g589
g2
Ntp4852
Rp4853
(dp4854
g593
Nsg594
(lp4855
g0
(g596
g2
Ntp4856
Rp4857
(dp4858
g593
Nsg600
g779
sg612
(dp4859
S'Y340'
p4860
g784
sS'PEBP1'
p4861
NsS'YWHAQ'
p4862
NsS'PRKCZ'
p4863
NsS'S259'
p4864
g784
sS'S499'
p4865
g784
sS'Kinase'
p4866
S'inactive'
p4867
sS'RB1'
p4868
NsS'CFLAR'
p4869
NsS'MAPK1'
p4870
NsS'ARRB2'
p4871
NsS'P3579'
p4872
NsS'S43'
p4873
g784
sS'YWHAB'
p4874
NsS'Y341'
p4875
g784
sS'S339'
p4876
g784
sS'KRT8'
p4877
NsS'PAK2'
p4878
NsS'KRT18'
p4879
Nssbasg614
I00
sbag0
(g589
g2
Ntp4880
Rp4881
(dp4882
g593
Nsg594
(lp4883
g0
(g596
g2
Ntp4884
Rp4885
(dp4886
g593
Nsg600
g824
sg612
(dp4887
S'S'
p4888
g784
sS'T25'
p4889
g784
sS'GIT1'
p4890
NsS'Kinase'
p4891
S'inactive'
p4892
ssbasg614
I00
sbag0
(g589
g2
Ntp4893
Rp4894
(dp4895
g593
Nsg594
(lp4896
g0
(g596
g2
Ntp4897
Rp4898
(dp4899
g593
Nsg600
g849
sg612
(dp4900
S'T185'
p4901
g784
sS'Kinase'
p4902
S'inactive'
p4903
sS'Y187'
p4904
g784
sS'ARRB2'
p4905
NsS'P3579'
p4906
NsS'Y'
p4907
g784
sS'RAF1'
p4908
Nssbasg614
I00
sbag0
(g589
g2
Ntp4909
Rp4910
(dp4911
g593
Nsg594
(lp4912
g0
(g596
g2
Ntp4913
Rp4914
(dp4915
g593
Nsg600
g875
sg612
(dp4916
S'Catalytic'
p4917
S'active'
p4918
ssbasg614
I00
sbag0
(g589
g2
Ntp4919
Rp4920
(dp4921
g593
Nsg594
(lp4922
g0
(g596
g2
Ntp4923
Rp4924
(dp4925
g593
Nsg600
g900
sg612
(dp4926
S'Catalytic'
p4927
S'active'
p4928
ssbasg614
I00
sbag0
(g589
g2
Ntp4929
Rp4930
(dp4931
g593
Nsg594
(lp4932
g0
(g596
g2
Ntp4933
Rp4934
(dp4935
g593
Nsg600
g761
sg612
(dp4936
S'HRAS'
p4937
I1
sS'PRKCE'
p4938
NsS'Kinase'
p4939
S'inactive'
p4940
sS'RPS6KB2'
p4941
Nssbag0
(g596
g2
Ntp4942
Rp4943
(dp4944
g593
Nsg600
g678
sg612
(dp4945
S'BRAF'
p4946
I1
sS'GtpBound'
p4947
S'inactive'
p4948
sS'BCL2'
p4949
Nssbasg614
I00
sbag0
(g589
g2
Ntp4950
Rp4951
(dp4952
g593
Nsg594
(lp4953
g0
(g596
g2
Ntp4954
Rp4955
(dp4956
g593
Nsg600
g678
sg612
(dp4957
S'BRAF'
p4958
NsS'GtpBound'
p4959
S'active'
p4960
sS'BCL2'
p4961
Nssbasg614
I00
sbag0
(g589
g2
Ntp4962
Rp4963
(dp4964
g593
Nsg594
(lp4965
g0
(g596
g2
Ntp4966
Rp4967
(dp4968
g593
Nsg600
g630
sg612
(dp4969
S'ERBB2'
p4970
NsS'Kinase'
p4971
S'active'
p4972
ssbasg614
I00
sbag0
(g589
g2
Ntp4973
Rp4974
(dp4975
g593
Nsg594
(lp4976
g0
(g596
g2
Ntp4977
Rp4978
(dp4979
g593
Nsg600
g761
sg612
(dp4980
S'HRAS'
p4981
I1
sS'PRKCE'
p4982
NsS'Kinase'
p4983
S'inactive'
p4984
sS'RPS6KB2'
p4985
Nssbag0
(g596
g2
Ntp4986
Rp4987
(dp4988
g593
Nsg600
g678
sg612
(dp4989
S'BRAF'
p4990
I1
sS'GtpBound'
p4991
S'active'
p4992
sS'BCL2'
p4993
Nssbasg614
I00
sbag0
(g589
g2
Ntp4994
Rp4995
(dp4996
g593
Nsg594
(lp4997
g0
(g596
g2
Ntp4998
Rp4999
(dp5000
g593
Nsg600
g779
sg612
(dp5001
S'Y340'
p5002
g784
sS'PEBP1'
p5003
NsS'YWHAQ'
p5004
NsS'PRKCZ'
p5005
NsS'S259'
p5006
g784
sS'S499'
p5007
g784
sS'Kinase'
p5008
S'active'
p5009
sS'RB1'
p5010
NsS'CFLAR'
p5011
NsS'MAPK1'
p5012
NsS'ARRB2'
p5013
NsS'P3579'
p5014
NsS'S43'
p5015
g784
sS'YWHAB'
p5016
NsS'Y341'
p5017
g784
sS'S339'
p5018
g784
sS'KRT8'
p5019
NsS'PAK2'
p5020
NsS'KRT18'
p5021
Nssbasg614
I00
sbag0
(g589
g2
Ntp5022
Rp5023
(dp5024
g593
Nsg594
(lp5025
g0
(g596
g2
Ntp5026
Rp5027
(dp5028
g593
Nsg600
g738
sg612
(dp5029
S'Kinase'
p5030
S'active'
p5031
ssbasg614
I00
sbag0
(g589
g2
Ntp5032
Rp5033
(dp5034
g593
Nsg594
(lp5035
g0
(g596
g2
Ntp5036
Rp5037
(dp5038
g593
Nsg600
g761
sg612
(dp5039
S'HRAS'
p5040
NsS'PRKCE'
p5041
NsS'Kinase'
p5042
S'active'
p5043
sS'RPS6KB2'
p5044
Nssbasg614
I00
sbag0
(g589
g2
Ntp5045
Rp5046
(dp5047
g593
Nsg594
(lp5048
g0
(g596
g2
Ntp5049
Rp5050
(dp5051
g593
Nsg600
g761
sg612
(dp5052
S'HRAS'
p5053
I1
sS'PRKCE'
p5054
NsS'Kinase'
p5055
S'active'
p5056
sS'RPS6KB2'
p5057
Nssbag0
(g596
g2
Ntp5058
Rp5059
(dp5060
g593
Nsg600
g678
sg612
(dp5061
S'BRAF'
p5062
I1
sS'GtpBound'
p5063
S'inactive'
p5064
sS'BCL2'
p5065
Nssbasg614
I00
sbag0
(g589
g2
Ntp5066
Rp5067
(dp5068
g593
Nsg594
(lp5069
g0
(g596
g2
Ntp5070
Rp5071
(dp5072
g593
Nsg600
g654
sg612
(dp5073
S'GRB2'
p5074
NsS'Catalytic'
p5075
S'active'
p5076
ssbasg614
I00
sbag0
(g589
g2
Ntp5077
Rp5078
(dp5079
g593
Nsg594
(lp5080
g0
(g596
g2
Ntp5081
Rp5082
(dp5083
g593
Nsg600
g761
sg612
(dp5084
S'HRAS'
p5085
I1
sS'PRKCE'
p5086
NsS'Kinase'
p5087
S'active'
p5088
sS'RPS6KB2'
p5089
Nssbag0
(g596
g2
Ntp5090
Rp5091
(dp5092
g593
Nsg600
g678
sg612
(dp5093
S'BRAF'
p5094
I1
sS'GtpBound'
p5095
S'active'
p5096
sS'BCL2'
p5097
Nssbasg614
I00
sbag0
(g589
g2
Ntp5098
Rp5099
(dp5100
g593
Nsg594
(lp5101
g0
(g596
g2
Ntp5102
Rp5103
(dp5104
g593
Nsg600
g720
sg612
(dp5105
S'GtpBound'
p5106
S'active'
p5107
ssbasg614
I00
sbag0
(g589
g2
Ntp5108
Rp5109
(dp5110
g593
Nsg594
(lp5111
g0
(g596
g2
Ntp5112
Rp5113
(dp5114
g593
Nsg600
g824
sg612
(dp5115
g4888
g784
sS'T25'
p5116
g784
sS'GIT1'
p5117
NsS'Kinase'
p5118
S'active'
p5119
ssbasg614
I00
sbag0
(g589
g2
Ntp5120
Rp5121
(dp5122
g593
Nsg594
(lp5123
g0
(g596
g2
Ntp5124
Rp5125
(dp5126
g593
Nsg600
g701
sg612
(dp5127
S'GtpBound'
p5128
S'active'
p5129
ssbasg614
I00
sbag0
(g589
g2
Ntp5130
Rp5131
(dp5132
g593
Nsg594
(lp5133
g0
(g596
g2
Ntp5134
Rp5135
(dp5136
g593
Nsg600
g849
sg612
(dp5137
S'T185'
p5138
g784
sS'Kinase'
p5139
S'active'
p5140
sS'Y187'
p5141
g784
sS'ARRB2'
p5142
NsS'P3579'
p5143
Nsg4907
g784
sS'RAF1'
p5144
Nssbasg614
I00
sbasb.