(lp0
S'decrease_amount_1'
p1
aS'[^_]*_syntax_1_noun'
p2
aS'[^_]*_syntax_2_noun'
p3
aS'[^_]*_syntax_1_verb'
p4
aS'[^_]*_syntax_2_verb'
p5
aS'[^_]*_token_inresponseto'
p6
aS'Positive_[^_]*_syntax_results_in'
p7
aS'Positive_activation_surface_treated_with'
p8
aS'translocation_1a_noun'
p9
aS'translocation_1b_noun'
p10
aS'translocation_2a_verb_apposition'
p11
aS'translocation_2b_verb_apposition'
p12
aS'translocation_3a_verb_passive'
p13
aS'translocation_3b_verb_passive'
p14
aS'translocation_4a_noun_with_cause'
p15
aS'translocation_4b_noun_with_cause'
p16
aS'translocation_5_verb_infinitive_with_cause'
p17
aS'translocation_6_verb_active'
p18
aS'translocation_7a_noun_no_cause'
p19
aS'translocation_7b_noun_no_cause'
p20
aS'translocation_8a_verb_active_no_cause'
p21
aS'translocation_8b_verb_active_no_cause'
p22
aS'[^_]*_syntax_1a_verb'
p23
aS'[^_]*_syntax_1b_verb'
p24
aS'[^_]*_syntax_2a_verb'
p25
aS'[^_]*_syntax_2b_verb'
p26
aS'[^_]*_syntax_3a_verb'
p27
aS'[^_]*_syntax_3b_verb'
p28
aS'[^_]*_syntax_3e_verb'
p29
aS'[^_]*_syntax_3f_verb'
p30
aS'[^_]*_syntax_4_verb'
p31
aS'[^_]*_syntax_5_verb'
p32
aS'[^_]*_syntax_6_verb'
p33
aS'[^_]*_syntax_verb_underwent'
p34
aS'[^_]*_syntax_7_verb_wrong'
p35
aS'[^_]*_syntax_7_verb_correct'
p36
aS'[^_]*_syntax_1a_noun'
p37
aS'[^_]*_syntax_1b_noun'
p38
aS'[^_]*_syntax_2_noun'
p39
aS'[^_]*_syntax_3_noun'
p40
aS'[^_]*_syntax_4_noun'
p41
aS'[^_]*_syntax_5_noun'
p42
aS'[^_]*_syntax_6_noun'
p43
aS'[^_]*_syntax_7_noun'
p44
aS'[^_]*_syntax_8_noun'
p45
aS'[^_]*_token_1_noun'
p46
aS'[^_]*_token_2_noun'
p47
aS'[^_]*_token_3_noun'
p48
aS'[^_]*_token_4_noun'
p49
aS'[^_]*_token_5_noun'
p50
aS'[^_]*_token_6_noun'
p51
aS'[^_]*_token_7a_noun'
p52
aS'[^_]*_token_8a_noun'
p53
aS'[^_]*_token_8b_noun'
p54
aS'[^_]*_token_4_verb'
p55
aS'[^_]*_token_5_verb'
p56
aS'[^_]*_token_6_verb'
p57
aS'[^_]*_token_inresponseto'
p58
aS'Negative_[^_]*_in_response_to'
p59
aS'Negative_[^_]*_following_Controller_inhibition'
p60
aS'Negative_[^_]*_following_inhibition_of_Controller'
p61
aS'Negative_[^_]*_syntax_following_inhibition'
p62
aS'expression_1'
p63
aS'expression_2'
p64
aS'expression_3'
p65
aS'transcription_0'
p66
aS'transcription_1'
p67
aS'transcription_1b'
p68
aS'transcription_2'
p69
aS'transcription_3'
p70
aS'Positive_[^_]*_in_response_to'
p71
aS'Positive_[^_]*_following_Controller_activation'
p72
aS'Positive_[^_]*_following_activation_of_Controller'
p73
aS'Positive_[^_]*_syntax_following_activation'
p74
aS'amount_1'
p75
aS'dehydrolysis_1'
p76
aS'dehydrolysis_2'
p77
aS'dehydrolysis_2wrong'
p78
aS'dehydrolysis_3'
p79
aS'dehydrolysis_4'
p80
aS'dehydrolysis_token_1'
p81
aS'dehydrolysis_token_2'
p82
aS'dehydrolysis_decl1'
p83
aS'dehydrolysis_pass1'
p84
aS'dehydrolysis_subjnom1'
p85
aS'Negative_[^_]*_syntax_1_verb'
p86
aS'Negative_[^_]*_syntax_2_verb'
p87
aS'Negative_[^_]*_syntax_3_verb'
p88
aS'Negative_[^_]*_syntax_4_verb'
p89
aS'Negative_[^_]*_syntax_5_verb'
p90
aS'Negative_[^_]*_syntax_6_verb'
p91
aS'Negative_[^_]*_syntax_7_verb'
p92
aS'Negative_[^_]*_syntax_1_noun'
p93
aS'Negative_[^_]*_syntax_2_noun'
p94
aS'Negative_[^_]*_syntax_3_noun'
p95
aS'Negative_[^_]*_syntax_5_noun'
p96
aS'Negative_[^_]*_syntax_6_noun'
p97
aS'Negative_[^_]*_syntax_7_noun'
p98
aS'Negative_[^_]*_syntax_noun_Hearst'
p99
aS'Negative_[^_]*_token_1_noun'
p100
aS'Negative_[^_]*_token_2_noun'
p101
aS'Negative_[^_]*_copula_1'
p102
aS'Negative_[^_]*_possessive_noun'
p103
aS'Negative_[^_]*_token_experimental_results_1'
p104
aS'Positive_[^_]*_syntax_1_verb'
p105
aS'Positive_[^_]*_syntax_1b_verb'
p106
aS'Positive_[^_]*_syntax_1c_verb'
p107
aS'Positive_[^_]*_syntax_2_verb'
p108
aS'Positive_[^_]*_syntax_3_verb'
p109
aS'Positive_[^_]*_syntax_4_verb'
p110
aS'Positive_[^_]*_syntax_5_verb'
p111
aS'Positive_[^_]*_syntax_6_verb'
p112
aS'Positive_[^_]*_syntax_7_verb'
p113
aS'Positive_[^_]*_syntax_8_verb'
p114
aS'Positive_[^_]*_syntax_1_noun'
p115
aS'Positive_[^_]*_syntax_2_noun'
p116
aS'Positive_[^_]*_syntax_3_noun'
p117
aS'Positive_[^_]*_syntax_5_noun'
p118
aS'Positive_[^_]*_syntax_6_noun'
p119
aS'Positive_[^_]*_syntax_7_noun'
p120
aS'Positive_[^_]*_syntax_noun_Hearst'
p121
aS'Positive_[^_]*_copula_1'
p122
aS'Positive_[^_]*_possessive_noun'
p123
aS'Positive_[^_]*_token_1_verb'
p124
aS'Positive_[^_]*_token_1b_verb'
p125
aS'Positive_[^_]*_token_1_noun'
p126
aS'Positive_[^_]*_token_2_noun'
p127
aS'Positive_[^_]*_token_experimental_results_1'
p128
aS'Positive_[^_]*_nested_syntax_2_verb'
p129
aS'Positive_early_[^_]*'
p130
aS'binding1a'
p131
aS'binding1b'
p132
aS'binding1forms'
p133
aS'binding2'
p134
aS'binding3'
p135
aS'binding_of_and'
p136
aS'binding5'
p137
aS'binding6'
p138
aS'binding7a'
p139
aS'binding7b'
p140
aS'binding7c'
p141
aS'binding9'
p142
aS'binding10'
p143
aS'binding10b'
p144
aS'binding11'
p145
aS'binding12'
p146
aS'binding13'
p147
aS'binding14'
p148
aS'binding_16'
p149
aS'binding_17'
p150
aS'binding_18'
p151
aS'binding_19'
p152
aS'binding_20'
p153
aS'binding_21'
p154
aS'binding_syntax_23_verb'
p155
aS'binding_syntax_24_noun'
p156
aS'binding_syntax_25_verb'
p157
aS'binding_syntax_26_verb'
p158
aS'binding_syntax_27_verb'
p159
aS'binding_token_1'
p160
aS'binding_token_3'
p161
aS'binding_token_4'
p162
aS'binding_token_5'
p163
aS'binding_coexist'
p164
aS'binding_oncebound'
p165
aS'binding_thatisbound'
p166
aS'binding_thatisbound_surface'
p167
aS'binding_complex_formation_1'
p168
aS'binding_complex_A_B'
p169
aS'binding_activity'
p170
aS'complex_formation'
p171
aS'hydrolysis_1'
p172
aS'hydrolysis_2'
p173
aS'hydrolysis_2wrong'
p174
aS'hydrolysis_3'
p175
aS'hydrolysis_4'
p176
aS'hydrolysis_token_1'
p177
aS'hydrolysis_token_2'
p178
aS'hydrolysis_decl1'
p179
aS'hydrolysis_pass1'
p180
aS'hydrolysis_subjnom1'
p181
a.